; ModuleID = 'klee_sim.bc'
source_filename = "klee_sim.cpp"
target datalayout = "e-m:o-p270:32:32-p271:32:32-p272:64:64-i64:64-f80:128-n8:16:32:64-S128"
target triple = "x86_64-apple-macosx14.0.0"

%"class.std::__1::unordered_map" = type { %"class.std::__1::__hash_table" }
%"class.std::__1::__hash_table" = type <{ %"class.std::__1::unique_ptr", %"class.std::__1::__compressed_pair.19", %"class.std::__1::__compressed_pair.25", %"class.std::__1::__compressed_pair.27", [4 x i8] }>
%"class.std::__1::unique_ptr" = type { %"class.std::__1::__compressed_pair.11" }
%"class.std::__1::__compressed_pair.11" = type { %"struct.std::__1::__compressed_pair_elem.12", %"struct.std::__1::__compressed_pair_elem.13" }
%"struct.std::__1::__compressed_pair_elem.12" = type { %"struct.std::__1::__hash_node_base"** }
%"struct.std::__1::__hash_node_base" = type { %"struct.std::__1::__hash_node_base"* }
%"struct.std::__1::__compressed_pair_elem.13" = type { %"class.std::__1::__bucket_list_deallocator" }
%"class.std::__1::__bucket_list_deallocator" = type { %"class.std::__1::__compressed_pair.14" }
%"class.std::__1::__compressed_pair.14" = type { %"struct.std::__1::__compressed_pair_elem.9" }
%"struct.std::__1::__compressed_pair_elem.9" = type { i64 }
%"class.std::__1::__compressed_pair.19" = type { %"struct.std::__1::__compressed_pair_elem.20" }
%"struct.std::__1::__compressed_pair_elem.20" = type { %"struct.std::__1::__hash_node_base" }
%"class.std::__1::__compressed_pair.25" = type { %"struct.std::__1::__compressed_pair_elem.9" }
%"class.std::__1::__compressed_pair.27" = type { %"struct.std::__1::__compressed_pair_elem.28" }
%"struct.std::__1::__compressed_pair_elem.28" = type { float }
%"class.std::__1::multimap" = type { %"class.std::__1::__tree" }
%"class.std::__1::__tree" = type { %"class.std::__1::__tree_end_node"*, %"class.std::__1::__compressed_pair.2", %"class.std::__1::__compressed_pair.8" }
%"class.std::__1::__tree_end_node" = type { %"class.std::__1::__tree_node_base"* }
%"class.std::__1::__tree_node_base" = type <{ %"class.std::__1::__tree_end_node", %"class.std::__1::__tree_node_base"*, %"class.std::__1::__tree_end_node"*, i8, [7 x i8] }>
%"class.std::__1::__compressed_pair.2" = type { %"struct.std::__1::__compressed_pair_elem.3" }
%"struct.std::__1::__compressed_pair_elem.3" = type { %"class.std::__1::__tree_end_node" }
%"class.std::__1::__compressed_pair.8" = type { %"struct.std::__1::__compressed_pair_elem.9" }
%class.RESET_CONTROLLER = type { %class.slaveIP, %"struct.slaveIP::interfaceRegisters", %"struct.slaveIP::interfaceRegisters" }
%class.slaveIP = type { %class.memory_model.base, %class.system_memory_map, i8, i8, %"class.std::__1::queue" }
%class.memory_model.base = type <{ %class.baseIP, i32, i32, i32, i32, i32, [4 x i8], i32*, i8 }>
%class.baseIP = type { %class.Log, %"class.std::__1::map", i8, %"class.std::__1::map" }
%class.Log = type { i32, i32, i32, i32, i32 }
%"class.std::__1::map" = type { %"class.std::__1::__tree" }
%class.system_memory_map = type { %class.Log, i32, i32, i32* }
%"class.std::__1::queue" = type { %"class.std::__1::deque" }
%"class.std::__1::deque" = type { %"class.std::__1::__deque_base" }
%"class.std::__1::__deque_base" = type { %"struct.std::__1::__split_buffer", i64, %"class.std::__1::__compressed_pair.40" }
%"struct.std::__1::__split_buffer" = type { i32**, i32**, i32**, %"class.std::__1::__compressed_pair.34" }
%"class.std::__1::__compressed_pair.34" = type { %"struct.std::__1::__compressed_pair_elem.35" }
%"struct.std::__1::__compressed_pair_elem.35" = type { i32** }
%"class.std::__1::__compressed_pair.40" = type { %"struct.std::__1::__compressed_pair_elem.9" }
%"struct.slaveIP::interfaceRegisters" = type <{ %"class.std::__1::basic_string", %"class.std::__1::basic_string", i32, [4 x i8] }>
%"class.std::__1::basic_string" = type { %"class.std::__1::__compressed_pair" }
%"class.std::__1::__compressed_pair" = type { %"struct.std::__1::__compressed_pair_elem" }
%"struct.std::__1::__compressed_pair_elem" = type { %"struct.std::__1::basic_string<char>::__rep" }
%"struct.std::__1::basic_string<char>::__rep" = type { %union.anon }
%union.anon = type { %"struct.std::__1::basic_string<char>::__long" }
%"struct.std::__1::basic_string<char>::__long" = type { i64, i64, i8* }
%class.CRC_CONTROLLER = type <{ %class.slaveIP, %"struct.slaveIP::interfaceRegisters", %"struct.slaveIP::interfaceRegisters", i8, i8, [6 x i8] }>
%class.TIMER_CONTROLLER = type <{ %class.slaveIP, %"struct.slaveIP::interfaceRegisters", %"struct.slaveIP::interfaceRegisters", %"struct.slaveIP::interfaceRegisters", i8, i8, [6 x i8] }>
%class.SOFTWARECONTROLLER = type <{ %class.slaveIP, %"struct.slaveIP::interfaceRegisters", %"struct.slaveIP::interfaceRegisters", %"struct.slaveIP::interfaceRegisters", %"struct.slaveIP::interfaceRegisters", %"struct.slaveIP::interfaceRegisters", %"struct.slaveIP::interfaceRegisters", i32, i8, [3 x i8] }>
%class.INTERFACES = type { %class.system_memory_map, %class.system_memory_map* }
%"class.std::__1::__map_iterator" = type { %"class.std::__1::__tree_iterator" }
%"class.std::__1::__tree_iterator" = type { %"class.std::__1::__tree_end_node"* }
%"struct.std::__1::pair" = type <{ %"class.std::__1::basic_string", i32, [4 x i8] }>
%"struct.std::__1::__value_type" = type { %"struct.std::__1::pair" }
%"class.std::__1::__map_const_iterator" = type { %"class.std::__1::__tree_const_iterator" }
%"class.std::__1::__tree_const_iterator" = type { %"class.std::__1::__tree_end_node"* }
%"class.std::__1::__hash_map_iterator" = type { %"class.std::__1::__hash_iterator" }
%"class.std::__1::__hash_iterator" = type { %"struct.std::__1::__hash_node_base"* }
%"struct.std::__1::input_iterator_tag" = type { i8 }
%"struct.std::__1::forward_iterator_tag" = type { i8 }
%"struct.std::__1::__hash_value_type" = type { %"struct.std::__1::pair" }
%"struct.std::__1::pair.32" = type <{ %"class.std::__1::basic_string", i32, [4 x i8] }>
%"struct.std::__1::pair.30" = type <{ %"class.std::__1::__hash_map_iterator", i8, [7 x i8] }>
%"struct.std::__1::pair.48" = type <{ %"class.std::__1::__hash_iterator", i8, [7 x i8] }>
%"class.std::__1::__hash_map_const_iterator" = type { %"class.std::__1::__hash_const_iterator" }
%"class.std::__1::__hash_const_iterator" = type { %"struct.std::__1::__hash_node_base"* }
%"struct.INTERFACES::interfaceRegisters" = type <{ %"class.std::__1::basic_string", %"class.std::__1::basic_string", i32, i8, [3 x i8], %"struct.std::__1::array", [4 x i8] }>
%"struct.std::__1::array" = type { [5 x i32] }
%"class.std::__1::allocator" = type { i8 }
%class.memory_model = type <{ %class.baseIP, i32, i32, i32, i32, i32, [4 x i8], i32*, i8, [7 x i8] }>
%"class.std::__1::chrono::duration" = type { i64 }
%"class.std::__1::chrono::time_point" = type { %"class.std::__1::chrono::duration.45" }
%"class.std::__1::chrono::duration.45" = type { i64 }
%"struct.std::__1::chrono::__duration_cast" = type { i8 }
%"struct.std::__1::chrono::__duration_lt" = type { i8 }
%"class.std::__1::__map_value_compare" = type { i8 }
%"struct.std::__1::less" = type { i8 }
%"struct.std::__1::__value_init_tag" = type { i8 }
%"struct.std::__1::__compressed_pair_elem.4" = type { i8 }
%"class.std::__1::allocator.5" = type { i8 }
%"struct.std::__1::__non_trivial_if.6" = type { i8 }
%"struct.std::__1::__compressed_pair_elem.10" = type { i8 }
%"class.std::__1::__tree_node" = type { %"class.std::__1::__tree_node_base.base", [7 x i8], %"struct.std::__1::__value_type" }
%"class.std::__1::__tree_node_base.base" = type <{ %"class.std::__1::__tree_end_node", %"class.std::__1::__tree_node_base"*, %"class.std::__1::__tree_end_node"*, i8 }>
%"class.std::__1::allocator.42" = type { i8 }
%"class.std::__1::__deque_iterator" = type { i32**, i32* }
%"struct.std::__1::integral_constant" = type { i8 }
%"struct.std::__1::is_trivially_destructible" = type { i8 }
%"struct.std::__1::__compressed_pair_elem.41" = type { i8 }
%"class.std::__1::allocator.37" = type { i8 }
%"struct.std::__1::integral_constant.46" = type { i8 }
%"struct.std::__1::__compressed_pair_elem.36" = type { i8 }
%"class.std::__1::__basic_string_common" = type { i8 }
%"struct.std::__1::basic_string<char>::__raw" = type { [3 x i64] }
%"class.std::__1::basic_string_view" = type { i8*, i64 }
%"struct.std::__1::__less" = type { i8 }
%"struct.std::__1::basic_string<char>::__short" = type { %union.anon.0, [23 x i8] }
%union.anon.0 = type { i8 }
%"struct.std::__1::__default_init_tag" = type { i8 }
%"struct.std::__1::__compressed_pair_elem.15" = type { i8 }
%"class.std::__1::allocator.16" = type { i8 }
%"struct.std::__1::__non_trivial_if.17" = type { i8 }
%"struct.std::__1::__compressed_pair_elem.21" = type { i8 }
%"class.std::__1::allocator.22" = type { i8 }
%"struct.std::__1::__non_trivial_if.23" = type { i8 }
%"struct.std::__1::__compressed_pair_elem.26" = type { i8 }
%"class.std::__1::__unordered_map_hasher" = type { i8 }
%"struct.std::__1::hash" = type { i8 }
%"struct.std::__1::__compressed_pair_elem.29" = type { i8 }
%"class.std::__1::__unordered_map_equal" = type { i8 }
%"struct.std::__1::equal_to" = type { i8 }
%"struct.std::__1::__compressed_pair_elem.1" = type { i8 }
%"struct.std::__1::__non_trivial_if" = type { i8 }
%"struct.std::__1::__hash_node" = type { %"struct.std::__1::__hash_node_base", i64, %"struct.std::__1::__hash_value_type" }
%"struct.std::__1::__murmur2_or_cityhash" = type { i8 }
%"struct.std::__1::pair.47" = type { i64, i64 }
%"struct.std::__1::__extract_key_first_tag" = type { i8 }
%"struct.std::__1::__can_extract_key" = type { i8 }
%"class.std::__1::unique_ptr.50" = type { %"class.std::__1::__compressed_pair.51" }
%"class.std::__1::__compressed_pair.51" = type { %"struct.std::__1::__compressed_pair_elem.52", %"struct.std::__1::__compressed_pair_elem.53" }
%"struct.std::__1::__compressed_pair_elem.52" = type { %"struct.std::__1::__hash_node"* }
%"struct.std::__1::__compressed_pair_elem.53" = type { %"class.std::__1::__hash_node_destructor" }
%"class.std::__1::__hash_node_destructor" = type <{ %"class.std::__1::allocator.22"*, i8, [7 x i8] }>
%"class.std::length_error" = type { %"class.std::logic_error" }
%"class.std::logic_error" = type { %"class.std::exception", %"class.std::__1::__libcpp_refstring" }
%"class.std::exception" = type { i32 (...)** }
%"class.std::__1::__libcpp_refstring" = type { i8* }
%"class.std::__1::unique_ptr.54" = type { %"class.std::__1::__compressed_pair.55" }
%"class.std::__1::__compressed_pair.55" = type { %"struct.std::__1::__compressed_pair_elem.56", %"struct.std::__1::__compressed_pair_elem.57" }
%"struct.std::__1::__compressed_pair_elem.56" = type { %"class.std::__1::__tree_node"* }
%"struct.std::__1::__compressed_pair_elem.57" = type { %"class.std::__1::__tree_node_destructor" }
%"class.std::__1::__tree_node_destructor" = type <{ %"class.std::__1::allocator.5"*, i8, [7 x i8] }>
%"class.std::__1::__deque_base_common" = type { i8 }
%"class.std::__1::__split_buffer_common" = type { i8 }
%"struct.std::__1::__non_trivial_if.38" = type { i8 }
%"struct.std::__1::__non_trivial_if.43" = type { i8 }
%"struct.std::__1::__split_buffer.58" = type { i32**, i32**, i32**, %"class.std::__1::__compressed_pair.59" }
%"class.std::__1::__compressed_pair.59" = type { %"struct.std::__1::__compressed_pair_elem.35", %"struct.std::__1::__compressed_pair_elem.60" }
%"struct.std::__1::__compressed_pair_elem.60" = type { %"class.std::__1::allocator.37"* }
%"class.std::__1::unique_ptr.61" = type { %"class.std::__1::__compressed_pair.62" }
%"class.std::__1::__compressed_pair.62" = type { %"struct.std::__1::__compressed_pair_elem.63", %"struct.std::__1::__compressed_pair_elem.64" }
%"struct.std::__1::__compressed_pair_elem.63" = type { i32* }
%"struct.std::__1::__compressed_pair_elem.64" = type { %"class.std::__1::__allocator_destructor" }
%"class.std::__1::__allocator_destructor" = type { %"class.std::__1::allocator.42"*, i64 }
%"class.std::__1::move_iterator" = type { i32** }
%"struct.std::__1::__split_buffer<int *, std::__1::allocator<int *> &>::_ConstructTransaction" = type { i32**, i32**, i32*** }
%"struct.std::__1::random_access_iterator_tag" = type { i8 }
%"class.std::__1::__deque_iterator.65" = type { i32**, i32* }
%"struct.std::__1::__deque_base<int, std::__1::allocator<int>>::__deque_range" = type { %"class.std::__1::__deque_iterator", %"class.std::__1::__deque_iterator" }
%"struct.std::__1::__deque_base<int, std::__1::allocator<int>>::__deque_block_range" = type { i32*, i32* }
%"struct.std::__1::__deque_base<int, std::__1::allocator<int>>::_ConstructTransaction" = type { i32*, i32*, i32*, %"class.std::__1::__deque_base"* }

@_ZN6baseIP9m_sys_rstE = global i8 0, align 1, !dbg !0
@_ZN6baseIP9m_sys_clkE = global i8 0, align 1, !dbg !5080
@.str = private unnamed_addr constant [20 x i8] c"Busy status set to \00", align 1
@.str.1 = private unnamed_addr constant [24 x i8] c"memory-mapped register \00", align 1
@.str.2 = private unnamed_addr constant [10 x i8] c"not found\00", align 1
@_ZN17system_memory_map17global_memory_mapE = global %"class.std::__1::unordered_map"* null, align 8, !dbg !5118
@.str.3 = private unnamed_addr constant [23 x i8] c"Valid bit values are: \00", align 1
@.str.4 = private unnamed_addr constant [31 x i8] c"system memory-mapped register \00", align 1
@.str.5 = private unnamed_addr constant [11 x i8] c" not found\00", align 1
@.str.6 = private unnamed_addr constant [23 x i8] c" not valid, data stale\00", align 1
@valid_status = global i32 0, align 4, !dbg !5460
@.str.7 = private unnamed_addr constant [7 x i8] c"valid[\00", align 1
@.str.8 = private unnamed_addr constant [2 x i8] c"]\00", align 1
@.str.9 = private unnamed_addr constant [5 x i8] c" = 1\00", align 1
@.str.10 = private unnamed_addr constant [15 x i8] c" for register \00", align 1
@.str.11 = private unnamed_addr constant [20 x i8] c"system memory map: \00", align 1
@.str.12 = private unnamed_addr constant [13 x i8] c" DIRECTION: \00", align 1
@.str.13 = private unnamed_addr constant [4 x i8] c" , \00", align 1
@.str.14 = private unnamed_addr constant [8 x i8] c"VALUE: \00", align 1
@.str.15 = private unnamed_addr constant [6 x i8] c"INPUT\00", align 1
@.str.16 = private unnamed_addr constant [9 x i8] c"IFF REG \00", align 1
@.str.17 = private unnamed_addr constant [15 x i8] c" AND SourceID \00", align 1
@.str.18 = private unnamed_addr constant [40 x i8] c" AND DIRECTION MATCH, UPDATE SUCCESSFUL\00", align 1
@.str.19 = private unnamed_addr constant [39 x i8] c" AND DIRECTION MISMATCH, UPDATE FAILED\00", align 1
@_ZL15interfaceRegMap = internal global %"class.std::__1::multimap"* null, align 8, !dbg !6203
@_ZL11sourceIDMap = internal global %"class.std::__1::multimap"* null, align 8, !dbg !6207
@.str.20 = private unnamed_addr constant [25 x i8] c"Printing memory values:\0A\00", align 1
@.str.21 = private unnamed_addr constant [5 x i8] c"%d ,\00", align 1
@_ZN7slaveIP8m_ip_rstE = global i8 0, align 1, !dbg !5462
@.str.22 = private unnamed_addr constant [11 x i8] c"IP is busy\00", align 1
@.str.23 = private unnamed_addr constant [15 x i8] c"IP is not busy\00", align 1
@.str.24 = private unnamed_addr constant [19 x i8] c"fifo contents: %d\0A\00", align 1
@.str.25 = private unnamed_addr constant [12 x i8] c"FIFO empty\0A\00", align 1
@.str.26 = private unnamed_addr constant [38 x i8] c"[CRC] CALCULATED CHECKSUM IS: INT -> \00", align 1
@.str.27 = private unnamed_addr constant [31 x i8] c"[CRC] CRC Trigger not asserted\00", align 1
@.str.28 = private unnamed_addr constant [16 x i8] c"[SW] CRC MATCH!\00", align 1
@.str.29 = private unnamed_addr constant [19 x i8] c"[SW] CRC MISMATCH!\00", align 1
@reset_control = global %class.RESET_CONTROLLER* null, align 8, !dbg !5838
@crc = global %class.CRC_CONTROLLER* null, align 8, !dbg !5857
@timer = global %class.TIMER_CONTROLLER* null, align 8, !dbg !5874
@software = global %class.SOFTWARECONTROLLER* null, align 8, !dbg !5891
@interface = global %class.INTERFACES* null, align 8, !dbg !5913
@__event__timerSet = global i8 0, align 1, !dbg !6191
@__event__timerfinish = global i8 0, align 1, !dbg !6193
@__event__resetRequest = global i8 0, align 1, !dbg !6195
@__assertion__globalresetAssert = global i8 0, align 1, !dbg !6197
@__assertion__crcTriggerAssert = global i8 0, align 1, !dbg !6199
@__assertion__timerTriggerassert = global i8 0, align 1, !dbg !6201
@.str.35 = private unnamed_addr constant [21 x i8] c"schedular_queue_size\00", align 1
@.str.36 = private unnamed_addr constant [15 x i8] c"rand_processID\00", align 1
@.str.37 = private unnamed_addr constant [26 x i8] c"resetDriver_initial_state\00", align 1
@.str.38 = private unnamed_addr constant [23 x i8] c"swDriver_initial_state\00", align 1
@__func__.main = private unnamed_addr constant [5 x i8] c"main\00", align 1
@.str.39 = private unnamed_addr constant [13 x i8] c"klee_sim.cpp\00", align 1
@.str.40 = private unnamed_addr constant [93 x i8] c"!__assertion__globalresetAssert || (__assertion__globalresetAssert && __event__resetRequest)\00", align 1
@.str.41 = private unnamed_addr constant [101 x i8] c"!__assertion__crcTriggerAssert || (__assertion__crcTriggerAssert && __assertion__timerTriggerassert)\00", align 1
@.str.42 = private unnamed_addr constant [7 x i8] c"glbRST\00", align 1
@.str.43 = private unnamed_addr constant [7 x i8] c"OUTPUT\00", align 1
@.str.44 = private unnamed_addr constant [4 x i8] c"req\00", align 1
@.str.45 = private unnamed_addr constant [11 x i8] c"crcTrigger\00", align 1
@.str.46 = private unnamed_addr constant [12 x i8] c"crcChecksum\00", align 1
@.str.47 = private unnamed_addr constant [9 x i8] c"duration\00", align 1
@.str.48 = private unnamed_addr constant [11 x i8] c"startTimer\00", align 1
@.str.49 = private unnamed_addr constant [10 x i8] c"timerDone\00", align 1
@.str.50 = private unnamed_addr constant [10 x i8] c"initTimer\00", align 1
@.str.51 = private unnamed_addr constant [14 x i8] c"timerDuration\00", align 1
@.str.52 = private unnamed_addr constant [8 x i8] c"initCRC\00", align 1
@.str.53 = private unnamed_addr constant [9 x i8] c"resetReq\00", align 1
@.str.54 = private unnamed_addr constant [11 x i8] c"swChecksum\00", align 1
@.str.55 = private unnamed_addr constant [9 x i8] c"timerEnd\00", align 1
@.str.56 = private unnamed_addr constant [68 x i8] c"allocator<T>::allocate(size_t n) 'n' exceeds maximum supported size\00", align 1
@_ZTISt12length_error = external constant i8*
@_ZTVSt12length_error = external unnamed_addr constant { [5 x i8*] }, align 8
@llvm.global_ctors = appending global [1 x { i32, void ()*, i8* }] [{ i32, void ()*, i8* } { i32 65535, void ()* @_GLOBAL__sub_I_klee_sim.cpp, i8* null }]
@.str.30 = private unnamed_addr constant [82 x i8] c"/tmp/klee-20230608-10546-1rp2ez7/klee-3.0/runtime/Intrinsic/klee_div_zero_check.c\00", align 1
@.str.1.31 = private unnamed_addr constant [15 x i8] c"divide by zero\00", align 1
@.str.2.32 = private unnamed_addr constant [8 x i8] c"div.err\00", align 1
@.str.57 = private unnamed_addr constant [8 x i8] c"IGNORED\00", align 1
@.str.1.58 = private unnamed_addr constant [16 x i8] c"overshift error\00", align 1
@.str.2.59 = private unnamed_addr constant [14 x i8] c"overshift.err\00", align 1

; Function Attrs: mustprogress noinline nounwind optnone ssp uwtable
define void @_ZN3Log8SetlevelEi(%class.Log* nonnull align 4 dereferenceable(20) %0, i32 %1) #0 align 2 !dbg !7458 {
  %3 = alloca %class.Log*, align 8
  %4 = alloca i32, align 4
  store %class.Log* %0, %class.Log** %3, align 8
  call void @llvm.dbg.declare(metadata %class.Log** %3, metadata !7459, metadata !DIExpression()), !dbg !7461
  store i32 %1, i32* %4, align 4
  call void @llvm.dbg.declare(metadata i32* %4, metadata !7462, metadata !DIExpression()), !dbg !7463
  %5 = load %class.Log*, %class.Log** %3, align 8
  %6 = load i32, i32* %4, align 4, !dbg !7464
  %7 = getelementptr inbounds %class.Log, %class.Log* %5, i32 0, i32 4, !dbg !7465
  store i32 %6, i32* %7, align 4, !dbg !7466
  ret void, !dbg !7467
}

; Function Attrs: nofree nosync nounwind readnone speculatable willreturn
declare void @llvm.dbg.declare(metadata, metadata, metadata) #1

; Function Attrs: mustprogress noinline nounwind optnone ssp uwtable
define void @_ZN3Log10to_consoleENSt3__112basic_stringIcNS0_11char_traitsIcEENS0_9allocatorIcEEEEi(%class.Log* nonnull align 4 dereferenceable(20) %0, %"class.std::__1::basic_string"* %1, i32 %2) #0 align 2 !dbg !7468 {
  %4 = alloca %class.Log*, align 8
  %5 = alloca i32, align 4
  store %class.Log* %0, %class.Log** %4, align 8
  call void @llvm.dbg.declare(metadata %class.Log** %4, metadata !7469, metadata !DIExpression()), !dbg !7470
  call void @llvm.dbg.declare(metadata %"class.std::__1::basic_string"* %1, metadata !7471, metadata !DIExpression()), !dbg !7472
  store i32 %2, i32* %5, align 4
  call void @llvm.dbg.declare(metadata i32* %5, metadata !7473, metadata !DIExpression()), !dbg !7474
  %6 = load %class.Log*, %class.Log** %4, align 8
  ret void, !dbg !7475
}

; Function Attrs: mustprogress noinline optnone ssp uwtable
define void @_ZN6baseIP12set_busy_stsEb(%class.baseIP* nonnull align 8 dereferenceable(80) %0, i1 zeroext %1) #2 align 2 personality i8* bitcast (i32 (...)* @__gxx_personality_v0 to i8*) !dbg !7476 {
  %3 = alloca %class.baseIP*, align 8
  %4 = alloca i8, align 1
  %5 = alloca %"class.std::__1::basic_string", align 8
  %6 = alloca %"class.std::__1::basic_string", align 8
  %7 = alloca %"class.std::__1::basic_string", align 8
  %8 = alloca i8*, align 8
  %9 = alloca i32, align 4
  %10 = alloca %"class.std::__1::basic_string", align 8
  store %class.baseIP* %0, %class.baseIP** %3, align 8
  call void @llvm.dbg.declare(metadata %class.baseIP** %3, metadata !7477, metadata !DIExpression()), !dbg !7479
  %11 = zext i1 %1 to i8
  store i8 %11, i8* %4, align 1
  call void @llvm.dbg.declare(metadata i8* %4, metadata !7480, metadata !DIExpression()), !dbg !7481
  %12 = load %class.baseIP*, %class.baseIP** %3, align 8
  %13 = load i8, i8* %4, align 1, !dbg !7482
  %14 = trunc i8 %13 to i1, !dbg !7482
  %15 = getelementptr inbounds %class.baseIP, %class.baseIP* %12, i32 0, i32 2, !dbg !7483
  %16 = zext i1 %14 to i8, !dbg !7484
  store i8 %16, i8* %15, align 8, !dbg !7484
  call void @llvm.dbg.declare(metadata %"class.std::__1::basic_string"* %5, metadata !7485, metadata !DIExpression()), !dbg !7486
  %17 = load i8, i8* %4, align 1, !dbg !7487
  %18 = trunc i8 %17 to i1, !dbg !7487
  %19 = zext i1 %18 to i32, !dbg !7487
  call void @_ZNSt3__19to_stringEi(%"class.std::__1::basic_string"* sret(%"class.std::__1::basic_string") align 8 %7, i32 %19), !dbg !7488
  invoke void @_ZNSt3__1plIcNS_11char_traitsIcEENS_9allocatorIcEEEENS_12basic_stringIT_T0_T1_EEPKS6_OS9_(%"class.std::__1::basic_string"* sret(%"class.std::__1::basic_string") align 8 %6, i8* getelementptr inbounds ([20 x i8], [20 x i8]* @.str, i64 0, i64 0), %"class.std::__1::basic_string"* nonnull align 8 dereferenceable(24) %7)
          to label %20 unwind label %24, !dbg !7489

20:                                               ; preds = %2
  invoke void @_ZNSt3__1plIcNS_11char_traitsIcEENS_9allocatorIcEEEENS_12basic_stringIT_T0_T1_EEOS9_S6_(%"class.std::__1::basic_string"* sret(%"class.std::__1::basic_string") align 8 %5, %"class.std::__1::basic_string"* nonnull align 8 dereferenceable(24) %6, i8 signext 10)
          to label %21 unwind label %28, !dbg !7490

21:                                               ; preds = %20
  call void @_ZNSt3__112basic_stringIcNS_11char_traitsIcEENS_9allocatorIcEEED1Ev(%"class.std::__1::basic_string"* nonnull align 8 dereferenceable(24) %6) #19, !dbg !7491
  call void @_ZNSt3__112basic_stringIcNS_11char_traitsIcEENS_9allocatorIcEEED1Ev(%"class.std::__1::basic_string"* nonnull align 8 dereferenceable(24) %7) #19, !dbg !7491
  %22 = bitcast %class.baseIP* %12 to %class.Log*, !dbg !7492
  invoke void @_ZNSt3__112basic_stringIcNS_11char_traitsIcEENS_9allocatorIcEEEC1ERKS5_(%"class.std::__1::basic_string"* nonnull align 8 dereferenceable(24) %10, %"class.std::__1::basic_string"* nonnull align 8 dereferenceable(24) %5)
          to label %23 unwind label %33, !dbg !7493

23:                                               ; preds = %21
  call void @_ZN3Log10to_consoleENSt3__112basic_stringIcNS0_11char_traitsIcEENS0_9allocatorIcEEEEi(%class.Log* nonnull align 4 dereferenceable(20) %22, %"class.std::__1::basic_string"* %10, i32 2), !dbg !7492
  call void @_ZNSt3__112basic_stringIcNS_11char_traitsIcEENS_9allocatorIcEEED1Ev(%"class.std::__1::basic_string"* nonnull align 8 dereferenceable(24) %10) #19, !dbg !7492
  call void @_ZNSt3__112basic_stringIcNS_11char_traitsIcEENS_9allocatorIcEEED1Ev(%"class.std::__1::basic_string"* nonnull align 8 dereferenceable(24) %5) #19, !dbg !7494
  ret void, !dbg !7494

24:                                               ; preds = %2
  %25 = landingpad { i8*, i32 }
          cleanup, !dbg !7494
  %26 = extractvalue { i8*, i32 } %25, 0, !dbg !7494
  store i8* %26, i8** %8, align 8, !dbg !7494
  %27 = extractvalue { i8*, i32 } %25, 1, !dbg !7494
  store i32 %27, i32* %9, align 4, !dbg !7494
  br label %32, !dbg !7494

28:                                               ; preds = %20
  %29 = landingpad { i8*, i32 }
          cleanup, !dbg !7494
  %30 = extractvalue { i8*, i32 } %29, 0, !dbg !7494
  store i8* %30, i8** %8, align 8, !dbg !7494
  %31 = extractvalue { i8*, i32 } %29, 1, !dbg !7494
  store i32 %31, i32* %9, align 4, !dbg !7494
  call void @_ZNSt3__112basic_stringIcNS_11char_traitsIcEENS_9allocatorIcEEED1Ev(%"class.std::__1::basic_string"* nonnull align 8 dereferenceable(24) %6) #19, !dbg !7491
  br label %32, !dbg !7491

32:                                               ; preds = %28, %24
  call void @_ZNSt3__112basic_stringIcNS_11char_traitsIcEENS_9allocatorIcEEED1Ev(%"class.std::__1::basic_string"* nonnull align 8 dereferenceable(24) %7) #19, !dbg !7491
  br label %37, !dbg !7491

33:                                               ; preds = %21
  %34 = landingpad { i8*, i32 }
          cleanup, !dbg !7494
  %35 = extractvalue { i8*, i32 } %34, 0, !dbg !7494
  store i8* %35, i8** %8, align 8, !dbg !7494
  %36 = extractvalue { i8*, i32 } %34, 1, !dbg !7494
  store i32 %36, i32* %9, align 4, !dbg !7494
  call void @_ZNSt3__112basic_stringIcNS_11char_traitsIcEENS_9allocatorIcEEED1Ev(%"class.std::__1::basic_string"* nonnull align 8 dereferenceable(24) %5) #19, !dbg !7494
  br label %37, !dbg !7494

37:                                               ; preds = %33, %32
  %38 = load i8*, i8** %8, align 8, !dbg !7491
  %39 = load i32, i32* %9, align 4, !dbg !7491
  %40 = insertvalue { i8*, i32 } undef, i8* %38, 0, !dbg !7491
  %41 = insertvalue { i8*, i32 } %40, i32 %39, 1, !dbg !7491
  resume { i8*, i32 } %41, !dbg !7491
}

; Function Attrs: mustprogress noinline optnone ssp uwtable
define linkonce_odr hidden void @_ZNSt3__1plIcNS_11char_traitsIcEENS_9allocatorIcEEEENS_12basic_stringIT_T0_T1_EEOS9_S6_(%"class.std::__1::basic_string"* noalias sret(%"class.std::__1::basic_string") align 8 %0, %"class.std::__1::basic_string"* nonnull align 8 dereferenceable(24) %1, i8 signext %2) #2 !dbg !7495 {
  %4 = alloca i8*, align 8
  %5 = alloca %"class.std::__1::basic_string"*, align 8
  %6 = alloca i8, align 1
  %7 = bitcast %"class.std::__1::basic_string"* %0 to i8*
  store i8* %7, i8** %4, align 8
  store %"class.std::__1::basic_string"* %1, %"class.std::__1::basic_string"** %5, align 8
  call void @llvm.dbg.declare(metadata %"class.std::__1::basic_string"** %5, metadata !7498, metadata !DIExpression()), !dbg !7499
  store i8 %2, i8* %6, align 1
  call void @llvm.dbg.declare(metadata i8* %6, metadata !7500, metadata !DIExpression()), !dbg !7501
  %8 = load %"class.std::__1::basic_string"*, %"class.std::__1::basic_string"** %5, align 8, !dbg !7502
  %9 = load i8, i8* %6, align 1, !dbg !7503
  call void @_ZNSt3__112basic_stringIcNS_11char_traitsIcEENS_9allocatorIcEEE9push_backEc(%"class.std::__1::basic_string"* nonnull align 8 dereferenceable(24) %8, i8 signext %9), !dbg !7504
  %10 = load %"class.std::__1::basic_string"*, %"class.std::__1::basic_string"** %5, align 8, !dbg !7505
  %11 = call nonnull align 8 dereferenceable(24) %"class.std::__1::basic_string"* @_ZNSt3__14moveIRNS_12basic_stringIcNS_11char_traitsIcEENS_9allocatorIcEEEEEEONS_16remove_referenceIT_E4typeEOS9_(%"class.std::__1::basic_string"* nonnull align 8 dereferenceable(24) %10) #19, !dbg !7506
  call void @_ZNSt3__112basic_stringIcNS_11char_traitsIcEENS_9allocatorIcEEEC1EOS5_(%"class.std::__1::basic_string"* nonnull align 8 dereferenceable(24) %0, %"class.std::__1::basic_string"* nonnull align 8 dereferenceable(24) %11) #19, !dbg !7506
  ret void, !dbg !7507
}

; Function Attrs: mustprogress noinline optnone ssp uwtable
define linkonce_odr hidden void @_ZNSt3__1plIcNS_11char_traitsIcEENS_9allocatorIcEEEENS_12basic_stringIT_T0_T1_EEPKS6_OS9_(%"class.std::__1::basic_string"* noalias sret(%"class.std::__1::basic_string") align 8 %0, i8* %1, %"class.std::__1::basic_string"* nonnull align 8 dereferenceable(24) %2) #2 !dbg !7508 {
  %4 = alloca i8*, align 8
  %5 = alloca i8*, align 8
  %6 = alloca %"class.std::__1::basic_string"*, align 8
  %7 = bitcast %"class.std::__1::basic_string"* %0 to i8*
  store i8* %7, i8** %4, align 8
  store i8* %1, i8** %5, align 8
  call void @llvm.dbg.declare(metadata i8** %5, metadata !7511, metadata !DIExpression()), !dbg !7512
  store %"class.std::__1::basic_string"* %2, %"class.std::__1::basic_string"** %6, align 8
  call void @llvm.dbg.declare(metadata %"class.std::__1::basic_string"** %6, metadata !7513, metadata !DIExpression()), !dbg !7514
  %8 = load %"class.std::__1::basic_string"*, %"class.std::__1::basic_string"** %6, align 8, !dbg !7515
  %9 = load i8*, i8** %5, align 8, !dbg !7516
  %10 = call nonnull align 8 dereferenceable(24) %"class.std::__1::basic_string"* @_ZNSt3__112basic_stringIcNS_11char_traitsIcEENS_9allocatorIcEEE6insertEmPKc(%"class.std::__1::basic_string"* nonnull align 8 dereferenceable(24) %8, i64 0, i8* %9), !dbg !7517
  %11 = call nonnull align 8 dereferenceable(24) %"class.std::__1::basic_string"* @_ZNSt3__14moveIRNS_12basic_stringIcNS_11char_traitsIcEENS_9allocatorIcEEEEEEONS_16remove_referenceIT_E4typeEOS9_(%"class.std::__1::basic_string"* nonnull align 8 dereferenceable(24) %10) #19, !dbg !7518
  call void @_ZNSt3__112basic_stringIcNS_11char_traitsIcEENS_9allocatorIcEEEC1EOS5_(%"class.std::__1::basic_string"* nonnull align 8 dereferenceable(24) %0, %"class.std::__1::basic_string"* nonnull align 8 dereferenceable(24) %11) #19, !dbg !7518
  ret void, !dbg !7519
}

declare void @_ZNSt3__19to_stringEi(%"class.std::__1::basic_string"* sret(%"class.std::__1::basic_string") align 8, i32) #3

declare i32 @__gxx_personality_v0(...)

; Function Attrs: nounwind
declare void @_ZNSt3__112basic_stringIcNS_11char_traitsIcEENS_9allocatorIcEEED1Ev(%"class.std::__1::basic_string"* nonnull align 8 dereferenceable(24)) unnamed_addr #4

declare void @_ZNSt3__112basic_stringIcNS_11char_traitsIcEENS_9allocatorIcEEEC1ERKS5_(%"class.std::__1::basic_string"* nonnull align 8 dereferenceable(24), %"class.std::__1::basic_string"* nonnull align 8 dereferenceable(24)) unnamed_addr #3

; Function Attrs: mustprogress noinline optnone ssp uwtable
define void @_ZN6baseIP13read_from_memENSt3__112basic_stringIcNS0_11char_traitsIcEENS0_9allocatorIcEEEE(%class.baseIP* nonnull align 8 dereferenceable(80) %0, %"class.std::__1::basic_string"* %1) #2 align 2 personality i8* bitcast (i32 (...)* @__gxx_personality_v0 to i8*) !dbg !7520 {
  %3 = alloca %class.baseIP*, align 8
  %4 = alloca %"class.std::__1::__map_iterator", align 8
  %5 = alloca %"class.std::__1::__map_iterator", align 8
  %6 = alloca %"class.std::__1::basic_string", align 8
  %7 = alloca %"class.std::__1::basic_string", align 8
  %8 = alloca %"class.std::__1::basic_string", align 8
  %9 = alloca i8*, align 8
  %10 = alloca i32, align 4
  %11 = alloca %"class.std::__1::basic_string", align 8
  store %class.baseIP* %0, %class.baseIP** %3, align 8
  call void @llvm.dbg.declare(metadata %class.baseIP** %3, metadata !7521, metadata !DIExpression()), !dbg !7522
  call void @llvm.dbg.declare(metadata %"class.std::__1::basic_string"* %1, metadata !7523, metadata !DIExpression()), !dbg !7524
  %12 = load %class.baseIP*, %class.baseIP** %3, align 8
  call void @llvm.dbg.declare(metadata %"class.std::__1::__map_iterator"* %4, metadata !7525, metadata !DIExpression()), !dbg !7526
  %13 = getelementptr inbounds %class.baseIP, %class.baseIP* %12, i32 0, i32 1, !dbg !7527
  %14 = call %"class.std::__1::__tree_end_node"* @_ZNSt3__13mapINS_12basic_stringIcNS_11char_traitsIcEENS_9allocatorIcEEEEiNS_4lessIS6_EENS4_INS_4pairIKS6_iEEEEE4findERSA_(%"class.std::__1::map"* nonnull align 8 dereferenceable(24) %13, %"class.std::__1::basic_string"* nonnull align 8 dereferenceable(24) %1), !dbg !7528
  %15 = getelementptr inbounds %"class.std::__1::__map_iterator", %"class.std::__1::__map_iterator"* %4, i32 0, i32 0, !dbg !7528
  %16 = getelementptr inbounds %"class.std::__1::__tree_iterator", %"class.std::__1::__tree_iterator"* %15, i32 0, i32 0, !dbg !7528
  store %"class.std::__1::__tree_end_node"* %14, %"class.std::__1::__tree_end_node"** %16, align 8, !dbg !7528
  %17 = getelementptr inbounds %class.baseIP, %class.baseIP* %12, i32 0, i32 1, !dbg !7529
  %18 = call %"class.std::__1::__tree_end_node"* @_ZNSt3__13mapINS_12basic_stringIcNS_11char_traitsIcEENS_9allocatorIcEEEEiNS_4lessIS6_EENS4_INS_4pairIKS6_iEEEEE3endEv(%"class.std::__1::map"* nonnull align 8 dereferenceable(24) %17) #19, !dbg !7531
  %19 = getelementptr inbounds %"class.std::__1::__map_iterator", %"class.std::__1::__map_iterator"* %5, i32 0, i32 0, !dbg !7531
  %20 = getelementptr inbounds %"class.std::__1::__tree_iterator", %"class.std::__1::__tree_iterator"* %19, i32 0, i32 0, !dbg !7531
  store %"class.std::__1::__tree_end_node"* %18, %"class.std::__1::__tree_end_node"** %20, align 8, !dbg !7531
  %21 = call zeroext i1 @_ZNSt3__1eqERKNS_14__map_iteratorINS_15__tree_iteratorINS_12__value_typeINS_12basic_stringIcNS_11char_traitsIcEENS_9allocatorIcEEEEiEEPNS_11__tree_nodeIS9_PvEElEEEESH_(%"class.std::__1::__map_iterator"* nonnull align 8 dereferenceable(8) %4, %"class.std::__1::__map_iterator"* nonnull align 8 dereferenceable(8) %5), !dbg !7532
  br i1 %21, label %22, label %40, !dbg !7533

22:                                               ; preds = %2
  call void @llvm.dbg.declare(metadata %"class.std::__1::basic_string"* %6, metadata !7534, metadata !DIExpression()), !dbg !7536
  call void @_ZNSt3__1plIcNS_11char_traitsIcEENS_9allocatorIcEEEENS_12basic_stringIT_T0_T1_EEPKS6_RKS9_(%"class.std::__1::basic_string"* sret(%"class.std::__1::basic_string") align 8 %8, i8* getelementptr inbounds ([24 x i8], [24 x i8]* @.str.1, i64 0, i64 0), %"class.std::__1::basic_string"* nonnull align 8 dereferenceable(24) %1), !dbg !7537
  invoke void @_ZNSt3__1plIcNS_11char_traitsIcEENS_9allocatorIcEEEENS_12basic_stringIT_T0_T1_EEOS9_PKS6_(%"class.std::__1::basic_string"* sret(%"class.std::__1::basic_string") align 8 %7, %"class.std::__1::basic_string"* nonnull align 8 dereferenceable(24) %8, i8* getelementptr inbounds ([10 x i8], [10 x i8]* @.str.2, i64 0, i64 0))
          to label %23 unwind label %27, !dbg !7538

23:                                               ; preds = %22
  invoke void @_ZNSt3__1plIcNS_11char_traitsIcEENS_9allocatorIcEEEENS_12basic_stringIT_T0_T1_EEOS9_S6_(%"class.std::__1::basic_string"* sret(%"class.std::__1::basic_string") align 8 %6, %"class.std::__1::basic_string"* nonnull align 8 dereferenceable(24) %7, i8 signext 10)
          to label %24 unwind label %31, !dbg !7539

24:                                               ; preds = %23
  call void @_ZNSt3__112basic_stringIcNS_11char_traitsIcEENS_9allocatorIcEEED1Ev(%"class.std::__1::basic_string"* nonnull align 8 dereferenceable(24) %7) #19, !dbg !7540
  call void @_ZNSt3__112basic_stringIcNS_11char_traitsIcEENS_9allocatorIcEEED1Ev(%"class.std::__1::basic_string"* nonnull align 8 dereferenceable(24) %8) #19, !dbg !7540
  %25 = bitcast %class.baseIP* %12 to %class.Log*, !dbg !7541
  invoke void @_ZNSt3__112basic_stringIcNS_11char_traitsIcEENS_9allocatorIcEEEC1ERKS5_(%"class.std::__1::basic_string"* nonnull align 8 dereferenceable(24) %11, %"class.std::__1::basic_string"* nonnull align 8 dereferenceable(24) %6)
          to label %26 unwind label %36, !dbg !7542

26:                                               ; preds = %24
  call void @_ZN3Log10to_consoleENSt3__112basic_stringIcNS0_11char_traitsIcEENS0_9allocatorIcEEEEi(%class.Log* nonnull align 4 dereferenceable(20) %25, %"class.std::__1::basic_string"* %11, i32 0), !dbg !7541
  call void @_ZNSt3__112basic_stringIcNS_11char_traitsIcEENS_9allocatorIcEEED1Ev(%"class.std::__1::basic_string"* nonnull align 8 dereferenceable(24) %11) #19, !dbg !7541
  call void @_ZNSt3__112basic_stringIcNS_11char_traitsIcEENS_9allocatorIcEEED1Ev(%"class.std::__1::basic_string"* nonnull align 8 dereferenceable(24) %6) #19, !dbg !7543
  br label %40, !dbg !7544

27:                                               ; preds = %22
  %28 = landingpad { i8*, i32 }
          cleanup, !dbg !7545
  %29 = extractvalue { i8*, i32 } %28, 0, !dbg !7545
  store i8* %29, i8** %9, align 8, !dbg !7545
  %30 = extractvalue { i8*, i32 } %28, 1, !dbg !7545
  store i32 %30, i32* %10, align 4, !dbg !7545
  br label %35, !dbg !7545

31:                                               ; preds = %23
  %32 = landingpad { i8*, i32 }
          cleanup, !dbg !7545
  %33 = extractvalue { i8*, i32 } %32, 0, !dbg !7545
  store i8* %33, i8** %9, align 8, !dbg !7545
  %34 = extractvalue { i8*, i32 } %32, 1, !dbg !7545
  store i32 %34, i32* %10, align 4, !dbg !7545
  call void @_ZNSt3__112basic_stringIcNS_11char_traitsIcEENS_9allocatorIcEEED1Ev(%"class.std::__1::basic_string"* nonnull align 8 dereferenceable(24) %7) #19, !dbg !7540
  br label %35, !dbg !7540

35:                                               ; preds = %31, %27
  call void @_ZNSt3__112basic_stringIcNS_11char_traitsIcEENS_9allocatorIcEEED1Ev(%"class.std::__1::basic_string"* nonnull align 8 dereferenceable(24) %8) #19, !dbg !7540
  br label %41, !dbg !7540

36:                                               ; preds = %24
  %37 = landingpad { i8*, i32 }
          cleanup, !dbg !7545
  %38 = extractvalue { i8*, i32 } %37, 0, !dbg !7545
  store i8* %38, i8** %9, align 8, !dbg !7545
  %39 = extractvalue { i8*, i32 } %37, 1, !dbg !7545
  store i32 %39, i32* %10, align 4, !dbg !7545
  call void @_ZNSt3__112basic_stringIcNS_11char_traitsIcEENS_9allocatorIcEEED1Ev(%"class.std::__1::basic_string"* nonnull align 8 dereferenceable(24) %6) #19, !dbg !7543
  br label %41, !dbg !7543

40:                                               ; preds = %26, %2
  ret void, !dbg !7546

41:                                               ; preds = %36, %35
  %42 = load i8*, i8** %9, align 8, !dbg !7540
  %43 = load i32, i32* %10, align 4, !dbg !7540
  %44 = insertvalue { i8*, i32 } undef, i8* %42, 0, !dbg !7540
  %45 = insertvalue { i8*, i32 } %44, i32 %43, 1, !dbg !7540
  resume { i8*, i32 } %45, !dbg !7540
}

; Function Attrs: mustprogress noinline optnone ssp uwtable
define linkonce_odr hidden %"class.std::__1::__tree_end_node"* @_ZNSt3__13mapINS_12basic_stringIcNS_11char_traitsIcEENS_9allocatorIcEEEEiNS_4lessIS6_EENS4_INS_4pairIKS6_iEEEEE4findERSA_(%"class.std::__1::map"* nonnull align 8 dereferenceable(24) %0, %"class.std::__1::basic_string"* nonnull align 8 dereferenceable(24) %1) #2 align 2 !dbg !7547 {
  %3 = alloca %"class.std::__1::__map_iterator", align 8
  %4 = alloca %"class.std::__1::map"*, align 8
  %5 = alloca %"class.std::__1::basic_string"*, align 8
  %6 = alloca %"class.std::__1::__tree_iterator", align 8
  store %"class.std::__1::map"* %0, %"class.std::__1::map"** %4, align 8
  call void @llvm.dbg.declare(metadata %"class.std::__1::map"** %4, metadata !7548, metadata !DIExpression()), !dbg !7550
  store %"class.std::__1::basic_string"* %1, %"class.std::__1::basic_string"** %5, align 8
  call void @llvm.dbg.declare(metadata %"class.std::__1::basic_string"** %5, metadata !7551, metadata !DIExpression()), !dbg !7552
  %7 = load %"class.std::__1::map"*, %"class.std::__1::map"** %4, align 8
  %8 = getelementptr inbounds %"class.std::__1::map", %"class.std::__1::map"* %7, i32 0, i32 0, !dbg !7553
  %9 = load %"class.std::__1::basic_string"*, %"class.std::__1::basic_string"** %5, align 8, !dbg !7554
  %10 = call %"class.std::__1::__tree_end_node"* @_ZNSt3__16__treeINS_12__value_typeINS_12basic_stringIcNS_11char_traitsIcEENS_9allocatorIcEEEEiEENS_19__map_value_compareIS7_S8_NS_4lessIS7_EELb1EEENS5_IS8_EEE4findIS7_EENS_15__tree_iteratorIS8_PNS_11__tree_nodeIS8_PvEElEERKT_(%"class.std::__1::__tree"* nonnull align 8 dereferenceable(24) %8, %"class.std::__1::basic_string"* nonnull align 8 dereferenceable(24) %9), !dbg !7555
  %11 = getelementptr inbounds %"class.std::__1::__tree_iterator", %"class.std::__1::__tree_iterator"* %6, i32 0, i32 0, !dbg !7555
  store %"class.std::__1::__tree_end_node"* %10, %"class.std::__1::__tree_end_node"** %11, align 8, !dbg !7555
  %12 = getelementptr inbounds %"class.std::__1::__tree_iterator", %"class.std::__1::__tree_iterator"* %6, i32 0, i32 0, !dbg !7553
  %13 = load %"class.std::__1::__tree_end_node"*, %"class.std::__1::__tree_end_node"** %12, align 8, !dbg !7553
  call void @_ZNSt3__114__map_iteratorINS_15__tree_iteratorINS_12__value_typeINS_12basic_stringIcNS_11char_traitsIcEENS_9allocatorIcEEEEiEEPNS_11__tree_nodeIS9_PvEElEEEC1ESE_(%"class.std::__1::__map_iterator"* nonnull align 8 dereferenceable(8) %3, %"class.std::__1::__tree_end_node"* %13) #19, !dbg !7553
  %14 = getelementptr inbounds %"class.std::__1::__map_iterator", %"class.std::__1::__map_iterator"* %3, i32 0, i32 0, !dbg !7556
  %15 = getelementptr inbounds %"class.std::__1::__tree_iterator", %"class.std::__1::__tree_iterator"* %14, i32 0, i32 0, !dbg !7556
  %16 = load %"class.std::__1::__tree_end_node"*, %"class.std::__1::__tree_end_node"** %15, align 8, !dbg !7556
  ret %"class.std::__1::__tree_end_node"* %16, !dbg !7556
}

; Function Attrs: mustprogress noinline nounwind optnone ssp uwtable
define linkonce_odr hidden zeroext i1 @_ZNSt3__1eqERKNS_14__map_iteratorINS_15__tree_iteratorINS_12__value_typeINS_12basic_stringIcNS_11char_traitsIcEENS_9allocatorIcEEEEiEEPNS_11__tree_nodeIS9_PvEElEEEESH_(%"class.std::__1::__map_iterator"* nonnull align 8 dereferenceable(8) %0, %"class.std::__1::__map_iterator"* nonnull align 8 dereferenceable(8) %1) #0 !dbg !7557 {
  %3 = alloca %"class.std::__1::__map_iterator"*, align 8
  %4 = alloca %"class.std::__1::__map_iterator"*, align 8
  store %"class.std::__1::__map_iterator"* %0, %"class.std::__1::__map_iterator"** %3, align 8
  call void @llvm.dbg.declare(metadata %"class.std::__1::__map_iterator"** %3, metadata !7561, metadata !DIExpression()), !dbg !7562
  store %"class.std::__1::__map_iterator"* %1, %"class.std::__1::__map_iterator"** %4, align 8
  call void @llvm.dbg.declare(metadata %"class.std::__1::__map_iterator"** %4, metadata !7563, metadata !DIExpression()), !dbg !7564
  %5 = load %"class.std::__1::__map_iterator"*, %"class.std::__1::__map_iterator"** %3, align 8, !dbg !7565
  %6 = getelementptr inbounds %"class.std::__1::__map_iterator", %"class.std::__1::__map_iterator"* %5, i32 0, i32 0, !dbg !7566
  %7 = load %"class.std::__1::__map_iterator"*, %"class.std::__1::__map_iterator"** %4, align 8, !dbg !7567
  %8 = getelementptr inbounds %"class.std::__1::__map_iterator", %"class.std::__1::__map_iterator"* %7, i32 0, i32 0, !dbg !7568
  %9 = call zeroext i1 @_ZNSt3__1eqERKNS_15__tree_iteratorINS_12__value_typeINS_12basic_stringIcNS_11char_traitsIcEENS_9allocatorIcEEEEiEEPNS_11__tree_nodeIS8_PvEElEESF_(%"class.std::__1::__tree_iterator"* nonnull align 8 dereferenceable(8) %6, %"class.std::__1::__tree_iterator"* nonnull align 8 dereferenceable(8) %8), !dbg !7569
  ret i1 %9, !dbg !7570
}

; Function Attrs: mustprogress noinline nounwind optnone ssp uwtable
define linkonce_odr hidden %"class.std::__1::__tree_end_node"* @_ZNSt3__13mapINS_12basic_stringIcNS_11char_traitsIcEENS_9allocatorIcEEEEiNS_4lessIS6_EENS4_INS_4pairIKS6_iEEEEE3endEv(%"class.std::__1::map"* nonnull align 8 dereferenceable(24) %0) #0 align 2 !dbg !7571 {
  %2 = alloca %"class.std::__1::__map_iterator", align 8
  %3 = alloca %"class.std::__1::map"*, align 8
  %4 = alloca %"class.std::__1::__tree_iterator", align 8
  store %"class.std::__1::map"* %0, %"class.std::__1::map"** %3, align 8
  call void @llvm.dbg.declare(metadata %"class.std::__1::map"** %3, metadata !7572, metadata !DIExpression()), !dbg !7573
  %5 = load %"class.std::__1::map"*, %"class.std::__1::map"** %3, align 8
  %6 = getelementptr inbounds %"class.std::__1::map", %"class.std::__1::map"* %5, i32 0, i32 0, !dbg !7574
  %7 = call %"class.std::__1::__tree_end_node"* @_ZNSt3__16__treeINS_12__value_typeINS_12basic_stringIcNS_11char_traitsIcEENS_9allocatorIcEEEEiEENS_19__map_value_compareIS7_S8_NS_4lessIS7_EELb1EEENS5_IS8_EEE3endEv(%"class.std::__1::__tree"* nonnull align 8 dereferenceable(24) %6) #19, !dbg !7575
  %8 = getelementptr inbounds %"class.std::__1::__tree_iterator", %"class.std::__1::__tree_iterator"* %4, i32 0, i32 0, !dbg !7575
  store %"class.std::__1::__tree_end_node"* %7, %"class.std::__1::__tree_end_node"** %8, align 8, !dbg !7575
  %9 = getelementptr inbounds %"class.std::__1::__tree_iterator", %"class.std::__1::__tree_iterator"* %4, i32 0, i32 0, !dbg !7574
  %10 = load %"class.std::__1::__tree_end_node"*, %"class.std::__1::__tree_end_node"** %9, align 8, !dbg !7574
  call void @_ZNSt3__114__map_iteratorINS_15__tree_iteratorINS_12__value_typeINS_12basic_stringIcNS_11char_traitsIcEENS_9allocatorIcEEEEiEEPNS_11__tree_nodeIS9_PvEElEEEC1ESE_(%"class.std::__1::__map_iterator"* nonnull align 8 dereferenceable(8) %2, %"class.std::__1::__tree_end_node"* %10) #19, !dbg !7574
  %11 = getelementptr inbounds %"class.std::__1::__map_iterator", %"class.std::__1::__map_iterator"* %2, i32 0, i32 0, !dbg !7576
  %12 = getelementptr inbounds %"class.std::__1::__tree_iterator", %"class.std::__1::__tree_iterator"* %11, i32 0, i32 0, !dbg !7576
  %13 = load %"class.std::__1::__tree_end_node"*, %"class.std::__1::__tree_end_node"** %12, align 8, !dbg !7576
  ret %"class.std::__1::__tree_end_node"* %13, !dbg !7576
}

; Function Attrs: mustprogress noinline optnone ssp uwtable
define linkonce_odr hidden void @_ZNSt3__1plIcNS_11char_traitsIcEENS_9allocatorIcEEEENS_12basic_stringIT_T0_T1_EEOS9_PKS6_(%"class.std::__1::basic_string"* noalias sret(%"class.std::__1::basic_string") align 8 %0, %"class.std::__1::basic_string"* nonnull align 8 dereferenceable(24) %1, i8* %2) #2 !dbg !7577 {
  %4 = alloca i8*, align 8
  %5 = alloca %"class.std::__1::basic_string"*, align 8
  %6 = alloca i8*, align 8
  %7 = bitcast %"class.std::__1::basic_string"* %0 to i8*
  store i8* %7, i8** %4, align 8
  store %"class.std::__1::basic_string"* %1, %"class.std::__1::basic_string"** %5, align 8
  call void @llvm.dbg.declare(metadata %"class.std::__1::basic_string"** %5, metadata !7580, metadata !DIExpression()), !dbg !7581
  store i8* %2, i8** %6, align 8
  call void @llvm.dbg.declare(metadata i8** %6, metadata !7582, metadata !DIExpression()), !dbg !7583
  %8 = load %"class.std::__1::basic_string"*, %"class.std::__1::basic_string"** %5, align 8, !dbg !7584
  %9 = load i8*, i8** %6, align 8, !dbg !7585
  %10 = call nonnull align 8 dereferenceable(24) %"class.std::__1::basic_string"* @_ZNSt3__112basic_stringIcNS_11char_traitsIcEENS_9allocatorIcEEE6appendEPKc(%"class.std::__1::basic_string"* nonnull align 8 dereferenceable(24) %8, i8* %9), !dbg !7586
  %11 = call nonnull align 8 dereferenceable(24) %"class.std::__1::basic_string"* @_ZNSt3__14moveIRNS_12basic_stringIcNS_11char_traitsIcEENS_9allocatorIcEEEEEEONS_16remove_referenceIT_E4typeEOS9_(%"class.std::__1::basic_string"* nonnull align 8 dereferenceable(24) %10) #19, !dbg !7587
  call void @_ZNSt3__112basic_stringIcNS_11char_traitsIcEENS_9allocatorIcEEEC1EOS5_(%"class.std::__1::basic_string"* nonnull align 8 dereferenceable(24) %0, %"class.std::__1::basic_string"* nonnull align 8 dereferenceable(24) %11) #19, !dbg !7587
  ret void, !dbg !7588
}

declare void @_ZNSt3__1plIcNS_11char_traitsIcEENS_9allocatorIcEEEENS_12basic_stringIT_T0_T1_EEPKS6_RKS9_(%"class.std::__1::basic_string"* sret(%"class.std::__1::basic_string") align 8, i8*, %"class.std::__1::basic_string"* nonnull align 8 dereferenceable(24)) #3

; Function Attrs: mustprogress noinline optnone ssp uwtable
define %"class.std::__1::__tree_end_node"* @_ZN6baseIP16modify_reg_valueENSt3__112basic_stringIcNS0_11char_traitsIcEENS0_9allocatorIcEEEEi(%class.baseIP* nonnull align 8 dereferenceable(80) %0, %"class.std::__1::basic_string"* %1, i32 %2) #2 align 2 !dbg !7589 {
  %4 = alloca %"class.std::__1::__map_iterator", align 8
  %5 = alloca %class.baseIP*, align 8
  %6 = alloca i32, align 4
  %7 = alloca %"class.std::__1::__map_iterator", align 8
  store %class.baseIP* %0, %class.baseIP** %5, align 8
  call void @llvm.dbg.declare(metadata %class.baseIP** %5, metadata !7596, metadata !DIExpression()), !dbg !7597
  call void @llvm.dbg.declare(metadata %"class.std::__1::basic_string"* %1, metadata !7598, metadata !DIExpression()), !dbg !7599
  store i32 %2, i32* %6, align 4
  call void @llvm.dbg.declare(metadata i32* %6, metadata !7600, metadata !DIExpression()), !dbg !7601
  %8 = load %class.baseIP*, %class.baseIP** %5, align 8
  call void @llvm.dbg.declare(metadata %"class.std::__1::__map_iterator"* %4, metadata !7602, metadata !DIExpression()), !dbg !7603
  %9 = getelementptr inbounds %class.baseIP, %class.baseIP* %8, i32 0, i32 1, !dbg !7604
  %10 = call %"class.std::__1::__tree_end_node"* @_ZNSt3__13mapINS_12basic_stringIcNS_11char_traitsIcEENS_9allocatorIcEEEEiNS_4lessIS6_EENS4_INS_4pairIKS6_iEEEEE4findERSA_(%"class.std::__1::map"* nonnull align 8 dereferenceable(24) %9, %"class.std::__1::basic_string"* nonnull align 8 dereferenceable(24) %1), !dbg !7605
  %11 = getelementptr inbounds %"class.std::__1::__map_iterator", %"class.std::__1::__map_iterator"* %4, i32 0, i32 0, !dbg !7605
  %12 = getelementptr inbounds %"class.std::__1::__tree_iterator", %"class.std::__1::__tree_iterator"* %11, i32 0, i32 0, !dbg !7605
  store %"class.std::__1::__tree_end_node"* %10, %"class.std::__1::__tree_end_node"** %12, align 8, !dbg !7605
  %13 = getelementptr inbounds %class.baseIP, %class.baseIP* %8, i32 0, i32 1, !dbg !7606
  %14 = call %"class.std::__1::__tree_end_node"* @_ZNSt3__13mapINS_12basic_stringIcNS_11char_traitsIcEENS_9allocatorIcEEEEiNS_4lessIS6_EENS4_INS_4pairIKS6_iEEEEE3endEv(%"class.std::__1::map"* nonnull align 8 dereferenceable(24) %13) #19, !dbg !7608
  %15 = getelementptr inbounds %"class.std::__1::__map_iterator", %"class.std::__1::__map_iterator"* %7, i32 0, i32 0, !dbg !7608
  %16 = getelementptr inbounds %"class.std::__1::__tree_iterator", %"class.std::__1::__tree_iterator"* %15, i32 0, i32 0, !dbg !7608
  store %"class.std::__1::__tree_end_node"* %14, %"class.std::__1::__tree_end_node"** %16, align 8, !dbg !7608
  %17 = call zeroext i1 @_ZNSt3__1eqERKNS_14__map_iteratorINS_15__tree_iteratorINS_12__value_typeINS_12basic_stringIcNS_11char_traitsIcEENS_9allocatorIcEEEEiEEPNS_11__tree_nodeIS9_PvEElEEEESH_(%"class.std::__1::__map_iterator"* nonnull align 8 dereferenceable(8) %4, %"class.std::__1::__map_iterator"* nonnull align 8 dereferenceable(8) %7), !dbg !7609
  br i1 %17, label %18, label %19, !dbg !7610

18:                                               ; preds = %3
  br label %23, !dbg !7611

19:                                               ; preds = %3
  %20 = load i32, i32* %6, align 4, !dbg !7613
  %21 = call %"struct.std::__1::pair"* @_ZNKSt3__114__map_iteratorINS_15__tree_iteratorINS_12__value_typeINS_12basic_stringIcNS_11char_traitsIcEENS_9allocatorIcEEEEiEEPNS_11__tree_nodeIS9_PvEElEEEptEv(%"class.std::__1::__map_iterator"* nonnull align 8 dereferenceable(8) %4), !dbg !7615
  %22 = getelementptr inbounds %"struct.std::__1::pair", %"struct.std::__1::pair"* %21, i32 0, i32 1, !dbg !7616
  store i32 %20, i32* %22, align 8, !dbg !7617
  br label %23

23:                                               ; preds = %19, %18
  %24 = getelementptr inbounds %"class.std::__1::__map_iterator", %"class.std::__1::__map_iterator"* %4, i32 0, i32 0, !dbg !7618
  %25 = getelementptr inbounds %"class.std::__1::__tree_iterator", %"class.std::__1::__tree_iterator"* %24, i32 0, i32 0, !dbg !7618
  %26 = load %"class.std::__1::__tree_end_node"*, %"class.std::__1::__tree_end_node"** %25, align 8, !dbg !7618
  ret %"class.std::__1::__tree_end_node"* %26, !dbg !7618
}

; Function Attrs: mustprogress noinline optnone ssp uwtable
define linkonce_odr hidden %"struct.std::__1::pair"* @_ZNKSt3__114__map_iteratorINS_15__tree_iteratorINS_12__value_typeINS_12basic_stringIcNS_11char_traitsIcEENS_9allocatorIcEEEEiEEPNS_11__tree_nodeIS9_PvEElEEEptEv(%"class.std::__1::__map_iterator"* nonnull align 8 dereferenceable(8) %0) #2 align 2 !dbg !7619 {
  %2 = alloca %"class.std::__1::__map_iterator"*, align 8
  store %"class.std::__1::__map_iterator"* %0, %"class.std::__1::__map_iterator"** %2, align 8
  call void @llvm.dbg.declare(metadata %"class.std::__1::__map_iterator"** %2, metadata !7620, metadata !DIExpression()), !dbg !7622
  %3 = load %"class.std::__1::__map_iterator"*, %"class.std::__1::__map_iterator"** %2, align 8
  %4 = getelementptr inbounds %"class.std::__1::__map_iterator", %"class.std::__1::__map_iterator"* %3, i32 0, i32 0, !dbg !7623
  %5 = call %"struct.std::__1::__value_type"* @_ZNKSt3__115__tree_iteratorINS_12__value_typeINS_12basic_stringIcNS_11char_traitsIcEENS_9allocatorIcEEEEiEEPNS_11__tree_nodeIS8_PvEElEptEv(%"class.std::__1::__tree_iterator"* nonnull align 8 dereferenceable(8) %4), !dbg !7623
  %6 = call nonnull align 8 dereferenceable(28) %"struct.std::__1::pair"* @_ZNSt3__112__value_typeINS_12basic_stringIcNS_11char_traitsIcEENS_9allocatorIcEEEEiE11__get_valueEv(%"struct.std::__1::__value_type"* nonnull align 8 dereferenceable(32) %5), !dbg !7624
  %7 = call %"struct.std::__1::pair"* @_ZNSt3__114pointer_traitsIPNS_4pairIKNS_12basic_stringIcNS_11char_traitsIcEENS_9allocatorIcEEEEiEEE10pointer_toERS9_(%"struct.std::__1::pair"* nonnull align 8 dereferenceable(28) %6) #19, !dbg !7625
  ret %"struct.std::__1::pair"* %7, !dbg !7626
}

; Function Attrs: mustprogress noinline optnone ssp uwtable
define void @_ZN6baseIP9print_mapERKNSt3__13mapINS0_12basic_stringIcNS0_11char_traitsIcEENS0_9allocatorIcEEEEiNS0_4lessIS7_EENS5_INS0_4pairIKS7_iEEEEEE(%class.baseIP* nonnull align 8 dereferenceable(80) %0, %"class.std::__1::map"* nonnull align 8 dereferenceable(24) %1) #2 align 2 !dbg !7627 {
  %3 = alloca %class.baseIP*, align 8
  %4 = alloca %"class.std::__1::map"*, align 8
  %5 = alloca %"class.std::__1::map"*, align 8
  %6 = alloca %"class.std::__1::__map_const_iterator", align 8
  %7 = alloca %"class.std::__1::__map_const_iterator", align 8
  %8 = alloca %"struct.std::__1::pair"*, align 8
  store %class.baseIP* %0, %class.baseIP** %3, align 8
  call void @llvm.dbg.declare(metadata %class.baseIP** %3, metadata !7628, metadata !DIExpression()), !dbg !7629
  store %"class.std::__1::map"* %1, %"class.std::__1::map"** %4, align 8
  call void @llvm.dbg.declare(metadata %"class.std::__1::map"** %4, metadata !7630, metadata !DIExpression()), !dbg !7631
  %9 = load %class.baseIP*, %class.baseIP** %3, align 8
  call void @llvm.dbg.declare(metadata %"class.std::__1::map"** %5, metadata !7632, metadata !DIExpression()), !dbg !7634
  %10 = load %"class.std::__1::map"*, %"class.std::__1::map"** %4, align 8, !dbg !7635
  store %"class.std::__1::map"* %10, %"class.std::__1::map"** %5, align 8, !dbg !7635
  call void @llvm.dbg.declare(metadata %"class.std::__1::__map_const_iterator"* %6, metadata !7636, metadata !DIExpression()), !dbg !7634
  %11 = load %"class.std::__1::map"*, %"class.std::__1::map"** %5, align 8, !dbg !7637
  %12 = call %"class.std::__1::__tree_end_node"* @_ZNKSt3__13mapINS_12basic_stringIcNS_11char_traitsIcEENS_9allocatorIcEEEEiNS_4lessIS6_EENS4_INS_4pairIKS6_iEEEEE5beginEv(%"class.std::__1::map"* nonnull align 8 dereferenceable(24) %11) #19, !dbg !7637
  %13 = getelementptr inbounds %"class.std::__1::__map_const_iterator", %"class.std::__1::__map_const_iterator"* %6, i32 0, i32 0, !dbg !7637
  %14 = getelementptr inbounds %"class.std::__1::__tree_const_iterator", %"class.std::__1::__tree_const_iterator"* %13, i32 0, i32 0, !dbg !7637
  store %"class.std::__1::__tree_end_node"* %12, %"class.std::__1::__tree_end_node"** %14, align 8, !dbg !7637
  call void @llvm.dbg.declare(metadata %"class.std::__1::__map_const_iterator"* %7, metadata !7638, metadata !DIExpression()), !dbg !7634
  %15 = load %"class.std::__1::map"*, %"class.std::__1::map"** %5, align 8, !dbg !7637
  %16 = call %"class.std::__1::__tree_end_node"* @_ZNKSt3__13mapINS_12basic_stringIcNS_11char_traitsIcEENS_9allocatorIcEEEEiNS_4lessIS6_EENS4_INS_4pairIKS6_iEEEEE3endEv(%"class.std::__1::map"* nonnull align 8 dereferenceable(24) %15) #19, !dbg !7637
  %17 = getelementptr inbounds %"class.std::__1::__map_const_iterator", %"class.std::__1::__map_const_iterator"* %7, i32 0, i32 0, !dbg !7637
  %18 = getelementptr inbounds %"class.std::__1::__tree_const_iterator", %"class.std::__1::__tree_const_iterator"* %17, i32 0, i32 0, !dbg !7637
  store %"class.std::__1::__tree_end_node"* %16, %"class.std::__1::__tree_end_node"** %18, align 8, !dbg !7637
  br label %19, !dbg !7637

19:                                               ; preds = %23, %2
  %20 = call zeroext i1 @_ZNSt3__1neERKNS_20__map_const_iteratorINS_21__tree_const_iteratorINS_12__value_typeINS_12basic_stringIcNS_11char_traitsIcEENS_9allocatorIcEEEEiEEPNS_11__tree_nodeIS9_PvEElEEEESH_(%"class.std::__1::__map_const_iterator"* nonnull align 8 dereferenceable(8) %6, %"class.std::__1::__map_const_iterator"* nonnull align 8 dereferenceable(8) %7), !dbg !7637
  br i1 %20, label %21, label %25, !dbg !7637

21:                                               ; preds = %19
  call void @llvm.dbg.declare(metadata %"struct.std::__1::pair"** %8, metadata !7639, metadata !DIExpression()), !dbg !7641
  %22 = call nonnull align 8 dereferenceable(28) %"struct.std::__1::pair"* @_ZNKSt3__120__map_const_iteratorINS_21__tree_const_iteratorINS_12__value_typeINS_12basic_stringIcNS_11char_traitsIcEENS_9allocatorIcEEEEiEEPNS_11__tree_nodeIS9_PvEElEEEdeEv(%"class.std::__1::__map_const_iterator"* nonnull align 8 dereferenceable(8) %6), !dbg !7642
  store %"struct.std::__1::pair"* %22, %"struct.std::__1::pair"** %8, align 8, !dbg !7641
  br label %23, !dbg !7643

23:                                               ; preds = %21
  %24 = call nonnull align 8 dereferenceable(8) %"class.std::__1::__map_const_iterator"* @_ZNSt3__120__map_const_iteratorINS_21__tree_const_iteratorINS_12__value_typeINS_12basic_stringIcNS_11char_traitsIcEENS_9allocatorIcEEEEiEEPNS_11__tree_nodeIS9_PvEElEEEppEv(%"class.std::__1::__map_const_iterator"* nonnull align 8 dereferenceable(8) %6), !dbg !7637
  br label %19, !dbg !7637, !llvm.loop !7644

25:                                               ; preds = %19
  ret void, !dbg !7646
}

; Function Attrs: mustprogress noinline nounwind optnone ssp uwtable
define linkonce_odr hidden %"class.std::__1::__tree_end_node"* @_ZNKSt3__13mapINS_12basic_stringIcNS_11char_traitsIcEENS_9allocatorIcEEEEiNS_4lessIS6_EENS4_INS_4pairIKS6_iEEEEE5beginEv(%"class.std::__1::map"* nonnull align 8 dereferenceable(24) %0) #0 align 2 !dbg !7647 {
  %2 = alloca %"class.std::__1::__map_const_iterator", align 8
  %3 = alloca %"class.std::__1::map"*, align 8
  %4 = alloca %"class.std::__1::__tree_const_iterator", align 8
  store %"class.std::__1::map"* %0, %"class.std::__1::map"** %3, align 8
  call void @llvm.dbg.declare(metadata %"class.std::__1::map"** %3, metadata !7648, metadata !DIExpression()), !dbg !7650
  %5 = load %"class.std::__1::map"*, %"class.std::__1::map"** %3, align 8
  %6 = getelementptr inbounds %"class.std::__1::map", %"class.std::__1::map"* %5, i32 0, i32 0, !dbg !7651
  %7 = call %"class.std::__1::__tree_end_node"* @_ZNKSt3__16__treeINS_12__value_typeINS_12basic_stringIcNS_11char_traitsIcEENS_9allocatorIcEEEEiEENS_19__map_value_compareIS7_S8_NS_4lessIS7_EELb1EEENS5_IS8_EEE5beginEv(%"class.std::__1::__tree"* nonnull align 8 dereferenceable(24) %6) #19, !dbg !7652
  %8 = getelementptr inbounds %"class.std::__1::__tree_const_iterator", %"class.std::__1::__tree_const_iterator"* %4, i32 0, i32 0, !dbg !7652
  store %"class.std::__1::__tree_end_node"* %7, %"class.std::__1::__tree_end_node"** %8, align 8, !dbg !7652
  %9 = getelementptr inbounds %"class.std::__1::__tree_const_iterator", %"class.std::__1::__tree_const_iterator"* %4, i32 0, i32 0, !dbg !7651
  %10 = load %"class.std::__1::__tree_end_node"*, %"class.std::__1::__tree_end_node"** %9, align 8, !dbg !7651
  call void @_ZNSt3__120__map_const_iteratorINS_21__tree_const_iteratorINS_12__value_typeINS_12basic_stringIcNS_11char_traitsIcEENS_9allocatorIcEEEEiEEPNS_11__tree_nodeIS9_PvEElEEEC1ESE_(%"class.std::__1::__map_const_iterator"* nonnull align 8 dereferenceable(8) %2, %"class.std::__1::__tree_end_node"* %10) #19, !dbg !7651
  %11 = getelementptr inbounds %"class.std::__1::__map_const_iterator", %"class.std::__1::__map_const_iterator"* %2, i32 0, i32 0, !dbg !7653
  %12 = getelementptr inbounds %"class.std::__1::__tree_const_iterator", %"class.std::__1::__tree_const_iterator"* %11, i32 0, i32 0, !dbg !7653
  %13 = load %"class.std::__1::__tree_end_node"*, %"class.std::__1::__tree_end_node"** %12, align 8, !dbg !7653
  ret %"class.std::__1::__tree_end_node"* %13, !dbg !7653
}

; Function Attrs: mustprogress noinline nounwind optnone ssp uwtable
define linkonce_odr hidden %"class.std::__1::__tree_end_node"* @_ZNKSt3__13mapINS_12basic_stringIcNS_11char_traitsIcEENS_9allocatorIcEEEEiNS_4lessIS6_EENS4_INS_4pairIKS6_iEEEEE3endEv(%"class.std::__1::map"* nonnull align 8 dereferenceable(24) %0) #0 align 2 !dbg !7654 {
  %2 = alloca %"class.std::__1::__map_const_iterator", align 8
  %3 = alloca %"class.std::__1::map"*, align 8
  %4 = alloca %"class.std::__1::__tree_const_iterator", align 8
  store %"class.std::__1::map"* %0, %"class.std::__1::map"** %3, align 8
  call void @llvm.dbg.declare(metadata %"class.std::__1::map"** %3, metadata !7655, metadata !DIExpression()), !dbg !7656
  %5 = load %"class.std::__1::map"*, %"class.std::__1::map"** %3, align 8
  %6 = getelementptr inbounds %"class.std::__1::map", %"class.std::__1::map"* %5, i32 0, i32 0, !dbg !7657
  %7 = call %"class.std::__1::__tree_end_node"* @_ZNKSt3__16__treeINS_12__value_typeINS_12basic_stringIcNS_11char_traitsIcEENS_9allocatorIcEEEEiEENS_19__map_value_compareIS7_S8_NS_4lessIS7_EELb1EEENS5_IS8_EEE3endEv(%"class.std::__1::__tree"* nonnull align 8 dereferenceable(24) %6) #19, !dbg !7658
  %8 = getelementptr inbounds %"class.std::__1::__tree_const_iterator", %"class.std::__1::__tree_const_iterator"* %4, i32 0, i32 0, !dbg !7658
  store %"class.std::__1::__tree_end_node"* %7, %"class.std::__1::__tree_end_node"** %8, align 8, !dbg !7658
  %9 = getelementptr inbounds %"class.std::__1::__tree_const_iterator", %"class.std::__1::__tree_const_iterator"* %4, i32 0, i32 0, !dbg !7657
  %10 = load %"class.std::__1::__tree_end_node"*, %"class.std::__1::__tree_end_node"** %9, align 8, !dbg !7657
  call void @_ZNSt3__120__map_const_iteratorINS_21__tree_const_iteratorINS_12__value_typeINS_12basic_stringIcNS_11char_traitsIcEENS_9allocatorIcEEEEiEEPNS_11__tree_nodeIS9_PvEElEEEC1ESE_(%"class.std::__1::__map_const_iterator"* nonnull align 8 dereferenceable(8) %2, %"class.std::__1::__tree_end_node"* %10) #19, !dbg !7657
  %11 = getelementptr inbounds %"class.std::__1::__map_const_iterator", %"class.std::__1::__map_const_iterator"* %2, i32 0, i32 0, !dbg !7659
  %12 = getelementptr inbounds %"class.std::__1::__tree_const_iterator", %"class.std::__1::__tree_const_iterator"* %11, i32 0, i32 0, !dbg !7659
  %13 = load %"class.std::__1::__tree_end_node"*, %"class.std::__1::__tree_end_node"** %12, align 8, !dbg !7659
  ret %"class.std::__1::__tree_end_node"* %13, !dbg !7659
}

; Function Attrs: mustprogress noinline optnone ssp uwtable
define linkonce_odr hidden zeroext i1 @_ZNSt3__1neERKNS_20__map_const_iteratorINS_21__tree_const_iteratorINS_12__value_typeINS_12basic_stringIcNS_11char_traitsIcEENS_9allocatorIcEEEEiEEPNS_11__tree_nodeIS9_PvEElEEEESH_(%"class.std::__1::__map_const_iterator"* nonnull align 8 dereferenceable(8) %0, %"class.std::__1::__map_const_iterator"* nonnull align 8 dereferenceable(8) %1) #2 !dbg !7660 {
  %3 = alloca %"class.std::__1::__map_const_iterator"*, align 8
  %4 = alloca %"class.std::__1::__map_const_iterator"*, align 8
  store %"class.std::__1::__map_const_iterator"* %0, %"class.std::__1::__map_const_iterator"** %3, align 8
  call void @llvm.dbg.declare(metadata %"class.std::__1::__map_const_iterator"** %3, metadata !7664, metadata !DIExpression()), !dbg !7665
  store %"class.std::__1::__map_const_iterator"* %1, %"class.std::__1::__map_const_iterator"** %4, align 8
  call void @llvm.dbg.declare(metadata %"class.std::__1::__map_const_iterator"** %4, metadata !7666, metadata !DIExpression()), !dbg !7667
  %5 = load %"class.std::__1::__map_const_iterator"*, %"class.std::__1::__map_const_iterator"** %3, align 8, !dbg !7668
  %6 = getelementptr inbounds %"class.std::__1::__map_const_iterator", %"class.std::__1::__map_const_iterator"* %5, i32 0, i32 0, !dbg !7669
  %7 = load %"class.std::__1::__map_const_iterator"*, %"class.std::__1::__map_const_iterator"** %4, align 8, !dbg !7670
  %8 = getelementptr inbounds %"class.std::__1::__map_const_iterator", %"class.std::__1::__map_const_iterator"* %7, i32 0, i32 0, !dbg !7671
  %9 = call zeroext i1 @_ZNSt3__1neERKNS_21__tree_const_iteratorINS_12__value_typeINS_12basic_stringIcNS_11char_traitsIcEENS_9allocatorIcEEEEiEEPNS_11__tree_nodeIS8_PvEElEESF_(%"class.std::__1::__tree_const_iterator"* nonnull align 8 dereferenceable(8) %6, %"class.std::__1::__tree_const_iterator"* nonnull align 8 dereferenceable(8) %8), !dbg !7672
  ret i1 %9, !dbg !7673
}

; Function Attrs: mustprogress noinline optnone ssp uwtable
define linkonce_odr hidden nonnull align 8 dereferenceable(28) %"struct.std::__1::pair"* @_ZNKSt3__120__map_const_iteratorINS_21__tree_const_iteratorINS_12__value_typeINS_12basic_stringIcNS_11char_traitsIcEENS_9allocatorIcEEEEiEEPNS_11__tree_nodeIS9_PvEElEEEdeEv(%"class.std::__1::__map_const_iterator"* nonnull align 8 dereferenceable(8) %0) #2 align 2 !dbg !7674 {
  %2 = alloca %"class.std::__1::__map_const_iterator"*, align 8
  store %"class.std::__1::__map_const_iterator"* %0, %"class.std::__1::__map_const_iterator"** %2, align 8
  call void @llvm.dbg.declare(metadata %"class.std::__1::__map_const_iterator"** %2, metadata !7675, metadata !DIExpression()), !dbg !7677
  %3 = load %"class.std::__1::__map_const_iterator"*, %"class.std::__1::__map_const_iterator"** %2, align 8
  %4 = getelementptr inbounds %"class.std::__1::__map_const_iterator", %"class.std::__1::__map_const_iterator"* %3, i32 0, i32 0, !dbg !7678
  %5 = call %"struct.std::__1::__value_type"* @_ZNKSt3__121__tree_const_iteratorINS_12__value_typeINS_12basic_stringIcNS_11char_traitsIcEENS_9allocatorIcEEEEiEEPNS_11__tree_nodeIS8_PvEElEptEv(%"class.std::__1::__tree_const_iterator"* nonnull align 8 dereferenceable(8) %4), !dbg !7678
  %6 = call nonnull align 8 dereferenceable(28) %"struct.std::__1::pair"* @_ZNKSt3__112__value_typeINS_12basic_stringIcNS_11char_traitsIcEENS_9allocatorIcEEEEiE11__get_valueEv(%"struct.std::__1::__value_type"* nonnull align 8 dereferenceable(32) %5), !dbg !7679
  ret %"struct.std::__1::pair"* %6, !dbg !7680
}

; Function Attrs: mustprogress noinline optnone ssp uwtable
define linkonce_odr hidden nonnull align 8 dereferenceable(8) %"class.std::__1::__map_const_iterator"* @_ZNSt3__120__map_const_iteratorINS_21__tree_const_iteratorINS_12__value_typeINS_12basic_stringIcNS_11char_traitsIcEENS_9allocatorIcEEEEiEEPNS_11__tree_nodeIS9_PvEElEEEppEv(%"class.std::__1::__map_const_iterator"* nonnull align 8 dereferenceable(8) %0) #2 align 2 !dbg !7681 {
  %2 = alloca %"class.std::__1::__map_const_iterator"*, align 8
  store %"class.std::__1::__map_const_iterator"* %0, %"class.std::__1::__map_const_iterator"** %2, align 8
  call void @llvm.dbg.declare(metadata %"class.std::__1::__map_const_iterator"** %2, metadata !7682, metadata !DIExpression()), !dbg !7684
  %3 = load %"class.std::__1::__map_const_iterator"*, %"class.std::__1::__map_const_iterator"** %2, align 8
  %4 = getelementptr inbounds %"class.std::__1::__map_const_iterator", %"class.std::__1::__map_const_iterator"* %3, i32 0, i32 0, !dbg !7685
  %5 = call nonnull align 8 dereferenceable(8) %"class.std::__1::__tree_const_iterator"* @_ZNSt3__121__tree_const_iteratorINS_12__value_typeINS_12basic_stringIcNS_11char_traitsIcEENS_9allocatorIcEEEEiEEPNS_11__tree_nodeIS8_PvEElEppEv(%"class.std::__1::__tree_const_iterator"* nonnull align 8 dereferenceable(8) %4), !dbg !7686
  ret %"class.std::__1::__map_const_iterator"* %3, !dbg !7687
}

; Function Attrs: noinline ssp uwtable
define internal void @__cxx_global_var_init() #5 section "__TEXT,__StaticInit,regular,pure_instructions" !dbg !7688 {
  %1 = call noalias nonnull i8* @_Znwm(i64 40) #20, !dbg !7689, !heapallocsite !5122
  %2 = bitcast i8* %1 to %"class.std::__1::unordered_map"*, !dbg !7689
  call void @_ZNSt3__113unordered_mapINS_12basic_stringIcNS_11char_traitsIcEENS_9allocatorIcEEEEiNS_4hashIS6_EENS_8equal_toIS6_EENS4_INS_4pairIKS6_iEEEEEC1Ev(%"class.std::__1::unordered_map"* nonnull align 8 dereferenceable(40) %2) #19, !dbg !7691
  store %"class.std::__1::unordered_map"* %2, %"class.std::__1::unordered_map"** @_ZN17system_memory_map17global_memory_mapE, align 8, !dbg !7692
  ret void, !dbg !7691
}

; Function Attrs: nobuiltin allocsize(0)
declare nonnull i8* @_Znwm(i64) #6

; Function Attrs: noinline nounwind optnone ssp uwtable
define linkonce_odr hidden void @_ZNSt3__113unordered_mapINS_12basic_stringIcNS_11char_traitsIcEENS_9allocatorIcEEEEiNS_4hashIS6_EENS_8equal_toIS6_EENS4_INS_4pairIKS6_iEEEEEC1Ev(%"class.std::__1::unordered_map"* nonnull align 8 dereferenceable(40) %0) unnamed_addr #7 align 2 !dbg !7693 {
  %2 = alloca %"class.std::__1::unordered_map"*, align 8
  store %"class.std::__1::unordered_map"* %0, %"class.std::__1::unordered_map"** %2, align 8
  call void @llvm.dbg.declare(metadata %"class.std::__1::unordered_map"** %2, metadata !7694, metadata !DIExpression()), !dbg !7695
  %3 = load %"class.std::__1::unordered_map"*, %"class.std::__1::unordered_map"** %2, align 8
  call void @_ZNSt3__113unordered_mapINS_12basic_stringIcNS_11char_traitsIcEENS_9allocatorIcEEEEiNS_4hashIS6_EENS_8equal_toIS6_EENS4_INS_4pairIKS6_iEEEEEC2Ev(%"class.std::__1::unordered_map"* nonnull align 8 dereferenceable(40) %3) #19, !dbg !7696
  ret void, !dbg !7697
}

; Function Attrs: mustprogress noinline optnone ssp uwtable
define void @_ZN17system_memory_map18display_valid_bitsEv(%class.system_memory_map* nonnull align 8 dereferenceable(40) %0) #2 align 2 !dbg !7698 {
  %2 = alloca %class.system_memory_map*, align 8
  %3 = alloca %"class.std::__1::basic_string", align 8
  %4 = alloca i32, align 4
  %5 = alloca %"class.std::__1::basic_string", align 8
  store %class.system_memory_map* %0, %class.system_memory_map** %2, align 8
  call void @llvm.dbg.declare(metadata %class.system_memory_map** %2, metadata !7699, metadata !DIExpression()), !dbg !7700
  %6 = load %class.system_memory_map*, %class.system_memory_map** %2, align 8
  %7 = bitcast %class.system_memory_map* %6 to %class.Log*, !dbg !7701
  call void @_ZNSt3__112basic_stringIcNS_11char_traitsIcEENS_9allocatorIcEEEC1IDnEEPKc(%"class.std::__1::basic_string"* nonnull align 8 dereferenceable(24) %3, i8* getelementptr inbounds ([23 x i8], [23 x i8]* @.str.3, i64 0, i64 0)), !dbg !7702
  call void @_ZN3Log10to_consoleENSt3__112basic_stringIcNS0_11char_traitsIcEENS0_9allocatorIcEEEEi(%class.Log* nonnull align 4 dereferenceable(20) %7, %"class.std::__1::basic_string"* %3, i32 2), !dbg !7701
  call void @_ZNSt3__112basic_stringIcNS_11char_traitsIcEENS_9allocatorIcEEED1Ev(%"class.std::__1::basic_string"* nonnull align 8 dereferenceable(24) %3) #19, !dbg !7701
  call void @llvm.dbg.declare(metadata i32* %4, metadata !7703, metadata !DIExpression()), !dbg !7705
  store i32 0, i32* %4, align 4, !dbg !7705
  br label %8, !dbg !7706

8:                                                ; preds = %21, %1
  %9 = load i32, i32* %4, align 4, !dbg !7707
  %10 = getelementptr inbounds %class.system_memory_map, %class.system_memory_map* %6, i32 0, i32 2, !dbg !7709
  %11 = load i32, i32* %10, align 8, !dbg !7709
  %12 = icmp slt i32 %9, %11, !dbg !7710
  br i1 %12, label %13, label %24, !dbg !7711

13:                                               ; preds = %8
  %14 = bitcast %class.system_memory_map* %6 to %class.Log*, !dbg !7712
  %15 = getelementptr inbounds %class.system_memory_map, %class.system_memory_map* %6, i32 0, i32 3, !dbg !7714
  %16 = load i32*, i32** %15, align 8, !dbg !7714
  %17 = load i32, i32* %4, align 4, !dbg !7715
  %18 = sext i32 %17 to i64, !dbg !7714
  %19 = getelementptr inbounds i32, i32* %16, i64 %18, !dbg !7714
  %20 = load i32, i32* %19, align 4, !dbg !7714
  call void @_ZNSt3__19to_stringEi(%"class.std::__1::basic_string"* sret(%"class.std::__1::basic_string") align 8 %5, i32 %20), !dbg !7716
  call void @_ZN3Log10to_consoleENSt3__112basic_stringIcNS0_11char_traitsIcEENS0_9allocatorIcEEEEi(%class.Log* nonnull align 4 dereferenceable(20) %14, %"class.std::__1::basic_string"* %5, i32 2), !dbg !7712
  call void @_ZNSt3__112basic_stringIcNS_11char_traitsIcEENS_9allocatorIcEEED1Ev(%"class.std::__1::basic_string"* nonnull align 8 dereferenceable(24) %5) #19, !dbg !7712
  br label %21, !dbg !7717

21:                                               ; preds = %13
  %22 = load i32, i32* %4, align 4, !dbg !7718
  %23 = add nsw i32 %22, 1, !dbg !7718
  store i32 %23, i32* %4, align 4, !dbg !7718
  br label %8, !dbg !7719, !llvm.loop !7720

24:                                               ; preds = %8
  ret void, !dbg !7723
}

; Function Attrs: noinline optnone ssp uwtable
define linkonce_odr void @_ZNSt3__112basic_stringIcNS_11char_traitsIcEENS_9allocatorIcEEEC1IDnEEPKc(%"class.std::__1::basic_string"* nonnull align 8 dereferenceable(24) %0, i8* %1) unnamed_addr #8 align 2 !dbg !7724 {
  %3 = alloca %"class.std::__1::basic_string"*, align 8
  %4 = alloca i8*, align 8
  store %"class.std::__1::basic_string"* %0, %"class.std::__1::basic_string"** %3, align 8
  call void @llvm.dbg.declare(metadata %"class.std::__1::basic_string"** %3, metadata !7730, metadata !DIExpression()), !dbg !7732
  store i8* %1, i8** %4, align 8
  call void @llvm.dbg.declare(metadata i8** %4, metadata !7733, metadata !DIExpression()), !dbg !7734
  %5 = load %"class.std::__1::basic_string"*, %"class.std::__1::basic_string"** %3, align 8
  %6 = load i8*, i8** %4, align 8, !dbg !7735
  call void @_ZNSt3__112basic_stringIcNS_11char_traitsIcEENS_9allocatorIcEEEC2IDnEEPKc(%"class.std::__1::basic_string"* nonnull align 8 dereferenceable(24) %5, i8* %6), !dbg !7735
  ret void, !dbg !7736
}

; Function Attrs: mustprogress noinline nounwind optnone ssp uwtable
define zeroext i1 @_ZN17system_memory_map15check_valid_bitEi(%class.system_memory_map* nonnull align 8 dereferenceable(40) %0, i32 %1) #0 align 2 !dbg !7737 {
  %3 = alloca i1, align 1
  %4 = alloca %class.system_memory_map*, align 8
  %5 = alloca i32, align 4
  store %class.system_memory_map* %0, %class.system_memory_map** %4, align 8
  call void @llvm.dbg.declare(metadata %class.system_memory_map** %4, metadata !7738, metadata !DIExpression()), !dbg !7739
  store i32 %1, i32* %5, align 4
  call void @llvm.dbg.declare(metadata i32* %5, metadata !7740, metadata !DIExpression()), !dbg !7741
  %6 = load %class.system_memory_map*, %class.system_memory_map** %4, align 8
  %7 = getelementptr inbounds %class.system_memory_map, %class.system_memory_map* %6, i32 0, i32 3, !dbg !7742
  %8 = load i32*, i32** %7, align 8, !dbg !7742
  %9 = load i32, i32* %5, align 4, !dbg !7744
  %10 = sext i32 %9 to i64, !dbg !7742
  %11 = getelementptr inbounds i32, i32* %8, i64 %10, !dbg !7742
  %12 = load i32, i32* %11, align 4, !dbg !7742
  %13 = icmp eq i32 %12, 1, !dbg !7745
  br i1 %13, label %14, label %15, !dbg !7746

14:                                               ; preds = %2
  store i1 true, i1* %3, align 1, !dbg !7747
  br label %16, !dbg !7747

15:                                               ; preds = %2
  store i1 false, i1* %3, align 1, !dbg !7749
  br label %16, !dbg !7749

16:                                               ; preds = %15, %14
  %17 = load i1, i1* %3, align 1, !dbg !7751
  ret i1 %17, !dbg !7751
}

; Function Attrs: mustprogress noinline optnone ssp uwtable
define void @_ZN17system_memory_map23update_system_reg_valueENSt3__112basic_stringIcNS0_11char_traitsIcEENS0_9allocatorIcEEEEi(%class.system_memory_map* nonnull align 8 dereferenceable(40) %0, %"class.std::__1::basic_string"* %1, i32 %2) #2 align 2 personality i8* bitcast (i32 (...)* @__gxx_personality_v0 to i8*) !dbg !7752 {
  %4 = alloca %class.system_memory_map*, align 8
  %5 = alloca i32, align 4
  %6 = alloca i32, align 4
  %7 = alloca %"class.std::__1::__hash_map_iterator", align 8
  %8 = alloca %"class.std::__1::__hash_map_iterator", align 8
  %9 = alloca %"class.std::__1::__hash_map_iterator", align 8
  %10 = alloca %"class.std::__1::__hash_map_iterator", align 8
  %11 = alloca %"class.std::__1::basic_string", align 8
  %12 = alloca %"class.std::__1::basic_string", align 8
  %13 = alloca %"class.std::__1::basic_string", align 8
  %14 = alloca i8*, align 8
  %15 = alloca i32, align 4
  %16 = alloca %"class.std::__1::basic_string", align 8
  store %class.system_memory_map* %0, %class.system_memory_map** %4, align 8
  call void @llvm.dbg.declare(metadata %class.system_memory_map** %4, metadata !7753, metadata !DIExpression()), !dbg !7754
  call void @llvm.dbg.declare(metadata %"class.std::__1::basic_string"* %1, metadata !7755, metadata !DIExpression()), !dbg !7756
  store i32 %2, i32* %5, align 4
  call void @llvm.dbg.declare(metadata i32* %5, metadata !7757, metadata !DIExpression()), !dbg !7758
  %17 = load %class.system_memory_map*, %class.system_memory_map** %4, align 8
  call void @llvm.dbg.declare(metadata i32* %6, metadata !7759, metadata !DIExpression()), !dbg !7760
  %18 = load %"class.std::__1::unordered_map"*, %"class.std::__1::unordered_map"** @_ZN17system_memory_map17global_memory_mapE, align 8, !dbg !7761
  %19 = call i64 @_ZNKSt3__113unordered_mapINS_12basic_stringIcNS_11char_traitsIcEENS_9allocatorIcEEEEiNS_4hashIS6_EENS_8equal_toIS6_EENS4_INS_4pairIKS6_iEEEEE4sizeEv(%"class.std::__1::unordered_map"* nonnull align 8 dereferenceable(40) %18) #19, !dbg !7762
  %20 = load %"class.std::__1::unordered_map"*, %"class.std::__1::unordered_map"** @_ZN17system_memory_map17global_memory_mapE, align 8, !dbg !7763
  %21 = call %"struct.std::__1::__hash_node_base"* @_ZNSt3__113unordered_mapINS_12basic_stringIcNS_11char_traitsIcEENS_9allocatorIcEEEEiNS_4hashIS6_EENS_8equal_toIS6_EENS4_INS_4pairIKS6_iEEEEE5beginEv(%"class.std::__1::unordered_map"* nonnull align 8 dereferenceable(40) %20) #19, !dbg !7764
  %22 = getelementptr inbounds %"class.std::__1::__hash_map_iterator", %"class.std::__1::__hash_map_iterator"* %7, i32 0, i32 0, !dbg !7764
  %23 = getelementptr inbounds %"class.std::__1::__hash_iterator", %"class.std::__1::__hash_iterator"* %22, i32 0, i32 0, !dbg !7764
  store %"struct.std::__1::__hash_node_base"* %21, %"struct.std::__1::__hash_node_base"** %23, align 8, !dbg !7764
  %24 = load %"class.std::__1::unordered_map"*, %"class.std::__1::unordered_map"** @_ZN17system_memory_map17global_memory_mapE, align 8, !dbg !7765
  %25 = call %"struct.std::__1::__hash_node_base"* @_ZNSt3__113unordered_mapINS_12basic_stringIcNS_11char_traitsIcEENS_9allocatorIcEEEEiNS_4hashIS6_EENS_8equal_toIS6_EENS4_INS_4pairIKS6_iEEEEE4findERSC_(%"class.std::__1::unordered_map"* nonnull align 8 dereferenceable(40) %24, %"class.std::__1::basic_string"* nonnull align 8 dereferenceable(24) %1), !dbg !7766
  %26 = getelementptr inbounds %"class.std::__1::__hash_map_iterator", %"class.std::__1::__hash_map_iterator"* %8, i32 0, i32 0, !dbg !7766
  %27 = getelementptr inbounds %"class.std::__1::__hash_iterator", %"class.std::__1::__hash_iterator"* %26, i32 0, i32 0, !dbg !7766
  store %"struct.std::__1::__hash_node_base"* %25, %"struct.std::__1::__hash_node_base"** %27, align 8, !dbg !7766
  %28 = getelementptr inbounds %"class.std::__1::__hash_map_iterator", %"class.std::__1::__hash_map_iterator"* %7, i32 0, i32 0, !dbg !7767
  %29 = getelementptr inbounds %"class.std::__1::__hash_iterator", %"class.std::__1::__hash_iterator"* %28, i32 0, i32 0, !dbg !7767
  %30 = load %"struct.std::__1::__hash_node_base"*, %"struct.std::__1::__hash_node_base"** %29, align 8, !dbg !7767
  %31 = getelementptr inbounds %"class.std::__1::__hash_map_iterator", %"class.std::__1::__hash_map_iterator"* %8, i32 0, i32 0, !dbg !7767
  %32 = getelementptr inbounds %"class.std::__1::__hash_iterator", %"class.std::__1::__hash_iterator"* %31, i32 0, i32 0, !dbg !7767
  %33 = load %"struct.std::__1::__hash_node_base"*, %"struct.std::__1::__hash_node_base"** %32, align 8, !dbg !7767
  %34 = call i64 @_ZNSt3__18distanceINS_19__hash_map_iteratorINS_15__hash_iteratorIPNS_11__hash_nodeINS_17__hash_value_typeINS_12basic_stringIcNS_11char_traitsIcEENS_9allocatorIcEEEEiEEPvEEEEEEEENS_15iterator_traitsIT_E15difference_typeESI_SI_(%"struct.std::__1::__hash_node_base"* %30, %"struct.std::__1::__hash_node_base"* %33), !dbg !7767
  %35 = sub i64 %19, %34, !dbg !7768
  %36 = sub i64 %35, 1, !dbg !7769
  %37 = trunc i64 %36 to i32, !dbg !7761
  store i32 %37, i32* %6, align 4, !dbg !7770
  %38 = getelementptr inbounds %class.system_memory_map, %class.system_memory_map* %17, i32 0, i32 3, !dbg !7771
  %39 = load i32*, i32** %38, align 8, !dbg !7771
  %40 = load i32, i32* %6, align 4, !dbg !7772
  %41 = sext i32 %40 to i64, !dbg !7771
  %42 = getelementptr inbounds i32, i32* %39, i64 %41, !dbg !7771
  store i32 1, i32* %42, align 4, !dbg !7773
  call void @llvm.dbg.declare(metadata %"class.std::__1::__hash_map_iterator"* %9, metadata !7774, metadata !DIExpression()), !dbg !7775
  %43 = load %"class.std::__1::unordered_map"*, %"class.std::__1::unordered_map"** @_ZN17system_memory_map17global_memory_mapE, align 8, !dbg !7776
  %44 = call %"struct.std::__1::__hash_node_base"* @_ZNSt3__113unordered_mapINS_12basic_stringIcNS_11char_traitsIcEENS_9allocatorIcEEEEiNS_4hashIS6_EENS_8equal_toIS6_EENS4_INS_4pairIKS6_iEEEEE4findERSC_(%"class.std::__1::unordered_map"* nonnull align 8 dereferenceable(40) %43, %"class.std::__1::basic_string"* nonnull align 8 dereferenceable(24) %1), !dbg !7777
  %45 = getelementptr inbounds %"class.std::__1::__hash_map_iterator", %"class.std::__1::__hash_map_iterator"* %9, i32 0, i32 0, !dbg !7777
  %46 = getelementptr inbounds %"class.std::__1::__hash_iterator", %"class.std::__1::__hash_iterator"* %45, i32 0, i32 0, !dbg !7777
  store %"struct.std::__1::__hash_node_base"* %44, %"struct.std::__1::__hash_node_base"** %46, align 8, !dbg !7777
  %47 = load %"class.std::__1::unordered_map"*, %"class.std::__1::unordered_map"** @_ZN17system_memory_map17global_memory_mapE, align 8, !dbg !7778
  %48 = call %"struct.std::__1::__hash_node_base"* @_ZNSt3__113unordered_mapINS_12basic_stringIcNS_11char_traitsIcEENS_9allocatorIcEEEEiNS_4hashIS6_EENS_8equal_toIS6_EENS4_INS_4pairIKS6_iEEEEE3endEv(%"class.std::__1::unordered_map"* nonnull align 8 dereferenceable(40) %47) #19, !dbg !7780
  %49 = getelementptr inbounds %"class.std::__1::__hash_map_iterator", %"class.std::__1::__hash_map_iterator"* %10, i32 0, i32 0, !dbg !7780
  %50 = getelementptr inbounds %"class.std::__1::__hash_iterator", %"class.std::__1::__hash_iterator"* %49, i32 0, i32 0, !dbg !7780
  store %"struct.std::__1::__hash_node_base"* %48, %"struct.std::__1::__hash_node_base"** %50, align 8, !dbg !7780
  %51 = call zeroext i1 @_ZNSt3__1neERKNS_19__hash_map_iteratorINS_15__hash_iteratorIPNS_11__hash_nodeINS_17__hash_value_typeINS_12basic_stringIcNS_11char_traitsIcEENS_9allocatorIcEEEEiEEPvEEEEEESH_(%"class.std::__1::__hash_map_iterator"* nonnull align 8 dereferenceable(8) %9, %"class.std::__1::__hash_map_iterator"* nonnull align 8 dereferenceable(8) %10), !dbg !7781
  br i1 %51, label %52, label %56, !dbg !7782

52:                                               ; preds = %3
  %53 = load i32, i32* %5, align 4, !dbg !7783
  %54 = call %"struct.std::__1::pair"* @_ZNKSt3__119__hash_map_iteratorINS_15__hash_iteratorIPNS_11__hash_nodeINS_17__hash_value_typeINS_12basic_stringIcNS_11char_traitsIcEENS_9allocatorIcEEEEiEEPvEEEEEptEv(%"class.std::__1::__hash_map_iterator"* nonnull align 8 dereferenceable(8) %9), !dbg !7785
  %55 = getelementptr inbounds %"struct.std::__1::pair", %"struct.std::__1::pair"* %54, i32 0, i32 1, !dbg !7786
  store i32 %53, i32* %55, align 8, !dbg !7787
  br label %74, !dbg !7788

56:                                               ; preds = %3
  call void @llvm.dbg.declare(metadata %"class.std::__1::basic_string"* %11, metadata !7789, metadata !DIExpression()), !dbg !7791
  call void @_ZNSt3__1plIcNS_11char_traitsIcEENS_9allocatorIcEEEENS_12basic_stringIT_T0_T1_EEPKS6_RKS9_(%"class.std::__1::basic_string"* sret(%"class.std::__1::basic_string") align 8 %13, i8* getelementptr inbounds ([31 x i8], [31 x i8]* @.str.4, i64 0, i64 0), %"class.std::__1::basic_string"* nonnull align 8 dereferenceable(24) %1), !dbg !7792
  invoke void @_ZNSt3__1plIcNS_11char_traitsIcEENS_9allocatorIcEEEENS_12basic_stringIT_T0_T1_EEOS9_PKS6_(%"class.std::__1::basic_string"* sret(%"class.std::__1::basic_string") align 8 %12, %"class.std::__1::basic_string"* nonnull align 8 dereferenceable(24) %13, i8* getelementptr inbounds ([11 x i8], [11 x i8]* @.str.5, i64 0, i64 0))
          to label %57 unwind label %61, !dbg !7793

57:                                               ; preds = %56
  invoke void @_ZNSt3__1plIcNS_11char_traitsIcEENS_9allocatorIcEEEENS_12basic_stringIT_T0_T1_EEOS9_S6_(%"class.std::__1::basic_string"* sret(%"class.std::__1::basic_string") align 8 %11, %"class.std::__1::basic_string"* nonnull align 8 dereferenceable(24) %12, i8 signext 10)
          to label %58 unwind label %65, !dbg !7794

58:                                               ; preds = %57
  call void @_ZNSt3__112basic_stringIcNS_11char_traitsIcEENS_9allocatorIcEEED1Ev(%"class.std::__1::basic_string"* nonnull align 8 dereferenceable(24) %12) #19, !dbg !7795
  call void @_ZNSt3__112basic_stringIcNS_11char_traitsIcEENS_9allocatorIcEEED1Ev(%"class.std::__1::basic_string"* nonnull align 8 dereferenceable(24) %13) #19, !dbg !7795
  %59 = bitcast %class.system_memory_map* %17 to %class.Log*, !dbg !7796
  invoke void @_ZNSt3__112basic_stringIcNS_11char_traitsIcEENS_9allocatorIcEEEC1ERKS5_(%"class.std::__1::basic_string"* nonnull align 8 dereferenceable(24) %16, %"class.std::__1::basic_string"* nonnull align 8 dereferenceable(24) %11)
          to label %60 unwind label %70, !dbg !7797

60:                                               ; preds = %58
  call void @_ZN3Log10to_consoleENSt3__112basic_stringIcNS0_11char_traitsIcEENS0_9allocatorIcEEEEi(%class.Log* nonnull align 4 dereferenceable(20) %59, %"class.std::__1::basic_string"* %16, i32 1), !dbg !7796
  call void @_ZNSt3__112basic_stringIcNS_11char_traitsIcEENS_9allocatorIcEEED1Ev(%"class.std::__1::basic_string"* nonnull align 8 dereferenceable(24) %16) #19, !dbg !7796
  call void @_ZNSt3__112basic_stringIcNS_11char_traitsIcEENS_9allocatorIcEEED1Ev(%"class.std::__1::basic_string"* nonnull align 8 dereferenceable(24) %11) #19, !dbg !7798
  br label %74

61:                                               ; preds = %56
  %62 = landingpad { i8*, i32 }
          cleanup, !dbg !7799
  %63 = extractvalue { i8*, i32 } %62, 0, !dbg !7799
  store i8* %63, i8** %14, align 8, !dbg !7799
  %64 = extractvalue { i8*, i32 } %62, 1, !dbg !7799
  store i32 %64, i32* %15, align 4, !dbg !7799
  br label %69, !dbg !7799

65:                                               ; preds = %57
  %66 = landingpad { i8*, i32 }
          cleanup, !dbg !7799
  %67 = extractvalue { i8*, i32 } %66, 0, !dbg !7799
  store i8* %67, i8** %14, align 8, !dbg !7799
  %68 = extractvalue { i8*, i32 } %66, 1, !dbg !7799
  store i32 %68, i32* %15, align 4, !dbg !7799
  call void @_ZNSt3__112basic_stringIcNS_11char_traitsIcEENS_9allocatorIcEEED1Ev(%"class.std::__1::basic_string"* nonnull align 8 dereferenceable(24) %12) #19, !dbg !7795
  br label %69, !dbg !7795

69:                                               ; preds = %65, %61
  call void @_ZNSt3__112basic_stringIcNS_11char_traitsIcEENS_9allocatorIcEEED1Ev(%"class.std::__1::basic_string"* nonnull align 8 dereferenceable(24) %13) #19, !dbg !7795
  br label %75, !dbg !7795

70:                                               ; preds = %58
  %71 = landingpad { i8*, i32 }
          cleanup, !dbg !7799
  %72 = extractvalue { i8*, i32 } %71, 0, !dbg !7799
  store i8* %72, i8** %14, align 8, !dbg !7799
  %73 = extractvalue { i8*, i32 } %71, 1, !dbg !7799
  store i32 %73, i32* %15, align 4, !dbg !7799
  call void @_ZNSt3__112basic_stringIcNS_11char_traitsIcEENS_9allocatorIcEEED1Ev(%"class.std::__1::basic_string"* nonnull align 8 dereferenceable(24) %11) #19, !dbg !7798
  br label %75, !dbg !7798

74:                                               ; preds = %60, %52
  ret void, !dbg !7800

75:                                               ; preds = %70, %69
  %76 = load i8*, i8** %14, align 8, !dbg !7795
  %77 = load i32, i32* %15, align 4, !dbg !7795
  %78 = insertvalue { i8*, i32 } undef, i8* %76, 0, !dbg !7795
  %79 = insertvalue { i8*, i32 } %78, i32 %77, 1, !dbg !7795
  resume { i8*, i32 } %79, !dbg !7795
}

; Function Attrs: mustprogress noinline nounwind optnone ssp uwtable
define linkonce_odr hidden i64 @_ZNKSt3__113unordered_mapINS_12basic_stringIcNS_11char_traitsIcEENS_9allocatorIcEEEEiNS_4hashIS6_EENS_8equal_toIS6_EENS4_INS_4pairIKS6_iEEEEE4sizeEv(%"class.std::__1::unordered_map"* nonnull align 8 dereferenceable(40) %0) #0 align 2 !dbg !7801 {
  %2 = alloca %"class.std::__1::unordered_map"*, align 8
  store %"class.std::__1::unordered_map"* %0, %"class.std::__1::unordered_map"** %2, align 8
  call void @llvm.dbg.declare(metadata %"class.std::__1::unordered_map"** %2, metadata !7802, metadata !DIExpression()), !dbg !7804
  %3 = load %"class.std::__1::unordered_map"*, %"class.std::__1::unordered_map"** %2, align 8
  %4 = getelementptr inbounds %"class.std::__1::unordered_map", %"class.std::__1::unordered_map"* %3, i32 0, i32 0, !dbg !7805
  %5 = call i64 @_ZNKSt3__112__hash_tableINS_17__hash_value_typeINS_12basic_stringIcNS_11char_traitsIcEENS_9allocatorIcEEEEiEENS_22__unordered_map_hasherIS7_S8_NS_4hashIS7_EENS_8equal_toIS7_EELb1EEENS_21__unordered_map_equalIS7_S8_SD_SB_Lb1EEENS5_IS8_EEE4sizeEv(%"class.std::__1::__hash_table"* nonnull align 8 dereferenceable(36) %4) #19, !dbg !7806
  ret i64 %5, !dbg !7807
}

; Function Attrs: mustprogress noinline optnone ssp uwtable
define linkonce_odr hidden i64 @_ZNSt3__18distanceINS_19__hash_map_iteratorINS_15__hash_iteratorIPNS_11__hash_nodeINS_17__hash_value_typeINS_12basic_stringIcNS_11char_traitsIcEENS_9allocatorIcEEEEiEEPvEEEEEEEENS_15iterator_traitsIT_E15difference_typeESI_SI_(%"struct.std::__1::__hash_node_base"* %0, %"struct.std::__1::__hash_node_base"* %1) #2 !dbg !7808 {
  %3 = alloca %"class.std::__1::__hash_map_iterator", align 8
  %4 = alloca %"class.std::__1::__hash_map_iterator", align 8
  %5 = alloca %"class.std::__1::__hash_map_iterator", align 8
  %6 = alloca %"class.std::__1::__hash_map_iterator", align 8
  %7 = alloca %"struct.std::__1::input_iterator_tag", align 1
  %8 = alloca %"struct.std::__1::forward_iterator_tag", align 1
  %9 = getelementptr inbounds %"class.std::__1::__hash_map_iterator", %"class.std::__1::__hash_map_iterator"* %3, i32 0, i32 0
  %10 = getelementptr inbounds %"class.std::__1::__hash_iterator", %"class.std::__1::__hash_iterator"* %9, i32 0, i32 0
  store %"struct.std::__1::__hash_node_base"* %0, %"struct.std::__1::__hash_node_base"** %10, align 8
  %11 = getelementptr inbounds %"class.std::__1::__hash_map_iterator", %"class.std::__1::__hash_map_iterator"* %4, i32 0, i32 0
  %12 = getelementptr inbounds %"class.std::__1::__hash_iterator", %"class.std::__1::__hash_iterator"* %11, i32 0, i32 0
  store %"struct.std::__1::__hash_node_base"* %1, %"struct.std::__1::__hash_node_base"** %12, align 8
  call void @llvm.dbg.declare(metadata %"class.std::__1::__hash_map_iterator"* %3, metadata !7820, metadata !DIExpression()), !dbg !7821
  call void @llvm.dbg.declare(metadata %"class.std::__1::__hash_map_iterator"* %4, metadata !7822, metadata !DIExpression()), !dbg !7823
  %13 = bitcast %"class.std::__1::__hash_map_iterator"* %5 to i8*, !dbg !7824
  %14 = bitcast %"class.std::__1::__hash_map_iterator"* %3 to i8*, !dbg !7824
  %15 = call i8* @memcpy(i8* %13, i8* %14, i64 8), !dbg !7824
  %16 = bitcast %"class.std::__1::__hash_map_iterator"* %6 to i8*, !dbg !7825
  %17 = bitcast %"class.std::__1::__hash_map_iterator"* %4 to i8*, !dbg !7825
  %18 = call i8* @memcpy(i8* %16, i8* %17, i64 8), !dbg !7825
  %19 = bitcast %"struct.std::__1::forward_iterator_tag"* %8 to %"struct.std::__1::input_iterator_tag"*, !dbg !7826
  %20 = getelementptr inbounds %"class.std::__1::__hash_map_iterator", %"class.std::__1::__hash_map_iterator"* %5, i32 0, i32 0, !dbg !7827
  %21 = getelementptr inbounds %"class.std::__1::__hash_iterator", %"class.std::__1::__hash_iterator"* %20, i32 0, i32 0, !dbg !7827
  %22 = load %"struct.std::__1::__hash_node_base"*, %"struct.std::__1::__hash_node_base"** %21, align 8, !dbg !7827
  %23 = getelementptr inbounds %"class.std::__1::__hash_map_iterator", %"class.std::__1::__hash_map_iterator"* %6, i32 0, i32 0, !dbg !7827
  %24 = getelementptr inbounds %"class.std::__1::__hash_iterator", %"class.std::__1::__hash_iterator"* %23, i32 0, i32 0, !dbg !7827
  %25 = load %"struct.std::__1::__hash_node_base"*, %"struct.std::__1::__hash_node_base"** %24, align 8, !dbg !7827
  %26 = call i64 @_ZNSt3__110__distanceINS_19__hash_map_iteratorINS_15__hash_iteratorIPNS_11__hash_nodeINS_17__hash_value_typeINS_12basic_stringIcNS_11char_traitsIcEENS_9allocatorIcEEEEiEEPvEEEEEEEENS_15iterator_traitsIT_E15difference_typeESI_SI_NS_18input_iterator_tagE(%"struct.std::__1::__hash_node_base"* %22, %"struct.std::__1::__hash_node_base"* %25), !dbg !7827
  ret i64 %26, !dbg !7828
}

; Function Attrs: mustprogress noinline nounwind optnone ssp uwtable
define linkonce_odr hidden %"struct.std::__1::__hash_node_base"* @_ZNSt3__113unordered_mapINS_12basic_stringIcNS_11char_traitsIcEENS_9allocatorIcEEEEiNS_4hashIS6_EENS_8equal_toIS6_EENS4_INS_4pairIKS6_iEEEEE5beginEv(%"class.std::__1::unordered_map"* nonnull align 8 dereferenceable(40) %0) #0 align 2 !dbg !7829 {
  %2 = alloca %"class.std::__1::__hash_map_iterator", align 8
  %3 = alloca %"class.std::__1::unordered_map"*, align 8
  %4 = alloca %"class.std::__1::__hash_iterator", align 8
  store %"class.std::__1::unordered_map"* %0, %"class.std::__1::unordered_map"** %3, align 8
  call void @llvm.dbg.declare(metadata %"class.std::__1::unordered_map"** %3, metadata !7830, metadata !DIExpression()), !dbg !7831
  %5 = load %"class.std::__1::unordered_map"*, %"class.std::__1::unordered_map"** %3, align 8
  %6 = getelementptr inbounds %"class.std::__1::unordered_map", %"class.std::__1::unordered_map"* %5, i32 0, i32 0, !dbg !7832
  %7 = call %"struct.std::__1::__hash_node_base"* @_ZNSt3__112__hash_tableINS_17__hash_value_typeINS_12basic_stringIcNS_11char_traitsIcEENS_9allocatorIcEEEEiEENS_22__unordered_map_hasherIS7_S8_NS_4hashIS7_EENS_8equal_toIS7_EELb1EEENS_21__unordered_map_equalIS7_S8_SD_SB_Lb1EEENS5_IS8_EEE5beginEv(%"class.std::__1::__hash_table"* nonnull align 8 dereferenceable(36) %6) #19, !dbg !7833
  %8 = getelementptr inbounds %"class.std::__1::__hash_iterator", %"class.std::__1::__hash_iterator"* %4, i32 0, i32 0, !dbg !7833
  store %"struct.std::__1::__hash_node_base"* %7, %"struct.std::__1::__hash_node_base"** %8, align 8, !dbg !7833
  %9 = getelementptr inbounds %"class.std::__1::__hash_iterator", %"class.std::__1::__hash_iterator"* %4, i32 0, i32 0, !dbg !7832
  %10 = load %"struct.std::__1::__hash_node_base"*, %"struct.std::__1::__hash_node_base"** %9, align 8, !dbg !7832
  call void @_ZNSt3__119__hash_map_iteratorINS_15__hash_iteratorIPNS_11__hash_nodeINS_17__hash_value_typeINS_12basic_stringIcNS_11char_traitsIcEENS_9allocatorIcEEEEiEEPvEEEEEC1ESE_(%"class.std::__1::__hash_map_iterator"* nonnull align 8 dereferenceable(8) %2, %"struct.std::__1::__hash_node_base"* %10) #19, !dbg !7832
  %11 = getelementptr inbounds %"class.std::__1::__hash_map_iterator", %"class.std::__1::__hash_map_iterator"* %2, i32 0, i32 0, !dbg !7834
  %12 = getelementptr inbounds %"class.std::__1::__hash_iterator", %"class.std::__1::__hash_iterator"* %11, i32 0, i32 0, !dbg !7834
  %13 = load %"struct.std::__1::__hash_node_base"*, %"struct.std::__1::__hash_node_base"** %12, align 8, !dbg !7834
  ret %"struct.std::__1::__hash_node_base"* %13, !dbg !7834
}

; Function Attrs: mustprogress noinline optnone ssp uwtable
define linkonce_odr hidden %"struct.std::__1::__hash_node_base"* @_ZNSt3__113unordered_mapINS_12basic_stringIcNS_11char_traitsIcEENS_9allocatorIcEEEEiNS_4hashIS6_EENS_8equal_toIS6_EENS4_INS_4pairIKS6_iEEEEE4findERSC_(%"class.std::__1::unordered_map"* nonnull align 8 dereferenceable(40) %0, %"class.std::__1::basic_string"* nonnull align 8 dereferenceable(24) %1) #2 align 2 !dbg !7835 {
  %3 = alloca %"class.std::__1::__hash_map_iterator", align 8
  %4 = alloca %"class.std::__1::unordered_map"*, align 8
  %5 = alloca %"class.std::__1::basic_string"*, align 8
  %6 = alloca %"class.std::__1::__hash_iterator", align 8
  store %"class.std::__1::unordered_map"* %0, %"class.std::__1::unordered_map"** %4, align 8
  call void @llvm.dbg.declare(metadata %"class.std::__1::unordered_map"** %4, metadata !7836, metadata !DIExpression()), !dbg !7837
  store %"class.std::__1::basic_string"* %1, %"class.std::__1::basic_string"** %5, align 8
  call void @llvm.dbg.declare(metadata %"class.std::__1::basic_string"** %5, metadata !7838, metadata !DIExpression()), !dbg !7839
  %7 = load %"class.std::__1::unordered_map"*, %"class.std::__1::unordered_map"** %4, align 8
  %8 = getelementptr inbounds %"class.std::__1::unordered_map", %"class.std::__1::unordered_map"* %7, i32 0, i32 0, !dbg !7840
  %9 = load %"class.std::__1::basic_string"*, %"class.std::__1::basic_string"** %5, align 8, !dbg !7841
  %10 = call %"struct.std::__1::__hash_node_base"* @_ZNSt3__112__hash_tableINS_17__hash_value_typeINS_12basic_stringIcNS_11char_traitsIcEENS_9allocatorIcEEEEiEENS_22__unordered_map_hasherIS7_S8_NS_4hashIS7_EENS_8equal_toIS7_EELb1EEENS_21__unordered_map_equalIS7_S8_SD_SB_Lb1EEENS5_IS8_EEE4findIS7_EENS_15__hash_iteratorIPNS_11__hash_nodeIS8_PvEEEERKT_(%"class.std::__1::__hash_table"* nonnull align 8 dereferenceable(36) %8, %"class.std::__1::basic_string"* nonnull align 8 dereferenceable(24) %9), !dbg !7842
  %11 = getelementptr inbounds %"class.std::__1::__hash_iterator", %"class.std::__1::__hash_iterator"* %6, i32 0, i32 0, !dbg !7842
  store %"struct.std::__1::__hash_node_base"* %10, %"struct.std::__1::__hash_node_base"** %11, align 8, !dbg !7842
  %12 = getelementptr inbounds %"class.std::__1::__hash_iterator", %"class.std::__1::__hash_iterator"* %6, i32 0, i32 0, !dbg !7840
  %13 = load %"struct.std::__1::__hash_node_base"*, %"struct.std::__1::__hash_node_base"** %12, align 8, !dbg !7840
  call void @_ZNSt3__119__hash_map_iteratorINS_15__hash_iteratorIPNS_11__hash_nodeINS_17__hash_value_typeINS_12basic_stringIcNS_11char_traitsIcEENS_9allocatorIcEEEEiEEPvEEEEEC1ESE_(%"class.std::__1::__hash_map_iterator"* nonnull align 8 dereferenceable(8) %3, %"struct.std::__1::__hash_node_base"* %13) #19, !dbg !7840
  %14 = getelementptr inbounds %"class.std::__1::__hash_map_iterator", %"class.std::__1::__hash_map_iterator"* %3, i32 0, i32 0, !dbg !7843
  %15 = getelementptr inbounds %"class.std::__1::__hash_iterator", %"class.std::__1::__hash_iterator"* %14, i32 0, i32 0, !dbg !7843
  %16 = load %"struct.std::__1::__hash_node_base"*, %"struct.std::__1::__hash_node_base"** %15, align 8, !dbg !7843
  ret %"struct.std::__1::__hash_node_base"* %16, !dbg !7843
}

; Function Attrs: mustprogress noinline optnone ssp uwtable
define linkonce_odr hidden zeroext i1 @_ZNSt3__1neERKNS_19__hash_map_iteratorINS_15__hash_iteratorIPNS_11__hash_nodeINS_17__hash_value_typeINS_12basic_stringIcNS_11char_traitsIcEENS_9allocatorIcEEEEiEEPvEEEEEESH_(%"class.std::__1::__hash_map_iterator"* nonnull align 8 dereferenceable(8) %0, %"class.std::__1::__hash_map_iterator"* nonnull align 8 dereferenceable(8) %1) #2 !dbg !7844 {
  %3 = alloca %"class.std::__1::__hash_map_iterator"*, align 8
  %4 = alloca %"class.std::__1::__hash_map_iterator"*, align 8
  store %"class.std::__1::__hash_map_iterator"* %0, %"class.std::__1::__hash_map_iterator"** %3, align 8
  call void @llvm.dbg.declare(metadata %"class.std::__1::__hash_map_iterator"** %3, metadata !7848, metadata !DIExpression()), !dbg !7849
  store %"class.std::__1::__hash_map_iterator"* %1, %"class.std::__1::__hash_map_iterator"** %4, align 8
  call void @llvm.dbg.declare(metadata %"class.std::__1::__hash_map_iterator"** %4, metadata !7850, metadata !DIExpression()), !dbg !7851
  %5 = load %"class.std::__1::__hash_map_iterator"*, %"class.std::__1::__hash_map_iterator"** %3, align 8, !dbg !7852
  %6 = getelementptr inbounds %"class.std::__1::__hash_map_iterator", %"class.std::__1::__hash_map_iterator"* %5, i32 0, i32 0, !dbg !7853
  %7 = load %"class.std::__1::__hash_map_iterator"*, %"class.std::__1::__hash_map_iterator"** %4, align 8, !dbg !7854
  %8 = getelementptr inbounds %"class.std::__1::__hash_map_iterator", %"class.std::__1::__hash_map_iterator"* %7, i32 0, i32 0, !dbg !7855
  %9 = call zeroext i1 @_ZNSt3__1neERKNS_15__hash_iteratorIPNS_11__hash_nodeINS_17__hash_value_typeINS_12basic_stringIcNS_11char_traitsIcEENS_9allocatorIcEEEEiEEPvEEEESF_(%"class.std::__1::__hash_iterator"* nonnull align 8 dereferenceable(8) %6, %"class.std::__1::__hash_iterator"* nonnull align 8 dereferenceable(8) %8), !dbg !7856
  ret i1 %9, !dbg !7857
}

; Function Attrs: mustprogress noinline nounwind optnone ssp uwtable
define linkonce_odr hidden %"struct.std::__1::__hash_node_base"* @_ZNSt3__113unordered_mapINS_12basic_stringIcNS_11char_traitsIcEENS_9allocatorIcEEEEiNS_4hashIS6_EENS_8equal_toIS6_EENS4_INS_4pairIKS6_iEEEEE3endEv(%"class.std::__1::unordered_map"* nonnull align 8 dereferenceable(40) %0) #0 align 2 !dbg !7858 {
  %2 = alloca %"class.std::__1::__hash_map_iterator", align 8
  %3 = alloca %"class.std::__1::unordered_map"*, align 8
  %4 = alloca %"class.std::__1::__hash_iterator", align 8
  store %"class.std::__1::unordered_map"* %0, %"class.std::__1::unordered_map"** %3, align 8
  call void @llvm.dbg.declare(metadata %"class.std::__1::unordered_map"** %3, metadata !7859, metadata !DIExpression()), !dbg !7860
  %5 = load %"class.std::__1::unordered_map"*, %"class.std::__1::unordered_map"** %3, align 8
  %6 = getelementptr inbounds %"class.std::__1::unordered_map", %"class.std::__1::unordered_map"* %5, i32 0, i32 0, !dbg !7861
  %7 = call %"struct.std::__1::__hash_node_base"* @_ZNSt3__112__hash_tableINS_17__hash_value_typeINS_12basic_stringIcNS_11char_traitsIcEENS_9allocatorIcEEEEiEENS_22__unordered_map_hasherIS7_S8_NS_4hashIS7_EENS_8equal_toIS7_EELb1EEENS_21__unordered_map_equalIS7_S8_SD_SB_Lb1EEENS5_IS8_EEE3endEv(%"class.std::__1::__hash_table"* nonnull align 8 dereferenceable(36) %6) #19, !dbg !7862
  %8 = getelementptr inbounds %"class.std::__1::__hash_iterator", %"class.std::__1::__hash_iterator"* %4, i32 0, i32 0, !dbg !7862
  store %"struct.std::__1::__hash_node_base"* %7, %"struct.std::__1::__hash_node_base"** %8, align 8, !dbg !7862
  %9 = getelementptr inbounds %"class.std::__1::__hash_iterator", %"class.std::__1::__hash_iterator"* %4, i32 0, i32 0, !dbg !7861
  %10 = load %"struct.std::__1::__hash_node_base"*, %"struct.std::__1::__hash_node_base"** %9, align 8, !dbg !7861
  call void @_ZNSt3__119__hash_map_iteratorINS_15__hash_iteratorIPNS_11__hash_nodeINS_17__hash_value_typeINS_12basic_stringIcNS_11char_traitsIcEENS_9allocatorIcEEEEiEEPvEEEEEC1ESE_(%"class.std::__1::__hash_map_iterator"* nonnull align 8 dereferenceable(8) %2, %"struct.std::__1::__hash_node_base"* %10) #19, !dbg !7861
  %11 = getelementptr inbounds %"class.std::__1::__hash_map_iterator", %"class.std::__1::__hash_map_iterator"* %2, i32 0, i32 0, !dbg !7863
  %12 = getelementptr inbounds %"class.std::__1::__hash_iterator", %"class.std::__1::__hash_iterator"* %11, i32 0, i32 0, !dbg !7863
  %13 = load %"struct.std::__1::__hash_node_base"*, %"struct.std::__1::__hash_node_base"** %12, align 8, !dbg !7863
  ret %"struct.std::__1::__hash_node_base"* %13, !dbg !7863
}

; Function Attrs: mustprogress noinline optnone ssp uwtable
define linkonce_odr hidden %"struct.std::__1::pair"* @_ZNKSt3__119__hash_map_iteratorINS_15__hash_iteratorIPNS_11__hash_nodeINS_17__hash_value_typeINS_12basic_stringIcNS_11char_traitsIcEENS_9allocatorIcEEEEiEEPvEEEEEptEv(%"class.std::__1::__hash_map_iterator"* nonnull align 8 dereferenceable(8) %0) #2 align 2 !dbg !7864 {
  %2 = alloca %"class.std::__1::__hash_map_iterator"*, align 8
  store %"class.std::__1::__hash_map_iterator"* %0, %"class.std::__1::__hash_map_iterator"** %2, align 8
  call void @llvm.dbg.declare(metadata %"class.std::__1::__hash_map_iterator"** %2, metadata !7865, metadata !DIExpression()), !dbg !7867
  %3 = load %"class.std::__1::__hash_map_iterator"*, %"class.std::__1::__hash_map_iterator"** %2, align 8
  %4 = getelementptr inbounds %"class.std::__1::__hash_map_iterator", %"class.std::__1::__hash_map_iterator"* %3, i32 0, i32 0, !dbg !7868
  %5 = call %"struct.std::__1::__hash_value_type"* @_ZNKSt3__115__hash_iteratorIPNS_11__hash_nodeINS_17__hash_value_typeINS_12basic_stringIcNS_11char_traitsIcEENS_9allocatorIcEEEEiEEPvEEEptEv(%"class.std::__1::__hash_iterator"* nonnull align 8 dereferenceable(8) %4), !dbg !7868
  %6 = call nonnull align 8 dereferenceable(28) %"struct.std::__1::pair"* @_ZNSt3__117__hash_value_typeINS_12basic_stringIcNS_11char_traitsIcEENS_9allocatorIcEEEEiE11__get_valueEv(%"struct.std::__1::__hash_value_type"* nonnull align 8 dereferenceable(32) %5), !dbg !7869
  %7 = call %"struct.std::__1::pair"* @_ZNSt3__114pointer_traitsIPNS_4pairIKNS_12basic_stringIcNS_11char_traitsIcEENS_9allocatorIcEEEEiEEE10pointer_toERS9_(%"struct.std::__1::pair"* nonnull align 8 dereferenceable(28) %6) #19, !dbg !7870
  ret %"struct.std::__1::pair"* %7, !dbg !7871
}

; Function Attrs: mustprogress noinline optnone ssp uwtable
define i32 @_ZN17system_memory_map15read_system_mapENSt3__112basic_stringIcNS0_11char_traitsIcEENS0_9allocatorIcEEEE(%class.system_memory_map* nonnull align 8 dereferenceable(40) %0, %"class.std::__1::basic_string"* %1) #2 align 2 personality i8* bitcast (i32 (...)* @__gxx_personality_v0 to i8*) !dbg !7872 {
  %3 = alloca i32, align 4
  %4 = alloca %class.system_memory_map*, align 8
  %5 = alloca i32, align 4
  %6 = alloca %"class.std::__1::__hash_map_iterator", align 8
  %7 = alloca %"class.std::__1::__hash_map_iterator", align 8
  %8 = alloca %"class.std::__1::basic_string", align 8
  %9 = alloca %"class.std::__1::basic_string", align 8
  %10 = alloca %"class.std::__1::basic_string", align 8
  %11 = alloca i8*, align 8
  %12 = alloca i32, align 4
  %13 = alloca %"class.std::__1::basic_string", align 8
  %14 = alloca %"class.std::__1::__hash_map_iterator", align 8
  %15 = alloca %"class.std::__1::__hash_map_iterator", align 8
  %16 = alloca %"class.std::__1::basic_string", align 8
  %17 = alloca %"class.std::__1::basic_string", align 8
  %18 = alloca %"class.std::__1::basic_string", align 8
  store %class.system_memory_map* %0, %class.system_memory_map** %4, align 8
  call void @llvm.dbg.declare(metadata %class.system_memory_map** %4, metadata !7873, metadata !DIExpression()), !dbg !7874
  call void @llvm.dbg.declare(metadata %"class.std::__1::basic_string"* %1, metadata !7875, metadata !DIExpression()), !dbg !7876
  %19 = load %class.system_memory_map*, %class.system_memory_map** %4, align 8
  call void @llvm.dbg.declare(metadata i32* %5, metadata !7877, metadata !DIExpression()), !dbg !7878
  call void @llvm.dbg.declare(metadata %"class.std::__1::__hash_map_iterator"* %6, metadata !7879, metadata !DIExpression()), !dbg !7880
  %20 = load %"class.std::__1::unordered_map"*, %"class.std::__1::unordered_map"** @_ZN17system_memory_map17global_memory_mapE, align 8, !dbg !7881
  %21 = call %"struct.std::__1::__hash_node_base"* @_ZNSt3__113unordered_mapINS_12basic_stringIcNS_11char_traitsIcEENS_9allocatorIcEEEEiNS_4hashIS6_EENS_8equal_toIS6_EENS4_INS_4pairIKS6_iEEEEE4findERSC_(%"class.std::__1::unordered_map"* nonnull align 8 dereferenceable(40) %20, %"class.std::__1::basic_string"* nonnull align 8 dereferenceable(24) %1), !dbg !7882
  %22 = getelementptr inbounds %"class.std::__1::__hash_map_iterator", %"class.std::__1::__hash_map_iterator"* %6, i32 0, i32 0, !dbg !7882
  %23 = getelementptr inbounds %"class.std::__1::__hash_iterator", %"class.std::__1::__hash_iterator"* %22, i32 0, i32 0, !dbg !7882
  store %"struct.std::__1::__hash_node_base"* %21, %"struct.std::__1::__hash_node_base"** %23, align 8, !dbg !7882
  %24 = load %"class.std::__1::unordered_map"*, %"class.std::__1::unordered_map"** @_ZN17system_memory_map17global_memory_mapE, align 8, !dbg !7883
  %25 = call %"struct.std::__1::__hash_node_base"* @_ZNSt3__113unordered_mapINS_12basic_stringIcNS_11char_traitsIcEENS_9allocatorIcEEEEiNS_4hashIS6_EENS_8equal_toIS6_EENS4_INS_4pairIKS6_iEEEEE3endEv(%"class.std::__1::unordered_map"* nonnull align 8 dereferenceable(40) %24) #19, !dbg !7885
  %26 = getelementptr inbounds %"class.std::__1::__hash_map_iterator", %"class.std::__1::__hash_map_iterator"* %7, i32 0, i32 0, !dbg !7885
  %27 = getelementptr inbounds %"class.std::__1::__hash_iterator", %"class.std::__1::__hash_iterator"* %26, i32 0, i32 0, !dbg !7885
  store %"struct.std::__1::__hash_node_base"* %25, %"struct.std::__1::__hash_node_base"** %27, align 8, !dbg !7885
  %28 = call zeroext i1 @_ZNSt3__1eqERKNS_19__hash_map_iteratorINS_15__hash_iteratorIPNS_11__hash_nodeINS_17__hash_value_typeINS_12basic_stringIcNS_11char_traitsIcEENS_9allocatorIcEEEEiEEPvEEEEEESH_(%"class.std::__1::__hash_map_iterator"* nonnull align 8 dereferenceable(8) %6, %"class.std::__1::__hash_map_iterator"* nonnull align 8 dereferenceable(8) %7), !dbg !7886
  br i1 %28, label %29, label %47, !dbg !7887

29:                                               ; preds = %2
  call void @llvm.dbg.declare(metadata %"class.std::__1::basic_string"* %8, metadata !7888, metadata !DIExpression()), !dbg !7890
  call void @_ZNSt3__1plIcNS_11char_traitsIcEENS_9allocatorIcEEEENS_12basic_stringIT_T0_T1_EEPKS6_RKS9_(%"class.std::__1::basic_string"* sret(%"class.std::__1::basic_string") align 8 %10, i8* getelementptr inbounds ([31 x i8], [31 x i8]* @.str.4, i64 0, i64 0), %"class.std::__1::basic_string"* nonnull align 8 dereferenceable(24) %1), !dbg !7891
  invoke void @_ZNSt3__1plIcNS_11char_traitsIcEENS_9allocatorIcEEEENS_12basic_stringIT_T0_T1_EEOS9_PKS6_(%"class.std::__1::basic_string"* sret(%"class.std::__1::basic_string") align 8 %9, %"class.std::__1::basic_string"* nonnull align 8 dereferenceable(24) %10, i8* getelementptr inbounds ([11 x i8], [11 x i8]* @.str.5, i64 0, i64 0))
          to label %30 unwind label %34, !dbg !7892

30:                                               ; preds = %29
  invoke void @_ZNSt3__1plIcNS_11char_traitsIcEENS_9allocatorIcEEEENS_12basic_stringIT_T0_T1_EEOS9_S6_(%"class.std::__1::basic_string"* sret(%"class.std::__1::basic_string") align 8 %8, %"class.std::__1::basic_string"* nonnull align 8 dereferenceable(24) %9, i8 signext 10)
          to label %31 unwind label %38, !dbg !7893

31:                                               ; preds = %30
  call void @_ZNSt3__112basic_stringIcNS_11char_traitsIcEENS_9allocatorIcEEED1Ev(%"class.std::__1::basic_string"* nonnull align 8 dereferenceable(24) %9) #19, !dbg !7894
  call void @_ZNSt3__112basic_stringIcNS_11char_traitsIcEENS_9allocatorIcEEED1Ev(%"class.std::__1::basic_string"* nonnull align 8 dereferenceable(24) %10) #19, !dbg !7894
  %32 = bitcast %class.system_memory_map* %19 to %class.Log*, !dbg !7895
  invoke void @_ZNSt3__112basic_stringIcNS_11char_traitsIcEENS_9allocatorIcEEEC1ERKS5_(%"class.std::__1::basic_string"* nonnull align 8 dereferenceable(24) %13, %"class.std::__1::basic_string"* nonnull align 8 dereferenceable(24) %8)
          to label %33 unwind label %43, !dbg !7896

33:                                               ; preds = %31
  call void @_ZN3Log10to_consoleENSt3__112basic_stringIcNS0_11char_traitsIcEENS0_9allocatorIcEEEEi(%class.Log* nonnull align 4 dereferenceable(20) %32, %"class.std::__1::basic_string"* %13, i32 1), !dbg !7895
  call void @_ZNSt3__112basic_stringIcNS_11char_traitsIcEENS_9allocatorIcEEED1Ev(%"class.std::__1::basic_string"* nonnull align 8 dereferenceable(24) %13) #19, !dbg !7895
  store i32 -1, i32* %3, align 4, !dbg !7897
  call void @_ZNSt3__112basic_stringIcNS_11char_traitsIcEENS_9allocatorIcEEED1Ev(%"class.std::__1::basic_string"* nonnull align 8 dereferenceable(24) %8) #19, !dbg !7898
  br label %92

34:                                               ; preds = %29
  %35 = landingpad { i8*, i32 }
          cleanup, !dbg !7899
  %36 = extractvalue { i8*, i32 } %35, 0, !dbg !7899
  store i8* %36, i8** %11, align 8, !dbg !7899
  %37 = extractvalue { i8*, i32 } %35, 1, !dbg !7899
  store i32 %37, i32* %12, align 4, !dbg !7899
  br label %42, !dbg !7899

38:                                               ; preds = %30
  %39 = landingpad { i8*, i32 }
          cleanup, !dbg !7899
  %40 = extractvalue { i8*, i32 } %39, 0, !dbg !7899
  store i8* %40, i8** %11, align 8, !dbg !7899
  %41 = extractvalue { i8*, i32 } %39, 1, !dbg !7899
  store i32 %41, i32* %12, align 4, !dbg !7899
  call void @_ZNSt3__112basic_stringIcNS_11char_traitsIcEENS_9allocatorIcEEED1Ev(%"class.std::__1::basic_string"* nonnull align 8 dereferenceable(24) %9) #19, !dbg !7894
  br label %42, !dbg !7894

42:                                               ; preds = %38, %34
  call void @_ZNSt3__112basic_stringIcNS_11char_traitsIcEENS_9allocatorIcEEED1Ev(%"class.std::__1::basic_string"* nonnull align 8 dereferenceable(24) %10) #19, !dbg !7894
  br label %94, !dbg !7894

43:                                               ; preds = %31
  %44 = landingpad { i8*, i32 }
          cleanup, !dbg !7899
  %45 = extractvalue { i8*, i32 } %44, 0, !dbg !7899
  store i8* %45, i8** %11, align 8, !dbg !7899
  %46 = extractvalue { i8*, i32 } %44, 1, !dbg !7899
  store i32 %46, i32* %12, align 4, !dbg !7899
  call void @_ZNSt3__112basic_stringIcNS_11char_traitsIcEENS_9allocatorIcEEED1Ev(%"class.std::__1::basic_string"* nonnull align 8 dereferenceable(24) %8) #19, !dbg !7898
  br label %94, !dbg !7898

47:                                               ; preds = %2
  %48 = load %"class.std::__1::unordered_map"*, %"class.std::__1::unordered_map"** @_ZN17system_memory_map17global_memory_mapE, align 8, !dbg !7900
  %49 = call i64 @_ZNKSt3__113unordered_mapINS_12basic_stringIcNS_11char_traitsIcEENS_9allocatorIcEEEEiNS_4hashIS6_EENS_8equal_toIS6_EENS4_INS_4pairIKS6_iEEEEE4sizeEv(%"class.std::__1::unordered_map"* nonnull align 8 dereferenceable(40) %48) #19, !dbg !7901
  %50 = load %"class.std::__1::unordered_map"*, %"class.std::__1::unordered_map"** @_ZN17system_memory_map17global_memory_mapE, align 8, !dbg !7902
  %51 = call %"struct.std::__1::__hash_node_base"* @_ZNSt3__113unordered_mapINS_12basic_stringIcNS_11char_traitsIcEENS_9allocatorIcEEEEiNS_4hashIS6_EENS_8equal_toIS6_EENS4_INS_4pairIKS6_iEEEEE5beginEv(%"class.std::__1::unordered_map"* nonnull align 8 dereferenceable(40) %50) #19, !dbg !7903
  %52 = getelementptr inbounds %"class.std::__1::__hash_map_iterator", %"class.std::__1::__hash_map_iterator"* %14, i32 0, i32 0, !dbg !7903
  %53 = getelementptr inbounds %"class.std::__1::__hash_iterator", %"class.std::__1::__hash_iterator"* %52, i32 0, i32 0, !dbg !7903
  store %"struct.std::__1::__hash_node_base"* %51, %"struct.std::__1::__hash_node_base"** %53, align 8, !dbg !7903
  %54 = load %"class.std::__1::unordered_map"*, %"class.std::__1::unordered_map"** @_ZN17system_memory_map17global_memory_mapE, align 8, !dbg !7904
  %55 = call %"struct.std::__1::__hash_node_base"* @_ZNSt3__113unordered_mapINS_12basic_stringIcNS_11char_traitsIcEENS_9allocatorIcEEEEiNS_4hashIS6_EENS_8equal_toIS6_EENS4_INS_4pairIKS6_iEEEEE4findERSC_(%"class.std::__1::unordered_map"* nonnull align 8 dereferenceable(40) %54, %"class.std::__1::basic_string"* nonnull align 8 dereferenceable(24) %1), !dbg !7905
  %56 = getelementptr inbounds %"class.std::__1::__hash_map_iterator", %"class.std::__1::__hash_map_iterator"* %15, i32 0, i32 0, !dbg !7905
  %57 = getelementptr inbounds %"class.std::__1::__hash_iterator", %"class.std::__1::__hash_iterator"* %56, i32 0, i32 0, !dbg !7905
  store %"struct.std::__1::__hash_node_base"* %55, %"struct.std::__1::__hash_node_base"** %57, align 8, !dbg !7905
  %58 = getelementptr inbounds %"class.std::__1::__hash_map_iterator", %"class.std::__1::__hash_map_iterator"* %14, i32 0, i32 0, !dbg !7906
  %59 = getelementptr inbounds %"class.std::__1::__hash_iterator", %"class.std::__1::__hash_iterator"* %58, i32 0, i32 0, !dbg !7906
  %60 = load %"struct.std::__1::__hash_node_base"*, %"struct.std::__1::__hash_node_base"** %59, align 8, !dbg !7906
  %61 = getelementptr inbounds %"class.std::__1::__hash_map_iterator", %"class.std::__1::__hash_map_iterator"* %15, i32 0, i32 0, !dbg !7906
  %62 = getelementptr inbounds %"class.std::__1::__hash_iterator", %"class.std::__1::__hash_iterator"* %61, i32 0, i32 0, !dbg !7906
  %63 = load %"struct.std::__1::__hash_node_base"*, %"struct.std::__1::__hash_node_base"** %62, align 8, !dbg !7906
  %64 = call i64 @_ZNSt3__18distanceINS_19__hash_map_iteratorINS_15__hash_iteratorIPNS_11__hash_nodeINS_17__hash_value_typeINS_12basic_stringIcNS_11char_traitsIcEENS_9allocatorIcEEEEiEEPvEEEEEEEENS_15iterator_traitsIT_E15difference_typeESI_SI_(%"struct.std::__1::__hash_node_base"* %60, %"struct.std::__1::__hash_node_base"* %63), !dbg !7906
  %65 = sub i64 %49, %64, !dbg !7907
  %66 = sub i64 %65, 1, !dbg !7908
  %67 = trunc i64 %66 to i32, !dbg !7900
  store i32 %67, i32* %5, align 4, !dbg !7909
  br label %68

68:                                               ; preds = %47
  %69 = getelementptr inbounds %class.system_memory_map, %class.system_memory_map* %19, i32 0, i32 3, !dbg !7910
  %70 = load i32*, i32** %69, align 8, !dbg !7910
  %71 = load i32, i32* %5, align 4, !dbg !7912
  %72 = sext i32 %71 to i64, !dbg !7910
  %73 = getelementptr inbounds i32, i32* %70, i64 %72, !dbg !7910
  %74 = load i32, i32* %73, align 4, !dbg !7910
  %75 = icmp eq i32 %74, 1, !dbg !7913
  br i1 %75, label %76, label %80, !dbg !7914

76:                                               ; preds = %68
  %77 = call %"struct.std::__1::pair"* @_ZNKSt3__119__hash_map_iteratorINS_15__hash_iteratorIPNS_11__hash_nodeINS_17__hash_value_typeINS_12basic_stringIcNS_11char_traitsIcEENS_9allocatorIcEEEEiEEPvEEEEEptEv(%"class.std::__1::__hash_map_iterator"* nonnull align 8 dereferenceable(8) %6), !dbg !7915
  %78 = getelementptr inbounds %"struct.std::__1::pair", %"struct.std::__1::pair"* %77, i32 0, i32 1, !dbg !7917
  %79 = load i32, i32* %78, align 8, !dbg !7917
  store i32 %79, i32* %3, align 4, !dbg !7918
  br label %92, !dbg !7918

80:                                               ; preds = %68
  call void @llvm.dbg.declare(metadata %"class.std::__1::basic_string"* %16, metadata !7919, metadata !DIExpression()), !dbg !7921
  call void @_ZNSt3__1plIcNS_11char_traitsIcEENS_9allocatorIcEEEENS_12basic_stringIT_T0_T1_EEPKS6_RKS9_(%"class.std::__1::basic_string"* sret(%"class.std::__1::basic_string") align 8 %17, i8* getelementptr inbounds ([31 x i8], [31 x i8]* @.str.4, i64 0, i64 0), %"class.std::__1::basic_string"* nonnull align 8 dereferenceable(24) %1), !dbg !7922
  invoke void @_ZNSt3__1plIcNS_11char_traitsIcEENS_9allocatorIcEEEENS_12basic_stringIT_T0_T1_EEOS9_PKS6_(%"class.std::__1::basic_string"* sret(%"class.std::__1::basic_string") align 8 %16, %"class.std::__1::basic_string"* nonnull align 8 dereferenceable(24) %17, i8* getelementptr inbounds ([23 x i8], [23 x i8]* @.str.6, i64 0, i64 0))
          to label %81 unwind label %84, !dbg !7923

81:                                               ; preds = %80
  call void @_ZNSt3__112basic_stringIcNS_11char_traitsIcEENS_9allocatorIcEEED1Ev(%"class.std::__1::basic_string"* nonnull align 8 dereferenceable(24) %17) #19, !dbg !7924
  %82 = bitcast %class.system_memory_map* %19 to %class.Log*, !dbg !7925
  invoke void @_ZNSt3__112basic_stringIcNS_11char_traitsIcEENS_9allocatorIcEEEC1ERKS5_(%"class.std::__1::basic_string"* nonnull align 8 dereferenceable(24) %18, %"class.std::__1::basic_string"* nonnull align 8 dereferenceable(24) %16)
          to label %83 unwind label %88, !dbg !7926

83:                                               ; preds = %81
  call void @_ZN3Log10to_consoleENSt3__112basic_stringIcNS0_11char_traitsIcEENS0_9allocatorIcEEEEi(%class.Log* nonnull align 4 dereferenceable(20) %82, %"class.std::__1::basic_string"* %18, i32 1), !dbg !7925
  call void @_ZNSt3__112basic_stringIcNS_11char_traitsIcEENS_9allocatorIcEEED1Ev(%"class.std::__1::basic_string"* nonnull align 8 dereferenceable(24) %18) #19, !dbg !7925
  store i32 -1, i32* %3, align 4, !dbg !7927
  call void @_ZNSt3__112basic_stringIcNS_11char_traitsIcEENS_9allocatorIcEEED1Ev(%"class.std::__1::basic_string"* nonnull align 8 dereferenceable(24) %16) #19, !dbg !7928
  br label %92

84:                                               ; preds = %80
  %85 = landingpad { i8*, i32 }
          cleanup, !dbg !7929
  %86 = extractvalue { i8*, i32 } %85, 0, !dbg !7929
  store i8* %86, i8** %11, align 8, !dbg !7929
  %87 = extractvalue { i8*, i32 } %85, 1, !dbg !7929
  store i32 %87, i32* %12, align 4, !dbg !7929
  call void @_ZNSt3__112basic_stringIcNS_11char_traitsIcEENS_9allocatorIcEEED1Ev(%"class.std::__1::basic_string"* nonnull align 8 dereferenceable(24) %17) #19, !dbg !7924
  br label %94, !dbg !7924

88:                                               ; preds = %81
  %89 = landingpad { i8*, i32 }
          cleanup, !dbg !7929
  %90 = extractvalue { i8*, i32 } %89, 0, !dbg !7929
  store i8* %90, i8** %11, align 8, !dbg !7929
  %91 = extractvalue { i8*, i32 } %89, 1, !dbg !7929
  store i32 %91, i32* %12, align 4, !dbg !7929
  call void @_ZNSt3__112basic_stringIcNS_11char_traitsIcEENS_9allocatorIcEEED1Ev(%"class.std::__1::basic_string"* nonnull align 8 dereferenceable(24) %16) #19, !dbg !7928
  br label %94, !dbg !7928

92:                                               ; preds = %83, %76, %33
  %93 = load i32, i32* %3, align 4, !dbg !7930
  ret i32 %93, !dbg !7930

94:                                               ; preds = %88, %84, %43, %42
  %95 = load i8*, i8** %11, align 8, !dbg !7894
  %96 = load i32, i32* %12, align 4, !dbg !7894
  %97 = insertvalue { i8*, i32 } undef, i8* %95, 0, !dbg !7894
  %98 = insertvalue { i8*, i32 } %97, i32 %96, 1, !dbg !7894
  resume { i8*, i32 } %98, !dbg !7894
}

; Function Attrs: mustprogress noinline nounwind optnone ssp uwtable
define linkonce_odr hidden zeroext i1 @_ZNSt3__1eqERKNS_19__hash_map_iteratorINS_15__hash_iteratorIPNS_11__hash_nodeINS_17__hash_value_typeINS_12basic_stringIcNS_11char_traitsIcEENS_9allocatorIcEEEEiEEPvEEEEEESH_(%"class.std::__1::__hash_map_iterator"* nonnull align 8 dereferenceable(8) %0, %"class.std::__1::__hash_map_iterator"* nonnull align 8 dereferenceable(8) %1) #0 !dbg !7931 {
  %3 = alloca %"class.std::__1::__hash_map_iterator"*, align 8
  %4 = alloca %"class.std::__1::__hash_map_iterator"*, align 8
  store %"class.std::__1::__hash_map_iterator"* %0, %"class.std::__1::__hash_map_iterator"** %3, align 8
  call void @llvm.dbg.declare(metadata %"class.std::__1::__hash_map_iterator"** %3, metadata !7932, metadata !DIExpression()), !dbg !7933
  store %"class.std::__1::__hash_map_iterator"* %1, %"class.std::__1::__hash_map_iterator"** %4, align 8
  call void @llvm.dbg.declare(metadata %"class.std::__1::__hash_map_iterator"** %4, metadata !7934, metadata !DIExpression()), !dbg !7935
  %5 = load %"class.std::__1::__hash_map_iterator"*, %"class.std::__1::__hash_map_iterator"** %3, align 8, !dbg !7936
  %6 = getelementptr inbounds %"class.std::__1::__hash_map_iterator", %"class.std::__1::__hash_map_iterator"* %5, i32 0, i32 0, !dbg !7937
  %7 = load %"class.std::__1::__hash_map_iterator"*, %"class.std::__1::__hash_map_iterator"** %4, align 8, !dbg !7938
  %8 = getelementptr inbounds %"class.std::__1::__hash_map_iterator", %"class.std::__1::__hash_map_iterator"* %7, i32 0, i32 0, !dbg !7939
  %9 = call zeroext i1 @_ZNSt3__1eqERKNS_15__hash_iteratorIPNS_11__hash_nodeINS_17__hash_value_typeINS_12basic_stringIcNS_11char_traitsIcEENS_9allocatorIcEEEEiEEPvEEEESF_(%"class.std::__1::__hash_iterator"* nonnull align 8 dereferenceable(8) %6, %"class.std::__1::__hash_iterator"* nonnull align 8 dereferenceable(8) %8), !dbg !7940
  ret i1 %9, !dbg !7941
}

; Function Attrs: mustprogress noinline optnone ssp uwtable
define void @_ZN17system_memory_map19write_to_system_mapENSt3__112basic_stringIcNS0_11char_traitsIcEENS0_9allocatorIcEEEEi(%class.system_memory_map* nonnull align 8 dereferenceable(40) %0, %"class.std::__1::basic_string"* %1, i32 %2) #2 align 2 personality i8* bitcast (i32 (...)* @__gxx_personality_v0 to i8*) !dbg !7942 {
  %4 = alloca %class.system_memory_map*, align 8
  %5 = alloca i32, align 4
  %6 = alloca %"struct.std::__1::pair.32", align 8
  %7 = alloca i8*, align 8
  %8 = alloca i32, align 4
  %9 = alloca %"struct.std::__1::pair.30", align 8
  %10 = alloca %"class.std::__1::basic_string", align 8
  %11 = alloca %"class.std::__1::basic_string", align 8
  %12 = alloca %"class.std::__1::basic_string", align 8
  %13 = alloca %"class.std::__1::basic_string", align 8
  %14 = alloca %"class.std::__1::basic_string", align 8
  %15 = alloca %"class.std::__1::basic_string", align 8
  %16 = alloca %"class.std::__1::basic_string", align 8
  store %class.system_memory_map* %0, %class.system_memory_map** %4, align 8
  call void @llvm.dbg.declare(metadata %class.system_memory_map** %4, metadata !7943, metadata !DIExpression()), !dbg !7944
  call void @llvm.dbg.declare(metadata %"class.std::__1::basic_string"* %1, metadata !7945, metadata !DIExpression()), !dbg !7946
  store i32 %2, i32* %5, align 4
  call void @llvm.dbg.declare(metadata i32* %5, metadata !7947, metadata !DIExpression()), !dbg !7948
  %17 = load %class.system_memory_map*, %class.system_memory_map** %4, align 8
  %18 = load %"class.std::__1::unordered_map"*, %"class.std::__1::unordered_map"** @_ZN17system_memory_map17global_memory_mapE, align 8, !dbg !7949
  call void @_ZNSt3__19make_pairIRNS_12basic_stringIcNS_11char_traitsIcEENS_9allocatorIcEEEERiEENS_4pairINS_18__unwrap_ref_decayIT_E4typeENSA_IT0_E4typeEEEOSB_OSE_(%"struct.std::__1::pair.32"* sret(%"struct.std::__1::pair.32") align 8 %6, %"class.std::__1::basic_string"* nonnull align 8 dereferenceable(24) %1, i32* nonnull align 4 dereferenceable(4) %5), !dbg !7950
  %19 = invoke { %"struct.std::__1::__hash_node_base"*, i8 } @_ZNSt3__113unordered_mapINS_12basic_stringIcNS_11char_traitsIcEENS_9allocatorIcEEEEiNS_4hashIS6_EENS_8equal_toIS6_EENS4_INS_4pairIKS6_iEEEEE6insertINSB_IS6_iEEvEENSB_INS_19__hash_map_iteratorINS_15__hash_iteratorIPNS_11__hash_nodeINS_17__hash_value_typeIS6_iEEPvEEEEEEbEEOT_(%"class.std::__1::unordered_map"* nonnull align 8 dereferenceable(40) %18, %"struct.std::__1::pair.32"* nonnull align 8 dereferenceable(28) %6)
          to label %20 unwind label %41, !dbg !7951

20:                                               ; preds = %3
  %21 = bitcast %"struct.std::__1::pair.30"* %9 to { %"struct.std::__1::__hash_node_base"*, i8 }*, !dbg !7951
  %22 = getelementptr inbounds { %"struct.std::__1::__hash_node_base"*, i8 }, { %"struct.std::__1::__hash_node_base"*, i8 }* %21, i32 0, i32 0, !dbg !7951
  %23 = extractvalue { %"struct.std::__1::__hash_node_base"*, i8 } %19, 0, !dbg !7951
  store %"struct.std::__1::__hash_node_base"* %23, %"struct.std::__1::__hash_node_base"** %22, align 8, !dbg !7951
  %24 = getelementptr inbounds { %"struct.std::__1::__hash_node_base"*, i8 }, { %"struct.std::__1::__hash_node_base"*, i8 }* %21, i32 0, i32 1, !dbg !7951
  %25 = extractvalue { %"struct.std::__1::__hash_node_base"*, i8 } %19, 1, !dbg !7951
  store i8 %25, i8* %24, align 8, !dbg !7951
  call void @_ZNSt3__14pairINS_12basic_stringIcNS_11char_traitsIcEENS_9allocatorIcEEEEiED1Ev(%"struct.std::__1::pair.32"* nonnull align 8 dereferenceable(28) %6) #19, !dbg !7949
  %26 = getelementptr inbounds %class.system_memory_map, %class.system_memory_map* %17, i32 0, i32 3, !dbg !7952
  %27 = load i32*, i32** %26, align 8, !dbg !7952
  %28 = load i32, i32* @valid_status, align 4, !dbg !7953
  %29 = sext i32 %28 to i64, !dbg !7952
  %30 = getelementptr inbounds i32, i32* %27, i64 %29, !dbg !7952
  store i32 1, i32* %30, align 4, !dbg !7954
  call void @llvm.dbg.declare(metadata %"class.std::__1::basic_string"* %10, metadata !7955, metadata !DIExpression()), !dbg !7956
  %31 = load i32, i32* @valid_status, align 4, !dbg !7957
  call void @_ZNSt3__19to_stringEi(%"class.std::__1::basic_string"* sret(%"class.std::__1::basic_string") align 8 %15, i32 %31), !dbg !7958
  invoke void @_ZNSt3__1plIcNS_11char_traitsIcEENS_9allocatorIcEEEENS_12basic_stringIT_T0_T1_EEPKS6_OS9_(%"class.std::__1::basic_string"* sret(%"class.std::__1::basic_string") align 8 %14, i8* getelementptr inbounds ([7 x i8], [7 x i8]* @.str.7, i64 0, i64 0), %"class.std::__1::basic_string"* nonnull align 8 dereferenceable(24) %15)
          to label %32 unwind label %45, !dbg !7959

32:                                               ; preds = %20
  invoke void @_ZNSt3__1plIcNS_11char_traitsIcEENS_9allocatorIcEEEENS_12basic_stringIT_T0_T1_EEOS9_PKS6_(%"class.std::__1::basic_string"* sret(%"class.std::__1::basic_string") align 8 %13, %"class.std::__1::basic_string"* nonnull align 8 dereferenceable(24) %14, i8* getelementptr inbounds ([2 x i8], [2 x i8]* @.str.8, i64 0, i64 0))
          to label %33 unwind label %49, !dbg !7960

33:                                               ; preds = %32
  invoke void @_ZNSt3__1plIcNS_11char_traitsIcEENS_9allocatorIcEEEENS_12basic_stringIT_T0_T1_EEOS9_PKS6_(%"class.std::__1::basic_string"* sret(%"class.std::__1::basic_string") align 8 %12, %"class.std::__1::basic_string"* nonnull align 8 dereferenceable(24) %13, i8* getelementptr inbounds ([5 x i8], [5 x i8]* @.str.9, i64 0, i64 0))
          to label %34 unwind label %53, !dbg !7961

34:                                               ; preds = %33
  invoke void @_ZNSt3__1plIcNS_11char_traitsIcEENS_9allocatorIcEEEENS_12basic_stringIT_T0_T1_EEOS9_PKS6_(%"class.std::__1::basic_string"* sret(%"class.std::__1::basic_string") align 8 %11, %"class.std::__1::basic_string"* nonnull align 8 dereferenceable(24) %12, i8* getelementptr inbounds ([15 x i8], [15 x i8]* @.str.10, i64 0, i64 0))
          to label %35 unwind label %57, !dbg !7962

35:                                               ; preds = %34
  invoke void @_ZNSt3__1plIcNS_11char_traitsIcEENS_9allocatorIcEEEENS_12basic_stringIT_T0_T1_EEOS9_RKS9_(%"class.std::__1::basic_string"* sret(%"class.std::__1::basic_string") align 8 %10, %"class.std::__1::basic_string"* nonnull align 8 dereferenceable(24) %11, %"class.std::__1::basic_string"* nonnull align 8 dereferenceable(24) %1)
          to label %36 unwind label %61, !dbg !7963

36:                                               ; preds = %35
  call void @_ZNSt3__112basic_stringIcNS_11char_traitsIcEENS_9allocatorIcEEED1Ev(%"class.std::__1::basic_string"* nonnull align 8 dereferenceable(24) %11) #19, !dbg !7964
  call void @_ZNSt3__112basic_stringIcNS_11char_traitsIcEENS_9allocatorIcEEED1Ev(%"class.std::__1::basic_string"* nonnull align 8 dereferenceable(24) %12) #19, !dbg !7964
  call void @_ZNSt3__112basic_stringIcNS_11char_traitsIcEENS_9allocatorIcEEED1Ev(%"class.std::__1::basic_string"* nonnull align 8 dereferenceable(24) %13) #19, !dbg !7964
  call void @_ZNSt3__112basic_stringIcNS_11char_traitsIcEENS_9allocatorIcEEED1Ev(%"class.std::__1::basic_string"* nonnull align 8 dereferenceable(24) %14) #19, !dbg !7964
  call void @_ZNSt3__112basic_stringIcNS_11char_traitsIcEENS_9allocatorIcEEED1Ev(%"class.std::__1::basic_string"* nonnull align 8 dereferenceable(24) %15) #19, !dbg !7964
  %37 = bitcast %class.system_memory_map* %17 to %class.Log*, !dbg !7965
  invoke void @_ZNSt3__112basic_stringIcNS_11char_traitsIcEENS_9allocatorIcEEEC1ERKS5_(%"class.std::__1::basic_string"* nonnull align 8 dereferenceable(24) %16, %"class.std::__1::basic_string"* nonnull align 8 dereferenceable(24) %10)
          to label %38 unwind label %69, !dbg !7966

38:                                               ; preds = %36
  call void @_ZN3Log10to_consoleENSt3__112basic_stringIcNS0_11char_traitsIcEENS0_9allocatorIcEEEEi(%class.Log* nonnull align 4 dereferenceable(20) %37, %"class.std::__1::basic_string"* %16, i32 2), !dbg !7965
  call void @_ZNSt3__112basic_stringIcNS_11char_traitsIcEENS_9allocatorIcEEED1Ev(%"class.std::__1::basic_string"* nonnull align 8 dereferenceable(24) %16) #19, !dbg !7965
  %39 = load i32, i32* @valid_status, align 4, !dbg !7967
  %40 = add nsw i32 %39, 1, !dbg !7967
  store i32 %40, i32* @valid_status, align 4, !dbg !7967
  call void @_ZNSt3__112basic_stringIcNS_11char_traitsIcEENS_9allocatorIcEEED1Ev(%"class.std::__1::basic_string"* nonnull align 8 dereferenceable(24) %10) #19, !dbg !7968
  ret void, !dbg !7968

41:                                               ; preds = %3
  %42 = landingpad { i8*, i32 }
          cleanup, !dbg !7968
  %43 = extractvalue { i8*, i32 } %42, 0, !dbg !7968
  store i8* %43, i8** %7, align 8, !dbg !7968
  %44 = extractvalue { i8*, i32 } %42, 1, !dbg !7968
  store i32 %44, i32* %8, align 4, !dbg !7968
  call void @_ZNSt3__14pairINS_12basic_stringIcNS_11char_traitsIcEENS_9allocatorIcEEEEiED1Ev(%"struct.std::__1::pair.32"* nonnull align 8 dereferenceable(28) %6) #19, !dbg !7949
  br label %73, !dbg !7949

45:                                               ; preds = %20
  %46 = landingpad { i8*, i32 }
          cleanup, !dbg !7968
  %47 = extractvalue { i8*, i32 } %46, 0, !dbg !7968
  store i8* %47, i8** %7, align 8, !dbg !7968
  %48 = extractvalue { i8*, i32 } %46, 1, !dbg !7968
  store i32 %48, i32* %8, align 4, !dbg !7968
  br label %68, !dbg !7968

49:                                               ; preds = %32
  %50 = landingpad { i8*, i32 }
          cleanup, !dbg !7968
  %51 = extractvalue { i8*, i32 } %50, 0, !dbg !7968
  store i8* %51, i8** %7, align 8, !dbg !7968
  %52 = extractvalue { i8*, i32 } %50, 1, !dbg !7968
  store i32 %52, i32* %8, align 4, !dbg !7968
  br label %67, !dbg !7968

53:                                               ; preds = %33
  %54 = landingpad { i8*, i32 }
          cleanup, !dbg !7968
  %55 = extractvalue { i8*, i32 } %54, 0, !dbg !7968
  store i8* %55, i8** %7, align 8, !dbg !7968
  %56 = extractvalue { i8*, i32 } %54, 1, !dbg !7968
  store i32 %56, i32* %8, align 4, !dbg !7968
  br label %66, !dbg !7968

57:                                               ; preds = %34
  %58 = landingpad { i8*, i32 }
          cleanup, !dbg !7968
  %59 = extractvalue { i8*, i32 } %58, 0, !dbg !7968
  store i8* %59, i8** %7, align 8, !dbg !7968
  %60 = extractvalue { i8*, i32 } %58, 1, !dbg !7968
  store i32 %60, i32* %8, align 4, !dbg !7968
  br label %65, !dbg !7968

61:                                               ; preds = %35
  %62 = landingpad { i8*, i32 }
          cleanup, !dbg !7968
  %63 = extractvalue { i8*, i32 } %62, 0, !dbg !7968
  store i8* %63, i8** %7, align 8, !dbg !7968
  %64 = extractvalue { i8*, i32 } %62, 1, !dbg !7968
  store i32 %64, i32* %8, align 4, !dbg !7968
  call void @_ZNSt3__112basic_stringIcNS_11char_traitsIcEENS_9allocatorIcEEED1Ev(%"class.std::__1::basic_string"* nonnull align 8 dereferenceable(24) %11) #19, !dbg !7964
  br label %65, !dbg !7964

65:                                               ; preds = %61, %57
  call void @_ZNSt3__112basic_stringIcNS_11char_traitsIcEENS_9allocatorIcEEED1Ev(%"class.std::__1::basic_string"* nonnull align 8 dereferenceable(24) %12) #19, !dbg !7964
  br label %66, !dbg !7964

66:                                               ; preds = %65, %53
  call void @_ZNSt3__112basic_stringIcNS_11char_traitsIcEENS_9allocatorIcEEED1Ev(%"class.std::__1::basic_string"* nonnull align 8 dereferenceable(24) %13) #19, !dbg !7964
  br label %67, !dbg !7964

67:                                               ; preds = %66, %49
  call void @_ZNSt3__112basic_stringIcNS_11char_traitsIcEENS_9allocatorIcEEED1Ev(%"class.std::__1::basic_string"* nonnull align 8 dereferenceable(24) %14) #19, !dbg !7964
  br label %68, !dbg !7964

68:                                               ; preds = %67, %45
  call void @_ZNSt3__112basic_stringIcNS_11char_traitsIcEENS_9allocatorIcEEED1Ev(%"class.std::__1::basic_string"* nonnull align 8 dereferenceable(24) %15) #19, !dbg !7964
  br label %73, !dbg !7964

69:                                               ; preds = %36
  %70 = landingpad { i8*, i32 }
          cleanup, !dbg !7968
  %71 = extractvalue { i8*, i32 } %70, 0, !dbg !7968
  store i8* %71, i8** %7, align 8, !dbg !7968
  %72 = extractvalue { i8*, i32 } %70, 1, !dbg !7968
  store i32 %72, i32* %8, align 4, !dbg !7968
  call void @_ZNSt3__112basic_stringIcNS_11char_traitsIcEENS_9allocatorIcEEED1Ev(%"class.std::__1::basic_string"* nonnull align 8 dereferenceable(24) %10) #19, !dbg !7968
  br label %73, !dbg !7968

73:                                               ; preds = %69, %68, %41
  %74 = load i8*, i8** %7, align 8, !dbg !7949
  %75 = load i32, i32* %8, align 4, !dbg !7949
  %76 = insertvalue { i8*, i32 } undef, i8* %74, 0, !dbg !7949
  %77 = insertvalue { i8*, i32 } %76, i32 %75, 1, !dbg !7949
  resume { i8*, i32 } %77, !dbg !7949
}

; Function Attrs: mustprogress noinline optnone ssp uwtable
define linkonce_odr { %"struct.std::__1::__hash_node_base"*, i8 } @_ZNSt3__113unordered_mapINS_12basic_stringIcNS_11char_traitsIcEENS_9allocatorIcEEEEiNS_4hashIS6_EENS_8equal_toIS6_EENS4_INS_4pairIKS6_iEEEEE6insertINSB_IS6_iEEvEENSB_INS_19__hash_map_iteratorINS_15__hash_iteratorIPNS_11__hash_nodeINS_17__hash_value_typeIS6_iEEPvEEEEEEbEEOT_(%"class.std::__1::unordered_map"* nonnull align 8 dereferenceable(40) %0, %"struct.std::__1::pair.32"* nonnull align 8 dereferenceable(28) %1) #2 align 2 !dbg !7969 {
  %3 = alloca %"struct.std::__1::pair.30", align 8
  %4 = alloca %"class.std::__1::unordered_map"*, align 8
  %5 = alloca %"struct.std::__1::pair.32"*, align 8
  %6 = alloca %"struct.std::__1::pair.48", align 8
  store %"class.std::__1::unordered_map"* %0, %"class.std::__1::unordered_map"** %4, align 8
  call void @llvm.dbg.declare(metadata %"class.std::__1::unordered_map"** %4, metadata !8009, metadata !DIExpression()), !dbg !8010
  store %"struct.std::__1::pair.32"* %1, %"struct.std::__1::pair.32"** %5, align 8
  call void @llvm.dbg.declare(metadata %"struct.std::__1::pair.32"** %5, metadata !8011, metadata !DIExpression()), !dbg !8012
  %7 = load %"class.std::__1::unordered_map"*, %"class.std::__1::unordered_map"** %4, align 8
  %8 = getelementptr inbounds %"class.std::__1::unordered_map", %"class.std::__1::unordered_map"* %7, i32 0, i32 0, !dbg !8013
  %9 = load %"struct.std::__1::pair.32"*, %"struct.std::__1::pair.32"** %5, align 8, !dbg !8014
  %10 = call nonnull align 8 dereferenceable(28) %"struct.std::__1::pair.32"* @_ZNSt3__17forwardINS_4pairINS_12basic_stringIcNS_11char_traitsIcEENS_9allocatorIcEEEEiEEEEOT_RNS_16remove_referenceIS9_E4typeE(%"struct.std::__1::pair.32"* nonnull align 8 dereferenceable(28) %9) #19, !dbg !8015
  %11 = call { %"struct.std::__1::__hash_node_base"*, i8 } @_ZNSt3__112__hash_tableINS_17__hash_value_typeINS_12basic_stringIcNS_11char_traitsIcEENS_9allocatorIcEEEEiEENS_22__unordered_map_hasherIS7_S8_NS_4hashIS7_EENS_8equal_toIS7_EELb1EEENS_21__unordered_map_equalIS7_S8_SD_SB_Lb1EEENS5_IS8_EEE15__insert_uniqueINS_4pairIS7_iEEvEENSK_INS_15__hash_iteratorIPNS_11__hash_nodeIS8_PvEEEEbEEOT_(%"class.std::__1::__hash_table"* nonnull align 8 dereferenceable(36) %8, %"struct.std::__1::pair.32"* nonnull align 8 dereferenceable(28) %10), !dbg !8016
  %12 = bitcast %"struct.std::__1::pair.48"* %6 to { %"struct.std::__1::__hash_node_base"*, i8 }*, !dbg !8016
  %13 = getelementptr inbounds { %"struct.std::__1::__hash_node_base"*, i8 }, { %"struct.std::__1::__hash_node_base"*, i8 }* %12, i32 0, i32 0, !dbg !8016
  %14 = extractvalue { %"struct.std::__1::__hash_node_base"*, i8 } %11, 0, !dbg !8016
  store %"struct.std::__1::__hash_node_base"* %14, %"struct.std::__1::__hash_node_base"** %13, align 8, !dbg !8016
  %15 = getelementptr inbounds { %"struct.std::__1::__hash_node_base"*, i8 }, { %"struct.std::__1::__hash_node_base"*, i8 }* %12, i32 0, i32 1, !dbg !8016
  %16 = extractvalue { %"struct.std::__1::__hash_node_base"*, i8 } %11, 1, !dbg !8016
  store i8 %16, i8* %15, align 8, !dbg !8016
  call void @_ZNSt3__14pairINS_19__hash_map_iteratorINS_15__hash_iteratorIPNS_11__hash_nodeINS_17__hash_value_typeINS_12basic_stringIcNS_11char_traitsIcEENS_9allocatorIcEEEEiEEPvEEEEEEbEC1ISF_bLb0EEEONS0_IT_T0_EE(%"struct.std::__1::pair.30"* nonnull align 8 dereferenceable(9) %3, %"struct.std::__1::pair.48"* nonnull align 8 dereferenceable(9) %6) #19, !dbg !8013
  %17 = bitcast %"struct.std::__1::pair.30"* %3 to { %"struct.std::__1::__hash_node_base"*, i8 }*, !dbg !8017
  %18 = load { %"struct.std::__1::__hash_node_base"*, i8 }, { %"struct.std::__1::__hash_node_base"*, i8 }* %17, align 8, !dbg !8017
  ret { %"struct.std::__1::__hash_node_base"*, i8 } %18, !dbg !8017
}

; Function Attrs: mustprogress noinline optnone ssp uwtable
define linkonce_odr hidden void @_ZNSt3__19make_pairIRNS_12basic_stringIcNS_11char_traitsIcEENS_9allocatorIcEEEERiEENS_4pairINS_18__unwrap_ref_decayIT_E4typeENSA_IT0_E4typeEEEOSB_OSE_(%"struct.std::__1::pair.32"* noalias sret(%"struct.std::__1::pair.32") align 8 %0, %"class.std::__1::basic_string"* nonnull align 8 dereferenceable(24) %1, i32* nonnull align 4 dereferenceable(4) %2) #2 !dbg !8018 {
  %4 = alloca i8*, align 8
  %5 = alloca %"class.std::__1::basic_string"*, align 8
  %6 = alloca i32*, align 8
  %7 = bitcast %"struct.std::__1::pair.32"* %0 to i8*
  store i8* %7, i8** %4, align 8
  store %"class.std::__1::basic_string"* %1, %"class.std::__1::basic_string"** %5, align 8
  call void @llvm.dbg.declare(metadata %"class.std::__1::basic_string"** %5, metadata !8024, metadata !DIExpression()), !dbg !8025
  store i32* %2, i32** %6, align 8
  call void @llvm.dbg.declare(metadata i32** %6, metadata !8026, metadata !DIExpression()), !dbg !8027
  %8 = load %"class.std::__1::basic_string"*, %"class.std::__1::basic_string"** %5, align 8, !dbg !8028
  %9 = call nonnull align 8 dereferenceable(24) %"class.std::__1::basic_string"* @_ZNSt3__17forwardIRNS_12basic_stringIcNS_11char_traitsIcEENS_9allocatorIcEEEEEEOT_RNS_16remove_referenceIS8_E4typeE(%"class.std::__1::basic_string"* nonnull align 8 dereferenceable(24) %8) #19, !dbg !8029
  %10 = load i32*, i32** %6, align 8, !dbg !8030
  %11 = call nonnull align 4 dereferenceable(4) i32* @_ZNSt3__17forwardIRiEEOT_RNS_16remove_referenceIS2_E4typeE(i32* nonnull align 4 dereferenceable(4) %10) #19, !dbg !8031
  call void @_ZNSt3__14pairINS_12basic_stringIcNS_11char_traitsIcEENS_9allocatorIcEEEEiEC1IRS6_RiLb0EEEOT_OT0_(%"struct.std::__1::pair.32"* nonnull align 8 dereferenceable(28) %0, %"class.std::__1::basic_string"* nonnull align 8 dereferenceable(24) %9, i32* nonnull align 4 dereferenceable(4) %11), !dbg !8032
  ret void, !dbg !8033
}

; Function Attrs: noinline nounwind optnone ssp uwtable
define linkonce_odr void @_ZNSt3__14pairINS_12basic_stringIcNS_11char_traitsIcEENS_9allocatorIcEEEEiED1Ev(%"struct.std::__1::pair.32"* nonnull align 8 dereferenceable(28) %0) unnamed_addr #7 align 2 !dbg !8034 {
  %2 = alloca %"struct.std::__1::pair.32"*, align 8
  store %"struct.std::__1::pair.32"* %0, %"struct.std::__1::pair.32"** %2, align 8
  call void @llvm.dbg.declare(metadata %"struct.std::__1::pair.32"** %2, metadata !8038, metadata !DIExpression()), !dbg !8040
  %3 = load %"struct.std::__1::pair.32"*, %"struct.std::__1::pair.32"** %2, align 8
  call void @_ZNSt3__14pairINS_12basic_stringIcNS_11char_traitsIcEENS_9allocatorIcEEEEiED2Ev(%"struct.std::__1::pair.32"* nonnull align 8 dereferenceable(28) %3) #19, !dbg !8041
  ret void, !dbg !8041
}

; Function Attrs: mustprogress noinline optnone ssp uwtable
define linkonce_odr hidden void @_ZNSt3__1plIcNS_11char_traitsIcEENS_9allocatorIcEEEENS_12basic_stringIT_T0_T1_EEOS9_RKS9_(%"class.std::__1::basic_string"* noalias sret(%"class.std::__1::basic_string") align 8 %0, %"class.std::__1::basic_string"* nonnull align 8 dereferenceable(24) %1, %"class.std::__1::basic_string"* nonnull align 8 dereferenceable(24) %2) #2 !dbg !8042 {
  %4 = alloca i8*, align 8
  %5 = alloca %"class.std::__1::basic_string"*, align 8
  %6 = alloca %"class.std::__1::basic_string"*, align 8
  %7 = bitcast %"class.std::__1::basic_string"* %0 to i8*
  store i8* %7, i8** %4, align 8
  store %"class.std::__1::basic_string"* %1, %"class.std::__1::basic_string"** %5, align 8
  call void @llvm.dbg.declare(metadata %"class.std::__1::basic_string"** %5, metadata !8045, metadata !DIExpression()), !dbg !8046
  store %"class.std::__1::basic_string"* %2, %"class.std::__1::basic_string"** %6, align 8
  call void @llvm.dbg.declare(metadata %"class.std::__1::basic_string"** %6, metadata !8047, metadata !DIExpression()), !dbg !8048
  %8 = load %"class.std::__1::basic_string"*, %"class.std::__1::basic_string"** %5, align 8, !dbg !8049
  %9 = load %"class.std::__1::basic_string"*, %"class.std::__1::basic_string"** %6, align 8, !dbg !8050
  %10 = call nonnull align 8 dereferenceable(24) %"class.std::__1::basic_string"* @_ZNSt3__112basic_stringIcNS_11char_traitsIcEENS_9allocatorIcEEE6appendERKS5_(%"class.std::__1::basic_string"* nonnull align 8 dereferenceable(24) %8, %"class.std::__1::basic_string"* nonnull align 8 dereferenceable(24) %9), !dbg !8051
  %11 = call nonnull align 8 dereferenceable(24) %"class.std::__1::basic_string"* @_ZNSt3__14moveIRNS_12basic_stringIcNS_11char_traitsIcEENS_9allocatorIcEEEEEEONS_16remove_referenceIT_E4typeEOS9_(%"class.std::__1::basic_string"* nonnull align 8 dereferenceable(24) %10) #19, !dbg !8052
  call void @_ZNSt3__112basic_stringIcNS_11char_traitsIcEENS_9allocatorIcEEEC1EOS5_(%"class.std::__1::basic_string"* nonnull align 8 dereferenceable(24) %0, %"class.std::__1::basic_string"* nonnull align 8 dereferenceable(24) %11) #19, !dbg !8052
  ret void, !dbg !8053
}

; Function Attrs: mustprogress noinline optnone ssp uwtable
define void @_ZN17system_memory_map9print_mapERKNSt3__113unordered_mapINS0_12basic_stringIcNS0_11char_traitsIcEENS0_9allocatorIcEEEEiNS0_4hashIS7_EENS0_8equal_toIS7_EENS5_INS0_4pairIKS7_iEEEEEE(%class.system_memory_map* nonnull align 8 dereferenceable(40) %0, %"class.std::__1::unordered_map"* nonnull align 8 dereferenceable(40) %1) #2 align 2 !dbg !8054 {
  %3 = alloca %class.system_memory_map*, align 8
  %4 = alloca %"class.std::__1::unordered_map"*, align 8
  %5 = alloca %"class.std::__1::basic_string", align 8
  %6 = alloca i32, align 4
  %7 = alloca %"class.std::__1::unordered_map"*, align 8
  %8 = alloca %"class.std::__1::__hash_map_const_iterator", align 8
  %9 = alloca %"class.std::__1::__hash_map_const_iterator", align 8
  %10 = alloca %"struct.std::__1::pair"*, align 8
  store %class.system_memory_map* %0, %class.system_memory_map** %3, align 8
  call void @llvm.dbg.declare(metadata %class.system_memory_map** %3, metadata !8055, metadata !DIExpression()), !dbg !8056
  store %"class.std::__1::unordered_map"* %1, %"class.std::__1::unordered_map"** %4, align 8
  call void @llvm.dbg.declare(metadata %"class.std::__1::unordered_map"** %4, metadata !8057, metadata !DIExpression()), !dbg !8058
  %11 = load %class.system_memory_map*, %class.system_memory_map** %3, align 8
  %12 = bitcast %class.system_memory_map* %11 to %class.Log*, !dbg !8059
  call void @_ZNSt3__112basic_stringIcNS_11char_traitsIcEENS_9allocatorIcEEEC1IDnEEPKc(%"class.std::__1::basic_string"* nonnull align 8 dereferenceable(24) %5, i8* getelementptr inbounds ([20 x i8], [20 x i8]* @.str.11, i64 0, i64 0)), !dbg !8060
  call void @_ZN3Log10to_consoleENSt3__112basic_stringIcNS0_11char_traitsIcEENS0_9allocatorIcEEEEi(%class.Log* nonnull align 4 dereferenceable(20) %12, %"class.std::__1::basic_string"* %5, i32 2), !dbg !8059
  call void @_ZNSt3__112basic_stringIcNS_11char_traitsIcEENS_9allocatorIcEEED1Ev(%"class.std::__1::basic_string"* nonnull align 8 dereferenceable(24) %5) #19, !dbg !8059
  call void @llvm.dbg.declare(metadata i32* %6, metadata !8061, metadata !DIExpression()), !dbg !8062
  store i32 0, i32* %6, align 4, !dbg !8062
  call void @llvm.dbg.declare(metadata %"class.std::__1::unordered_map"** %7, metadata !8063, metadata !DIExpression()), !dbg !8065
  %13 = load %"class.std::__1::unordered_map"*, %"class.std::__1::unordered_map"** %4, align 8, !dbg !8066
  store %"class.std::__1::unordered_map"* %13, %"class.std::__1::unordered_map"** %7, align 8, !dbg !8066
  call void @llvm.dbg.declare(metadata %"class.std::__1::__hash_map_const_iterator"* %8, metadata !8067, metadata !DIExpression()), !dbg !8065
  %14 = load %"class.std::__1::unordered_map"*, %"class.std::__1::unordered_map"** %7, align 8, !dbg !8068
  %15 = call %"struct.std::__1::__hash_node_base"* @_ZNKSt3__113unordered_mapINS_12basic_stringIcNS_11char_traitsIcEENS_9allocatorIcEEEEiNS_4hashIS6_EENS_8equal_toIS6_EENS4_INS_4pairIKS6_iEEEEE5beginEv(%"class.std::__1::unordered_map"* nonnull align 8 dereferenceable(40) %14) #19, !dbg !8068
  %16 = getelementptr inbounds %"class.std::__1::__hash_map_const_iterator", %"class.std::__1::__hash_map_const_iterator"* %8, i32 0, i32 0, !dbg !8068
  %17 = getelementptr inbounds %"class.std::__1::__hash_const_iterator", %"class.std::__1::__hash_const_iterator"* %16, i32 0, i32 0, !dbg !8068
  store %"struct.std::__1::__hash_node_base"* %15, %"struct.std::__1::__hash_node_base"** %17, align 8, !dbg !8068
  call void @llvm.dbg.declare(metadata %"class.std::__1::__hash_map_const_iterator"* %9, metadata !8069, metadata !DIExpression()), !dbg !8065
  %18 = load %"class.std::__1::unordered_map"*, %"class.std::__1::unordered_map"** %7, align 8, !dbg !8068
  %19 = call %"struct.std::__1::__hash_node_base"* @_ZNKSt3__113unordered_mapINS_12basic_stringIcNS_11char_traitsIcEENS_9allocatorIcEEEEiNS_4hashIS6_EENS_8equal_toIS6_EENS4_INS_4pairIKS6_iEEEEE3endEv(%"class.std::__1::unordered_map"* nonnull align 8 dereferenceable(40) %18) #19, !dbg !8068
  %20 = getelementptr inbounds %"class.std::__1::__hash_map_const_iterator", %"class.std::__1::__hash_map_const_iterator"* %9, i32 0, i32 0, !dbg !8068
  %21 = getelementptr inbounds %"class.std::__1::__hash_const_iterator", %"class.std::__1::__hash_const_iterator"* %20, i32 0, i32 0, !dbg !8068
  store %"struct.std::__1::__hash_node_base"* %19, %"struct.std::__1::__hash_node_base"** %21, align 8, !dbg !8068
  br label %22, !dbg !8068

22:                                               ; preds = %26, %2
  %23 = call zeroext i1 @_ZNSt3__1neERKNS_25__hash_map_const_iteratorINS_21__hash_const_iteratorIPNS_11__hash_nodeINS_17__hash_value_typeINS_12basic_stringIcNS_11char_traitsIcEENS_9allocatorIcEEEEiEEPvEEEEEESH_(%"class.std::__1::__hash_map_const_iterator"* nonnull align 8 dereferenceable(8) %8, %"class.std::__1::__hash_map_const_iterator"* nonnull align 8 dereferenceable(8) %9), !dbg !8068
  br i1 %23, label %24, label %28, !dbg !8068

24:                                               ; preds = %22
  call void @llvm.dbg.declare(metadata %"struct.std::__1::pair"** %10, metadata !8070, metadata !DIExpression()), !dbg !8072
  %25 = call nonnull align 8 dereferenceable(28) %"struct.std::__1::pair"* @_ZNKSt3__125__hash_map_const_iteratorINS_21__hash_const_iteratorIPNS_11__hash_nodeINS_17__hash_value_typeINS_12basic_stringIcNS_11char_traitsIcEENS_9allocatorIcEEEEiEEPvEEEEEdeEv(%"class.std::__1::__hash_map_const_iterator"* nonnull align 8 dereferenceable(8) %8), !dbg !8073
  store %"struct.std::__1::pair"* %25, %"struct.std::__1::pair"** %10, align 8, !dbg !8072
  br label %26, !dbg !8074

26:                                               ; preds = %24
  %27 = call nonnull align 8 dereferenceable(8) %"class.std::__1::__hash_map_const_iterator"* @_ZNSt3__125__hash_map_const_iteratorINS_21__hash_const_iteratorIPNS_11__hash_nodeINS_17__hash_value_typeINS_12basic_stringIcNS_11char_traitsIcEENS_9allocatorIcEEEEiEEPvEEEEEppEv(%"class.std::__1::__hash_map_const_iterator"* nonnull align 8 dereferenceable(8) %8), !dbg !8068
  br label %22, !dbg !8068, !llvm.loop !8075

28:                                               ; preds = %22
  ret void, !dbg !8077
}

; Function Attrs: mustprogress noinline nounwind optnone ssp uwtable
define linkonce_odr hidden %"struct.std::__1::__hash_node_base"* @_ZNKSt3__113unordered_mapINS_12basic_stringIcNS_11char_traitsIcEENS_9allocatorIcEEEEiNS_4hashIS6_EENS_8equal_toIS6_EENS4_INS_4pairIKS6_iEEEEE5beginEv(%"class.std::__1::unordered_map"* nonnull align 8 dereferenceable(40) %0) #0 align 2 !dbg !8078 {
  %2 = alloca %"class.std::__1::__hash_map_const_iterator", align 8
  %3 = alloca %"class.std::__1::unordered_map"*, align 8
  %4 = alloca %"class.std::__1::__hash_const_iterator", align 8
  store %"class.std::__1::unordered_map"* %0, %"class.std::__1::unordered_map"** %3, align 8
  call void @llvm.dbg.declare(metadata %"class.std::__1::unordered_map"** %3, metadata !8079, metadata !DIExpression()), !dbg !8080
  %5 = load %"class.std::__1::unordered_map"*, %"class.std::__1::unordered_map"** %3, align 8
  %6 = getelementptr inbounds %"class.std::__1::unordered_map", %"class.std::__1::unordered_map"* %5, i32 0, i32 0, !dbg !8081
  %7 = call %"struct.std::__1::__hash_node_base"* @_ZNKSt3__112__hash_tableINS_17__hash_value_typeINS_12basic_stringIcNS_11char_traitsIcEENS_9allocatorIcEEEEiEENS_22__unordered_map_hasherIS7_S8_NS_4hashIS7_EENS_8equal_toIS7_EELb1EEENS_21__unordered_map_equalIS7_S8_SD_SB_Lb1EEENS5_IS8_EEE5beginEv(%"class.std::__1::__hash_table"* nonnull align 8 dereferenceable(36) %6) #19, !dbg !8082
  %8 = getelementptr inbounds %"class.std::__1::__hash_const_iterator", %"class.std::__1::__hash_const_iterator"* %4, i32 0, i32 0, !dbg !8082
  store %"struct.std::__1::__hash_node_base"* %7, %"struct.std::__1::__hash_node_base"** %8, align 8, !dbg !8082
  %9 = getelementptr inbounds %"class.std::__1::__hash_const_iterator", %"class.std::__1::__hash_const_iterator"* %4, i32 0, i32 0, !dbg !8081
  %10 = load %"struct.std::__1::__hash_node_base"*, %"struct.std::__1::__hash_node_base"** %9, align 8, !dbg !8081
  call void @_ZNSt3__125__hash_map_const_iteratorINS_21__hash_const_iteratorIPNS_11__hash_nodeINS_17__hash_value_typeINS_12basic_stringIcNS_11char_traitsIcEENS_9allocatorIcEEEEiEEPvEEEEEC1ESE_(%"class.std::__1::__hash_map_const_iterator"* nonnull align 8 dereferenceable(8) %2, %"struct.std::__1::__hash_node_base"* %10) #19, !dbg !8081
  %11 = getelementptr inbounds %"class.std::__1::__hash_map_const_iterator", %"class.std::__1::__hash_map_const_iterator"* %2, i32 0, i32 0, !dbg !8083
  %12 = getelementptr inbounds %"class.std::__1::__hash_const_iterator", %"class.std::__1::__hash_const_iterator"* %11, i32 0, i32 0, !dbg !8083
  %13 = load %"struct.std::__1::__hash_node_base"*, %"struct.std::__1::__hash_node_base"** %12, align 8, !dbg !8083
  ret %"struct.std::__1::__hash_node_base"* %13, !dbg !8083
}

; Function Attrs: mustprogress noinline nounwind optnone ssp uwtable
define linkonce_odr hidden %"struct.std::__1::__hash_node_base"* @_ZNKSt3__113unordered_mapINS_12basic_stringIcNS_11char_traitsIcEENS_9allocatorIcEEEEiNS_4hashIS6_EENS_8equal_toIS6_EENS4_INS_4pairIKS6_iEEEEE3endEv(%"class.std::__1::unordered_map"* nonnull align 8 dereferenceable(40) %0) #0 align 2 !dbg !8084 {
  %2 = alloca %"class.std::__1::__hash_map_const_iterator", align 8
  %3 = alloca %"class.std::__1::unordered_map"*, align 8
  %4 = alloca %"class.std::__1::__hash_const_iterator", align 8
  store %"class.std::__1::unordered_map"* %0, %"class.std::__1::unordered_map"** %3, align 8
  call void @llvm.dbg.declare(metadata %"class.std::__1::unordered_map"** %3, metadata !8085, metadata !DIExpression()), !dbg !8086
  %5 = load %"class.std::__1::unordered_map"*, %"class.std::__1::unordered_map"** %3, align 8
  %6 = getelementptr inbounds %"class.std::__1::unordered_map", %"class.std::__1::unordered_map"* %5, i32 0, i32 0, !dbg !8087
  %7 = call %"struct.std::__1::__hash_node_base"* @_ZNKSt3__112__hash_tableINS_17__hash_value_typeINS_12basic_stringIcNS_11char_traitsIcEENS_9allocatorIcEEEEiEENS_22__unordered_map_hasherIS7_S8_NS_4hashIS7_EENS_8equal_toIS7_EELb1EEENS_21__unordered_map_equalIS7_S8_SD_SB_Lb1EEENS5_IS8_EEE3endEv(%"class.std::__1::__hash_table"* nonnull align 8 dereferenceable(36) %6) #19, !dbg !8088
  %8 = getelementptr inbounds %"class.std::__1::__hash_const_iterator", %"class.std::__1::__hash_const_iterator"* %4, i32 0, i32 0, !dbg !8088
  store %"struct.std::__1::__hash_node_base"* %7, %"struct.std::__1::__hash_node_base"** %8, align 8, !dbg !8088
  %9 = getelementptr inbounds %"class.std::__1::__hash_const_iterator", %"class.std::__1::__hash_const_iterator"* %4, i32 0, i32 0, !dbg !8087
  %10 = load %"struct.std::__1::__hash_node_base"*, %"struct.std::__1::__hash_node_base"** %9, align 8, !dbg !8087
  call void @_ZNSt3__125__hash_map_const_iteratorINS_21__hash_const_iteratorIPNS_11__hash_nodeINS_17__hash_value_typeINS_12basic_stringIcNS_11char_traitsIcEENS_9allocatorIcEEEEiEEPvEEEEEC1ESE_(%"class.std::__1::__hash_map_const_iterator"* nonnull align 8 dereferenceable(8) %2, %"struct.std::__1::__hash_node_base"* %10) #19, !dbg !8087
  %11 = getelementptr inbounds %"class.std::__1::__hash_map_const_iterator", %"class.std::__1::__hash_map_const_iterator"* %2, i32 0, i32 0, !dbg !8089
  %12 = getelementptr inbounds %"class.std::__1::__hash_const_iterator", %"class.std::__1::__hash_const_iterator"* %11, i32 0, i32 0, !dbg !8089
  %13 = load %"struct.std::__1::__hash_node_base"*, %"struct.std::__1::__hash_node_base"** %12, align 8, !dbg !8089
  ret %"struct.std::__1::__hash_node_base"* %13, !dbg !8089
}

; Function Attrs: mustprogress noinline optnone ssp uwtable
define linkonce_odr hidden zeroext i1 @_ZNSt3__1neERKNS_25__hash_map_const_iteratorINS_21__hash_const_iteratorIPNS_11__hash_nodeINS_17__hash_value_typeINS_12basic_stringIcNS_11char_traitsIcEENS_9allocatorIcEEEEiEEPvEEEEEESH_(%"class.std::__1::__hash_map_const_iterator"* nonnull align 8 dereferenceable(8) %0, %"class.std::__1::__hash_map_const_iterator"* nonnull align 8 dereferenceable(8) %1) #2 !dbg !8090 {
  %3 = alloca %"class.std::__1::__hash_map_const_iterator"*, align 8
  %4 = alloca %"class.std::__1::__hash_map_const_iterator"*, align 8
  store %"class.std::__1::__hash_map_const_iterator"* %0, %"class.std::__1::__hash_map_const_iterator"** %3, align 8
  call void @llvm.dbg.declare(metadata %"class.std::__1::__hash_map_const_iterator"** %3, metadata !8094, metadata !DIExpression()), !dbg !8095
  store %"class.std::__1::__hash_map_const_iterator"* %1, %"class.std::__1::__hash_map_const_iterator"** %4, align 8
  call void @llvm.dbg.declare(metadata %"class.std::__1::__hash_map_const_iterator"** %4, metadata !8096, metadata !DIExpression()), !dbg !8097
  %5 = load %"class.std::__1::__hash_map_const_iterator"*, %"class.std::__1::__hash_map_const_iterator"** %3, align 8, !dbg !8098
  %6 = getelementptr inbounds %"class.std::__1::__hash_map_const_iterator", %"class.std::__1::__hash_map_const_iterator"* %5, i32 0, i32 0, !dbg !8099
  %7 = load %"class.std::__1::__hash_map_const_iterator"*, %"class.std::__1::__hash_map_const_iterator"** %4, align 8, !dbg !8100
  %8 = getelementptr inbounds %"class.std::__1::__hash_map_const_iterator", %"class.std::__1::__hash_map_const_iterator"* %7, i32 0, i32 0, !dbg !8101
  %9 = call zeroext i1 @_ZNSt3__1neERKNS_21__hash_const_iteratorIPNS_11__hash_nodeINS_17__hash_value_typeINS_12basic_stringIcNS_11char_traitsIcEENS_9allocatorIcEEEEiEEPvEEEESF_(%"class.std::__1::__hash_const_iterator"* nonnull align 8 dereferenceable(8) %6, %"class.std::__1::__hash_const_iterator"* nonnull align 8 dereferenceable(8) %8), !dbg !8102
  ret i1 %9, !dbg !8103
}

; Function Attrs: mustprogress noinline optnone ssp uwtable
define linkonce_odr hidden nonnull align 8 dereferenceable(28) %"struct.std::__1::pair"* @_ZNKSt3__125__hash_map_const_iteratorINS_21__hash_const_iteratorIPNS_11__hash_nodeINS_17__hash_value_typeINS_12basic_stringIcNS_11char_traitsIcEENS_9allocatorIcEEEEiEEPvEEEEEdeEv(%"class.std::__1::__hash_map_const_iterator"* nonnull align 8 dereferenceable(8) %0) #2 align 2 !dbg !8104 {
  %2 = alloca %"class.std::__1::__hash_map_const_iterator"*, align 8
  store %"class.std::__1::__hash_map_const_iterator"* %0, %"class.std::__1::__hash_map_const_iterator"** %2, align 8
  call void @llvm.dbg.declare(metadata %"class.std::__1::__hash_map_const_iterator"** %2, metadata !8105, metadata !DIExpression()), !dbg !8107
  %3 = load %"class.std::__1::__hash_map_const_iterator"*, %"class.std::__1::__hash_map_const_iterator"** %2, align 8
  %4 = getelementptr inbounds %"class.std::__1::__hash_map_const_iterator", %"class.std::__1::__hash_map_const_iterator"* %3, i32 0, i32 0, !dbg !8108
  %5 = call %"struct.std::__1::__hash_value_type"* @_ZNKSt3__121__hash_const_iteratorIPNS_11__hash_nodeINS_17__hash_value_typeINS_12basic_stringIcNS_11char_traitsIcEENS_9allocatorIcEEEEiEEPvEEEptEv(%"class.std::__1::__hash_const_iterator"* nonnull align 8 dereferenceable(8) %4), !dbg !8108
  %6 = call nonnull align 8 dereferenceable(28) %"struct.std::__1::pair"* @_ZNKSt3__117__hash_value_typeINS_12basic_stringIcNS_11char_traitsIcEENS_9allocatorIcEEEEiE11__get_valueEv(%"struct.std::__1::__hash_value_type"* nonnull align 8 dereferenceable(32) %5), !dbg !8109
  ret %"struct.std::__1::pair"* %6, !dbg !8110
}

; Function Attrs: mustprogress noinline optnone ssp uwtable
define linkonce_odr hidden nonnull align 8 dereferenceable(8) %"class.std::__1::__hash_map_const_iterator"* @_ZNSt3__125__hash_map_const_iteratorINS_21__hash_const_iteratorIPNS_11__hash_nodeINS_17__hash_value_typeINS_12basic_stringIcNS_11char_traitsIcEENS_9allocatorIcEEEEiEEPvEEEEEppEv(%"class.std::__1::__hash_map_const_iterator"* nonnull align 8 dereferenceable(8) %0) #2 align 2 !dbg !8111 {
  %2 = alloca %"class.std::__1::__hash_map_const_iterator"*, align 8
  store %"class.std::__1::__hash_map_const_iterator"* %0, %"class.std::__1::__hash_map_const_iterator"** %2, align 8
  call void @llvm.dbg.declare(metadata %"class.std::__1::__hash_map_const_iterator"** %2, metadata !8112, metadata !DIExpression()), !dbg !8114
  %3 = load %"class.std::__1::__hash_map_const_iterator"*, %"class.std::__1::__hash_map_const_iterator"** %2, align 8
  %4 = getelementptr inbounds %"class.std::__1::__hash_map_const_iterator", %"class.std::__1::__hash_map_const_iterator"* %3, i32 0, i32 0, !dbg !8115
  %5 = call nonnull align 8 dereferenceable(8) %"class.std::__1::__hash_const_iterator"* @_ZNSt3__121__hash_const_iteratorIPNS_11__hash_nodeINS_17__hash_value_typeINS_12basic_stringIcNS_11char_traitsIcEENS_9allocatorIcEEEEiEEPvEEEppEv(%"class.std::__1::__hash_const_iterator"* nonnull align 8 dereferenceable(8) %4), !dbg !8116
  ret %"class.std::__1::__hash_map_const_iterator"* %3, !dbg !8117
}

; Function Attrs: mustprogress noinline optnone ssp uwtable
define void @_ZN10INTERFACES24displayInterfaceRegisterEPNS_18interfaceRegistersE(%class.INTERFACES* nonnull align 8 dereferenceable(48) %0, %"struct.INTERFACES::interfaceRegisters"* %1) #2 align 2 personality i8* bitcast (i32 (...)* @__gxx_personality_v0 to i8*) !dbg !8118 {
  %3 = alloca %class.INTERFACES*, align 8
  %4 = alloca %"struct.INTERFACES::interfaceRegisters"*, align 8
  %5 = alloca %"class.std::__1::basic_string", align 8
  %6 = alloca %"class.std::__1::basic_string", align 8
  %7 = alloca %"class.std::__1::basic_string", align 8
  %8 = alloca %"class.std::__1::basic_string", align 8
  %9 = alloca %"class.std::__1::basic_string", align 8
  %10 = alloca i8*, align 8
  %11 = alloca i32, align 4
  %12 = alloca %"class.std::__1::basic_string", align 8
  store %class.INTERFACES* %0, %class.INTERFACES** %3, align 8
  call void @llvm.dbg.declare(metadata %class.INTERFACES** %3, metadata !8119, metadata !DIExpression()), !dbg !8120
  store %"struct.INTERFACES::interfaceRegisters"* %1, %"struct.INTERFACES::interfaceRegisters"** %4, align 8
  call void @llvm.dbg.declare(metadata %"struct.INTERFACES::interfaceRegisters"** %4, metadata !8121, metadata !DIExpression()), !dbg !8122
  %13 = load %class.INTERFACES*, %class.INTERFACES** %3, align 8
  call void @llvm.dbg.declare(metadata %"class.std::__1::basic_string"* %5, metadata !8123, metadata !DIExpression()), !dbg !8124
  %14 = load %"struct.INTERFACES::interfaceRegisters"*, %"struct.INTERFACES::interfaceRegisters"** %4, align 8, !dbg !8125
  %15 = getelementptr inbounds %"struct.INTERFACES::interfaceRegisters", %"struct.INTERFACES::interfaceRegisters"* %14, i32 0, i32 0, !dbg !8126
  call void @_ZNSt3__1plIcNS_11char_traitsIcEENS_9allocatorIcEEEENS_12basic_stringIT_T0_T1_EERKS9_PKS6_(%"class.std::__1::basic_string"* sret(%"class.std::__1::basic_string") align 8 %9, %"class.std::__1::basic_string"* nonnull align 8 dereferenceable(24) %15, i8* getelementptr inbounds ([13 x i8], [13 x i8]* @.str.12, i64 0, i64 0)), !dbg !8127
  %16 = load %"struct.INTERFACES::interfaceRegisters"*, %"struct.INTERFACES::interfaceRegisters"** %4, align 8, !dbg !8128
  %17 = getelementptr inbounds %"struct.INTERFACES::interfaceRegisters", %"struct.INTERFACES::interfaceRegisters"* %16, i32 0, i32 1, !dbg !8129
  invoke void @_ZNSt3__1plIcNS_11char_traitsIcEENS_9allocatorIcEEEENS_12basic_stringIT_T0_T1_EEOS9_RKS9_(%"class.std::__1::basic_string"* sret(%"class.std::__1::basic_string") align 8 %8, %"class.std::__1::basic_string"* nonnull align 8 dereferenceable(24) %9, %"class.std::__1::basic_string"* nonnull align 8 dereferenceable(24) %17)
          to label %18 unwind label %26, !dbg !8130

18:                                               ; preds = %2
  invoke void @_ZNSt3__1plIcNS_11char_traitsIcEENS_9allocatorIcEEEENS_12basic_stringIT_T0_T1_EEOS9_PKS6_(%"class.std::__1::basic_string"* sret(%"class.std::__1::basic_string") align 8 %7, %"class.std::__1::basic_string"* nonnull align 8 dereferenceable(24) %8, i8* getelementptr inbounds ([4 x i8], [4 x i8]* @.str.13, i64 0, i64 0))
          to label %19 unwind label %30, !dbg !8131

19:                                               ; preds = %18
  invoke void @_ZNSt3__1plIcNS_11char_traitsIcEENS_9allocatorIcEEEENS_12basic_stringIT_T0_T1_EEOS9_PKS6_(%"class.std::__1::basic_string"* sret(%"class.std::__1::basic_string") align 8 %6, %"class.std::__1::basic_string"* nonnull align 8 dereferenceable(24) %7, i8* getelementptr inbounds ([8 x i8], [8 x i8]* @.str.14, i64 0, i64 0))
          to label %20 unwind label %34, !dbg !8132

20:                                               ; preds = %19
  %21 = load %"struct.INTERFACES::interfaceRegisters"*, %"struct.INTERFACES::interfaceRegisters"** %4, align 8, !dbg !8133
  %22 = getelementptr inbounds %"struct.INTERFACES::interfaceRegisters", %"struct.INTERFACES::interfaceRegisters"* %21, i32 0, i32 2, !dbg !8134
  %23 = load i32, i32* %22, align 8, !dbg !8134
  invoke void @_ZNSt3__19to_stringEi(%"class.std::__1::basic_string"* sret(%"class.std::__1::basic_string") align 8 %12, i32 %23)
          to label %24 unwind label %38, !dbg !8135

24:                                               ; preds = %20
  invoke void @_ZNSt3__1plIcNS_11char_traitsIcEENS_9allocatorIcEEEENS_12basic_stringIT_T0_T1_EEOS9_SA_(%"class.std::__1::basic_string"* sret(%"class.std::__1::basic_string") align 8 %5, %"class.std::__1::basic_string"* nonnull align 8 dereferenceable(24) %6, %"class.std::__1::basic_string"* nonnull align 8 dereferenceable(24) %12)
          to label %25 unwind label %42, !dbg !8136

25:                                               ; preds = %24
  call void @_ZNSt3__112basic_stringIcNS_11char_traitsIcEENS_9allocatorIcEEED1Ev(%"class.std::__1::basic_string"* nonnull align 8 dereferenceable(24) %12) #19, !dbg !8125
  call void @_ZNSt3__112basic_stringIcNS_11char_traitsIcEENS_9allocatorIcEEED1Ev(%"class.std::__1::basic_string"* nonnull align 8 dereferenceable(24) %6) #19, !dbg !8125
  call void @_ZNSt3__112basic_stringIcNS_11char_traitsIcEENS_9allocatorIcEEED1Ev(%"class.std::__1::basic_string"* nonnull align 8 dereferenceable(24) %7) #19, !dbg !8125
  call void @_ZNSt3__112basic_stringIcNS_11char_traitsIcEENS_9allocatorIcEEED1Ev(%"class.std::__1::basic_string"* nonnull align 8 dereferenceable(24) %8) #19, !dbg !8125
  call void @_ZNSt3__112basic_stringIcNS_11char_traitsIcEENS_9allocatorIcEEED1Ev(%"class.std::__1::basic_string"* nonnull align 8 dereferenceable(24) %9) #19, !dbg !8125
  call void @_ZNSt3__112basic_stringIcNS_11char_traitsIcEENS_9allocatorIcEEED1Ev(%"class.std::__1::basic_string"* nonnull align 8 dereferenceable(24) %5) #19, !dbg !8137
  ret void, !dbg !8137

26:                                               ; preds = %2
  %27 = landingpad { i8*, i32 }
          cleanup, !dbg !8137
  %28 = extractvalue { i8*, i32 } %27, 0, !dbg !8137
  store i8* %28, i8** %10, align 8, !dbg !8137
  %29 = extractvalue { i8*, i32 } %27, 1, !dbg !8137
  store i32 %29, i32* %11, align 4, !dbg !8137
  br label %49, !dbg !8137

30:                                               ; preds = %18
  %31 = landingpad { i8*, i32 }
          cleanup, !dbg !8137
  %32 = extractvalue { i8*, i32 } %31, 0, !dbg !8137
  store i8* %32, i8** %10, align 8, !dbg !8137
  %33 = extractvalue { i8*, i32 } %31, 1, !dbg !8137
  store i32 %33, i32* %11, align 4, !dbg !8137
  br label %48, !dbg !8137

34:                                               ; preds = %19
  %35 = landingpad { i8*, i32 }
          cleanup, !dbg !8137
  %36 = extractvalue { i8*, i32 } %35, 0, !dbg !8137
  store i8* %36, i8** %10, align 8, !dbg !8137
  %37 = extractvalue { i8*, i32 } %35, 1, !dbg !8137
  store i32 %37, i32* %11, align 4, !dbg !8137
  br label %47, !dbg !8137

38:                                               ; preds = %20
  %39 = landingpad { i8*, i32 }
          cleanup, !dbg !8137
  %40 = extractvalue { i8*, i32 } %39, 0, !dbg !8137
  store i8* %40, i8** %10, align 8, !dbg !8137
  %41 = extractvalue { i8*, i32 } %39, 1, !dbg !8137
  store i32 %41, i32* %11, align 4, !dbg !8137
  br label %46, !dbg !8137

42:                                               ; preds = %24
  %43 = landingpad { i8*, i32 }
          cleanup, !dbg !8137
  %44 = extractvalue { i8*, i32 } %43, 0, !dbg !8137
  store i8* %44, i8** %10, align 8, !dbg !8137
  %45 = extractvalue { i8*, i32 } %43, 1, !dbg !8137
  store i32 %45, i32* %11, align 4, !dbg !8137
  call void @_ZNSt3__112basic_stringIcNS_11char_traitsIcEENS_9allocatorIcEEED1Ev(%"class.std::__1::basic_string"* nonnull align 8 dereferenceable(24) %12) #19, !dbg !8125
  br label %46, !dbg !8125

46:                                               ; preds = %42, %38
  call void @_ZNSt3__112basic_stringIcNS_11char_traitsIcEENS_9allocatorIcEEED1Ev(%"class.std::__1::basic_string"* nonnull align 8 dereferenceable(24) %6) #19, !dbg !8125
  br label %47, !dbg !8125

47:                                               ; preds = %46, %34
  call void @_ZNSt3__112basic_stringIcNS_11char_traitsIcEENS_9allocatorIcEEED1Ev(%"class.std::__1::basic_string"* nonnull align 8 dereferenceable(24) %7) #19, !dbg !8125
  br label %48, !dbg !8125

48:                                               ; preds = %47, %30
  call void @_ZNSt3__112basic_stringIcNS_11char_traitsIcEENS_9allocatorIcEEED1Ev(%"class.std::__1::basic_string"* nonnull align 8 dereferenceable(24) %8) #19, !dbg !8125
  br label %49, !dbg !8125

49:                                               ; preds = %48, %26
  call void @_ZNSt3__112basic_stringIcNS_11char_traitsIcEENS_9allocatorIcEEED1Ev(%"class.std::__1::basic_string"* nonnull align 8 dereferenceable(24) %9) #19, !dbg !8125
  br label %50, !dbg !8125

50:                                               ; preds = %49
  %51 = load i8*, i8** %10, align 8, !dbg !8125
  %52 = load i32, i32* %11, align 4, !dbg !8125
  %53 = insertvalue { i8*, i32 } undef, i8* %51, 0, !dbg !8125
  %54 = insertvalue { i8*, i32 } %53, i32 %52, 1, !dbg !8125
  resume { i8*, i32 } %54, !dbg !8125
}

; Function Attrs: mustprogress noinline optnone ssp uwtable
define linkonce_odr hidden void @_ZNSt3__1plIcNS_11char_traitsIcEENS_9allocatorIcEEEENS_12basic_stringIT_T0_T1_EEOS9_SA_(%"class.std::__1::basic_string"* noalias sret(%"class.std::__1::basic_string") align 8 %0, %"class.std::__1::basic_string"* nonnull align 8 dereferenceable(24) %1, %"class.std::__1::basic_string"* nonnull align 8 dereferenceable(24) %2) #2 !dbg !8138 {
  %4 = alloca i8*, align 8
  %5 = alloca %"class.std::__1::basic_string"*, align 8
  %6 = alloca %"class.std::__1::basic_string"*, align 8
  %7 = bitcast %"class.std::__1::basic_string"* %0 to i8*
  store i8* %7, i8** %4, align 8
  store %"class.std::__1::basic_string"* %1, %"class.std::__1::basic_string"** %5, align 8
  call void @llvm.dbg.declare(metadata %"class.std::__1::basic_string"** %5, metadata !8141, metadata !DIExpression()), !dbg !8142
  store %"class.std::__1::basic_string"* %2, %"class.std::__1::basic_string"** %6, align 8
  call void @llvm.dbg.declare(metadata %"class.std::__1::basic_string"** %6, metadata !8143, metadata !DIExpression()), !dbg !8144
  %8 = load %"class.std::__1::basic_string"*, %"class.std::__1::basic_string"** %5, align 8, !dbg !8145
  %9 = load %"class.std::__1::basic_string"*, %"class.std::__1::basic_string"** %6, align 8, !dbg !8146
  %10 = call nonnull align 8 dereferenceable(24) %"class.std::__1::basic_string"* @_ZNSt3__112basic_stringIcNS_11char_traitsIcEENS_9allocatorIcEEE6appendERKS5_(%"class.std::__1::basic_string"* nonnull align 8 dereferenceable(24) %8, %"class.std::__1::basic_string"* nonnull align 8 dereferenceable(24) %9), !dbg !8147
  %11 = call nonnull align 8 dereferenceable(24) %"class.std::__1::basic_string"* @_ZNSt3__14moveIRNS_12basic_stringIcNS_11char_traitsIcEENS_9allocatorIcEEEEEEONS_16remove_referenceIT_E4typeEOS9_(%"class.std::__1::basic_string"* nonnull align 8 dereferenceable(24) %10) #19, !dbg !8148
  call void @_ZNSt3__112basic_stringIcNS_11char_traitsIcEENS_9allocatorIcEEEC1EOS5_(%"class.std::__1::basic_string"* nonnull align 8 dereferenceable(24) %0, %"class.std::__1::basic_string"* nonnull align 8 dereferenceable(24) %11) #19, !dbg !8148
  ret void, !dbg !8149
}

; Function Attrs: mustprogress noinline optnone ssp uwtable
define linkonce_odr hidden void @_ZNSt3__1plIcNS_11char_traitsIcEENS_9allocatorIcEEEENS_12basic_stringIT_T0_T1_EERKS9_PKS6_(%"class.std::__1::basic_string"* noalias sret(%"class.std::__1::basic_string") align 8 %0, %"class.std::__1::basic_string"* nonnull align 8 dereferenceable(24) %1, i8* %2) #2 personality i8* bitcast (i32 (...)* @__gxx_personality_v0 to i8*) !dbg !8150 {
  %4 = alloca i8*, align 8
  %5 = alloca %"class.std::__1::basic_string"*, align 8
  %6 = alloca i8*, align 8
  %7 = alloca i1, align 1
  %8 = alloca %"class.std::__1::allocator", align 1
  %9 = alloca %"class.std::__1::allocator", align 1
  %10 = alloca i64, align 8
  %11 = alloca i64, align 8
  %12 = alloca i8*, align 8
  %13 = alloca i32, align 4
  %14 = bitcast %"class.std::__1::basic_string"* %0 to i8*
  store i8* %14, i8** %4, align 8
  store %"class.std::__1::basic_string"* %1, %"class.std::__1::basic_string"** %5, align 8
  call void @llvm.dbg.declare(metadata %"class.std::__1::basic_string"** %5, metadata !8153, metadata !DIExpression()), !dbg !8154
  store i8* %2, i8** %6, align 8
  call void @llvm.dbg.declare(metadata i8** %6, metadata !8155, metadata !DIExpression()), !dbg !8156
  store i1 false, i1* %7, align 1, !dbg !8157
  call void @llvm.dbg.declare(metadata i8** %4, metadata !8158, metadata !DIExpression(DW_OP_deref)), !dbg !8159
  %15 = load %"class.std::__1::basic_string"*, %"class.std::__1::basic_string"** %5, align 8, !dbg !8160
  call void @_ZNKSt3__112basic_stringIcNS_11char_traitsIcEENS_9allocatorIcEEE13get_allocatorEv(%"class.std::__1::basic_string"* nonnull align 8 dereferenceable(24) %15) #19, !dbg !8161
  call void @_ZNSt3__112basic_stringIcNS_11char_traitsIcEENS_9allocatorIcEEEC1ERKS4_(%"class.std::__1::basic_string"* nonnull align 8 dereferenceable(24) %0, %"class.std::__1::allocator"* nonnull align 1 dereferenceable(1) %8) #19, !dbg !8159
  call void @llvm.dbg.declare(metadata i64* %10, metadata !8162, metadata !DIExpression()), !dbg !8163
  %16 = load %"class.std::__1::basic_string"*, %"class.std::__1::basic_string"** %5, align 8, !dbg !8164
  %17 = call i64 @_ZNKSt3__112basic_stringIcNS_11char_traitsIcEENS_9allocatorIcEEE4sizeEv(%"class.std::__1::basic_string"* nonnull align 8 dereferenceable(24) %16) #19, !dbg !8165
  store i64 %17, i64* %10, align 8, !dbg !8163
  call void @llvm.dbg.declare(metadata i64* %11, metadata !8166, metadata !DIExpression()), !dbg !8167
  %18 = load i8*, i8** %6, align 8, !dbg !8168
  %19 = call i64 @_ZNSt3__111char_traitsIcE6lengthEPKc(i8* %18) #19, !dbg !8169
  store i64 %19, i64* %11, align 8, !dbg !8167
  %20 = load %"class.std::__1::basic_string"*, %"class.std::__1::basic_string"** %5, align 8, !dbg !8170
  %21 = call i8* @_ZNKSt3__112basic_stringIcNS_11char_traitsIcEENS_9allocatorIcEEE4dataEv(%"class.std::__1::basic_string"* nonnull align 8 dereferenceable(24) %20) #19, !dbg !8171
  %22 = load i64, i64* %10, align 8, !dbg !8172
  %23 = load i64, i64* %10, align 8, !dbg !8173
  %24 = load i64, i64* %11, align 8, !dbg !8174
  %25 = add i64 %23, %24, !dbg !8175
  invoke void @_ZNSt3__112basic_stringIcNS_11char_traitsIcEENS_9allocatorIcEEE6__initEPKcmm(%"class.std::__1::basic_string"* nonnull align 8 dereferenceable(24) %0, i8* %21, i64 %22, i64 %25)
          to label %26 unwind label %32, !dbg !8176

26:                                               ; preds = %3
  %27 = load i8*, i8** %6, align 8, !dbg !8177
  %28 = load i64, i64* %11, align 8, !dbg !8178
  %29 = invoke nonnull align 8 dereferenceable(24) %"class.std::__1::basic_string"* @_ZNSt3__112basic_stringIcNS_11char_traitsIcEENS_9allocatorIcEEE6appendEPKcm(%"class.std::__1::basic_string"* nonnull align 8 dereferenceable(24) %0, i8* %27, i64 %28)
          to label %30 unwind label %32, !dbg !8179

30:                                               ; preds = %26
  store i1 true, i1* %7, align 1, !dbg !8180
  %31 = load i1, i1* %7, align 1, !dbg !8181
  br i1 %31, label %37, label %36, !dbg !8181

32:                                               ; preds = %26, %3
  %33 = landingpad { i8*, i32 }
          cleanup, !dbg !8181
  %34 = extractvalue { i8*, i32 } %33, 0, !dbg !8181
  store i8* %34, i8** %12, align 8, !dbg !8181
  %35 = extractvalue { i8*, i32 } %33, 1, !dbg !8181
  store i32 %35, i32* %13, align 4, !dbg !8181
  call void @_ZNSt3__112basic_stringIcNS_11char_traitsIcEENS_9allocatorIcEEED1Ev(%"class.std::__1::basic_string"* nonnull align 8 dereferenceable(24) %0) #19, !dbg !8181
  br label %38, !dbg !8181

36:                                               ; preds = %30
  call void @_ZNSt3__112basic_stringIcNS_11char_traitsIcEENS_9allocatorIcEEED1Ev(%"class.std::__1::basic_string"* nonnull align 8 dereferenceable(24) %0) #19, !dbg !8181
  br label %37, !dbg !8181

37:                                               ; preds = %36, %30
  ret void, !dbg !8181

38:                                               ; preds = %32
  %39 = load i8*, i8** %12, align 8, !dbg !8181
  %40 = load i32, i32* %13, align 4, !dbg !8181
  %41 = insertvalue { i8*, i32 } undef, i8* %39, 0, !dbg !8181
  %42 = insertvalue { i8*, i32 } %41, i32 %40, 1, !dbg !8181
  resume { i8*, i32 } %42, !dbg !8181
}

; Function Attrs: mustprogress noinline nounwind optnone ssp uwtable
define i32 @_ZN10INTERFACES23queryInterfaceRegistersEPNS_18interfaceRegistersE(%class.INTERFACES* nonnull align 8 dereferenceable(48) %0, %"struct.INTERFACES::interfaceRegisters"* %1) #0 align 2 !dbg !8182 {
  %3 = alloca %class.INTERFACES*, align 8
  %4 = alloca %"struct.INTERFACES::interfaceRegisters"*, align 8
  store %class.INTERFACES* %0, %class.INTERFACES** %3, align 8
  call void @llvm.dbg.declare(metadata %class.INTERFACES** %3, metadata !8183, metadata !DIExpression()), !dbg !8184
  store %"struct.INTERFACES::interfaceRegisters"* %1, %"struct.INTERFACES::interfaceRegisters"** %4, align 8
  call void @llvm.dbg.declare(metadata %"struct.INTERFACES::interfaceRegisters"** %4, metadata !8185, metadata !DIExpression()), !dbg !8186
  %5 = load %class.INTERFACES*, %class.INTERFACES** %3, align 8
  %6 = load %"struct.INTERFACES::interfaceRegisters"*, %"struct.INTERFACES::interfaceRegisters"** %4, align 8, !dbg !8187
  %7 = getelementptr inbounds %"struct.INTERFACES::interfaceRegisters", %"struct.INTERFACES::interfaceRegisters"* %6, i32 0, i32 2, !dbg !8188
  %8 = load i32, i32* %7, align 8, !dbg !8188
  ret i32 %8, !dbg !8189
}

; Function Attrs: mustprogress noinline nounwind optnone ssp uwtable
define void @_ZN10INTERFACES28writeToSelfInterfaceRegisterEPNS_18interfaceRegistersEi(%class.INTERFACES* nonnull align 8 dereferenceable(48) %0, %"struct.INTERFACES::interfaceRegisters"* %1, i32 %2) #0 align 2 !dbg !8190 {
  %4 = alloca %class.INTERFACES*, align 8
  %5 = alloca %"struct.INTERFACES::interfaceRegisters"*, align 8
  %6 = alloca i32, align 4
  store %class.INTERFACES* %0, %class.INTERFACES** %4, align 8
  call void @llvm.dbg.declare(metadata %class.INTERFACES** %4, metadata !8191, metadata !DIExpression()), !dbg !8192
  store %"struct.INTERFACES::interfaceRegisters"* %1, %"struct.INTERFACES::interfaceRegisters"** %5, align 8
  call void @llvm.dbg.declare(metadata %"struct.INTERFACES::interfaceRegisters"** %5, metadata !8193, metadata !DIExpression()), !dbg !8194
  store i32 %2, i32* %6, align 4
  call void @llvm.dbg.declare(metadata i32* %6, metadata !8195, metadata !DIExpression()), !dbg !8196
  %7 = load %class.INTERFACES*, %class.INTERFACES** %4, align 8
  %8 = load i32, i32* %6, align 4, !dbg !8197
  %9 = load %"struct.INTERFACES::interfaceRegisters"*, %"struct.INTERFACES::interfaceRegisters"** %5, align 8, !dbg !8198
  %10 = getelementptr inbounds %"struct.INTERFACES::interfaceRegisters", %"struct.INTERFACES::interfaceRegisters"* %9, i32 0, i32 2, !dbg !8199
  store i32 %8, i32* %10, align 8, !dbg !8200
  ret void, !dbg !8201
}

; Function Attrs: mustprogress noinline optnone ssp uwtable
define void @_ZN10INTERFACES30updateDirSelfInterfaceRegisterEPNS_18interfaceRegistersENSt3__112basic_stringIcNS2_11char_traitsIcEENS2_9allocatorIcEEEE(%class.INTERFACES* nonnull align 8 dereferenceable(48) %0, %"struct.INTERFACES::interfaceRegisters"* %1, %"class.std::__1::basic_string"* %2) #2 align 2 !dbg !8202 {
  %4 = alloca %class.INTERFACES*, align 8
  %5 = alloca %"struct.INTERFACES::interfaceRegisters"*, align 8
  store %class.INTERFACES* %0, %class.INTERFACES** %4, align 8
  call void @llvm.dbg.declare(metadata %class.INTERFACES** %4, metadata !8203, metadata !DIExpression()), !dbg !8204
  store %"struct.INTERFACES::interfaceRegisters"* %1, %"struct.INTERFACES::interfaceRegisters"** %5, align 8
  call void @llvm.dbg.declare(metadata %"struct.INTERFACES::interfaceRegisters"** %5, metadata !8205, metadata !DIExpression()), !dbg !8206
  call void @llvm.dbg.declare(metadata %"class.std::__1::basic_string"* %2, metadata !8207, metadata !DIExpression()), !dbg !8208
  %6 = load %class.INTERFACES*, %class.INTERFACES** %4, align 8
  %7 = load %"struct.INTERFACES::interfaceRegisters"*, %"struct.INTERFACES::interfaceRegisters"** %5, align 8, !dbg !8209
  %8 = getelementptr inbounds %"struct.INTERFACES::interfaceRegisters", %"struct.INTERFACES::interfaceRegisters"* %7, i32 0, i32 1, !dbg !8210
  %9 = call nonnull align 8 dereferenceable(24) %"class.std::__1::basic_string"* @_ZNSt3__112basic_stringIcNS_11char_traitsIcEENS_9allocatorIcEEEaSERKS5_(%"class.std::__1::basic_string"* nonnull align 8 dereferenceable(24) %8, %"class.std::__1::basic_string"* nonnull align 8 dereferenceable(24) %2), !dbg !8211
  ret void, !dbg !8212
}

declare nonnull align 8 dereferenceable(24) %"class.std::__1::basic_string"* @_ZNSt3__112basic_stringIcNS_11char_traitsIcEENS_9allocatorIcEEEaSERKS5_(%"class.std::__1::basic_string"* nonnull align 8 dereferenceable(24), %"class.std::__1::basic_string"* nonnull align 8 dereferenceable(24)) #3

; Function Attrs: mustprogress noinline optnone ssp uwtable
define void @_ZN10INTERFACES27writeToExtInterfaceRegisterEPNS_18interfaceRegistersEi(%class.INTERFACES* nonnull align 8 dereferenceable(48) %0, %"struct.INTERFACES::interfaceRegisters"* %1, i32 %2) #2 align 2 personality i8* bitcast (i32 (...)* @__gxx_personality_v0 to i8*) !dbg !8213 {
  %4 = alloca %class.INTERFACES*, align 8
  %5 = alloca %"struct.INTERFACES::interfaceRegisters"*, align 8
  %6 = alloca i32, align 4
  %7 = alloca %"class.std::__1::basic_string", align 8
  %8 = alloca %"class.std::__1::basic_string", align 8
  %9 = alloca %"class.std::__1::basic_string", align 8
  %10 = alloca i8*, align 8
  %11 = alloca i32, align 4
  %12 = alloca %"class.std::__1::basic_string", align 8
  %13 = alloca %"class.std::__1::basic_string", align 8
  %14 = alloca %"class.std::__1::basic_string", align 8
  store %class.INTERFACES* %0, %class.INTERFACES** %4, align 8
  call void @llvm.dbg.declare(metadata %class.INTERFACES** %4, metadata !8214, metadata !DIExpression()), !dbg !8215
  store %"struct.INTERFACES::interfaceRegisters"* %1, %"struct.INTERFACES::interfaceRegisters"** %5, align 8
  call void @llvm.dbg.declare(metadata %"struct.INTERFACES::interfaceRegisters"** %5, metadata !8216, metadata !DIExpression()), !dbg !8217
  store i32 %2, i32* %6, align 4
  call void @llvm.dbg.declare(metadata i32* %6, metadata !8218, metadata !DIExpression()), !dbg !8219
  %15 = load %class.INTERFACES*, %class.INTERFACES** %4, align 8
  %16 = load %"struct.INTERFACES::interfaceRegisters"*, %"struct.INTERFACES::interfaceRegisters"** %5, align 8, !dbg !8220
  %17 = getelementptr inbounds %"struct.INTERFACES::interfaceRegisters", %"struct.INTERFACES::interfaceRegisters"* %16, i32 0, i32 1, !dbg !8222
  %18 = call zeroext i1 @_ZNSt3__1eqIcNS_11char_traitsIcEENS_9allocatorIcEEEEbRKNS_12basic_stringIT_T0_T1_EEPKS6_(%"class.std::__1::basic_string"* nonnull align 8 dereferenceable(24) %17, i8* getelementptr inbounds ([6 x i8], [6 x i8]* @.str.15, i64 0, i64 0)) #19, !dbg !8223
  br i1 %18, label %19, label %36, !dbg !8224

19:                                               ; preds = %3
  call void @llvm.dbg.declare(metadata %"class.std::__1::basic_string"* %7, metadata !8225, metadata !DIExpression()), !dbg !8227
  %20 = load %"struct.INTERFACES::interfaceRegisters"*, %"struct.INTERFACES::interfaceRegisters"** %5, align 8, !dbg !8228
  %21 = getelementptr inbounds %"struct.INTERFACES::interfaceRegisters", %"struct.INTERFACES::interfaceRegisters"* %20, i32 0, i32 0, !dbg !8229
  call void @_ZNSt3__1plIcNS_11char_traitsIcEENS_9allocatorIcEEEENS_12basic_stringIT_T0_T1_EEPKS6_RKS9_(%"class.std::__1::basic_string"* sret(%"class.std::__1::basic_string") align 8 %9, i8* getelementptr inbounds ([9 x i8], [9 x i8]* @.str.16, i64 0, i64 0), %"class.std::__1::basic_string"* nonnull align 8 dereferenceable(24) %21), !dbg !8230
  invoke void @_ZNSt3__1plIcNS_11char_traitsIcEENS_9allocatorIcEEEENS_12basic_stringIT_T0_T1_EEOS9_PKS6_(%"class.std::__1::basic_string"* sret(%"class.std::__1::basic_string") align 8 %8, %"class.std::__1::basic_string"* nonnull align 8 dereferenceable(24) %9, i8* getelementptr inbounds ([15 x i8], [15 x i8]* @.str.17, i64 0, i64 0))
          to label %22 unwind label %27, !dbg !8231

22:                                               ; preds = %19
  invoke void @_ZNSt3__1plIcNS_11char_traitsIcEENS_9allocatorIcEEEENS_12basic_stringIT_T0_T1_EEOS9_PKS6_(%"class.std::__1::basic_string"* sret(%"class.std::__1::basic_string") align 8 %7, %"class.std::__1::basic_string"* nonnull align 8 dereferenceable(24) %8, i8* getelementptr inbounds ([40 x i8], [40 x i8]* @.str.18, i64 0, i64 0))
          to label %23 unwind label %31, !dbg !8232

23:                                               ; preds = %22
  call void @_ZNSt3__112basic_stringIcNS_11char_traitsIcEENS_9allocatorIcEEED1Ev(%"class.std::__1::basic_string"* nonnull align 8 dereferenceable(24) %8) #19, !dbg !8233
  call void @_ZNSt3__112basic_stringIcNS_11char_traitsIcEENS_9allocatorIcEEED1Ev(%"class.std::__1::basic_string"* nonnull align 8 dereferenceable(24) %9) #19, !dbg !8233
  %24 = load i32, i32* %6, align 4, !dbg !8234
  %25 = load %"struct.INTERFACES::interfaceRegisters"*, %"struct.INTERFACES::interfaceRegisters"** %5, align 8, !dbg !8235
  %26 = getelementptr inbounds %"struct.INTERFACES::interfaceRegisters", %"struct.INTERFACES::interfaceRegisters"* %25, i32 0, i32 2, !dbg !8236
  store i32 %24, i32* %26, align 8, !dbg !8237
  call void @_ZNSt3__112basic_stringIcNS_11char_traitsIcEENS_9allocatorIcEEED1Ev(%"class.std::__1::basic_string"* nonnull align 8 dereferenceable(24) %7) #19, !dbg !8238
  br label %50, !dbg !8239

27:                                               ; preds = %19
  %28 = landingpad { i8*, i32 }
          cleanup, !dbg !8240
  %29 = extractvalue { i8*, i32 } %28, 0, !dbg !8240
  store i8* %29, i8** %10, align 8, !dbg !8240
  %30 = extractvalue { i8*, i32 } %28, 1, !dbg !8240
  store i32 %30, i32* %11, align 4, !dbg !8240
  br label %35, !dbg !8240

31:                                               ; preds = %22
  %32 = landingpad { i8*, i32 }
          cleanup, !dbg !8240
  %33 = extractvalue { i8*, i32 } %32, 0, !dbg !8240
  store i8* %33, i8** %10, align 8, !dbg !8240
  %34 = extractvalue { i8*, i32 } %32, 1, !dbg !8240
  store i32 %34, i32* %11, align 4, !dbg !8240
  call void @_ZNSt3__112basic_stringIcNS_11char_traitsIcEENS_9allocatorIcEEED1Ev(%"class.std::__1::basic_string"* nonnull align 8 dereferenceable(24) %8) #19, !dbg !8233
  br label %35, !dbg !8233

35:                                               ; preds = %31, %27
  call void @_ZNSt3__112basic_stringIcNS_11char_traitsIcEENS_9allocatorIcEEED1Ev(%"class.std::__1::basic_string"* nonnull align 8 dereferenceable(24) %9) #19, !dbg !8233
  br label %51, !dbg !8233

36:                                               ; preds = %3
  call void @llvm.dbg.declare(metadata %"class.std::__1::basic_string"* %12, metadata !8241, metadata !DIExpression()), !dbg !8243
  %37 = load %"struct.INTERFACES::interfaceRegisters"*, %"struct.INTERFACES::interfaceRegisters"** %5, align 8, !dbg !8244
  %38 = getelementptr inbounds %"struct.INTERFACES::interfaceRegisters", %"struct.INTERFACES::interfaceRegisters"* %37, i32 0, i32 0, !dbg !8245
  call void @_ZNSt3__1plIcNS_11char_traitsIcEENS_9allocatorIcEEEENS_12basic_stringIT_T0_T1_EEPKS6_RKS9_(%"class.std::__1::basic_string"* sret(%"class.std::__1::basic_string") align 8 %14, i8* getelementptr inbounds ([9 x i8], [9 x i8]* @.str.16, i64 0, i64 0), %"class.std::__1::basic_string"* nonnull align 8 dereferenceable(24) %38), !dbg !8246
  invoke void @_ZNSt3__1plIcNS_11char_traitsIcEENS_9allocatorIcEEEENS_12basic_stringIT_T0_T1_EEOS9_PKS6_(%"class.std::__1::basic_string"* sret(%"class.std::__1::basic_string") align 8 %13, %"class.std::__1::basic_string"* nonnull align 8 dereferenceable(24) %14, i8* getelementptr inbounds ([15 x i8], [15 x i8]* @.str.17, i64 0, i64 0))
          to label %39 unwind label %41, !dbg !8247

39:                                               ; preds = %36
  invoke void @_ZNSt3__1plIcNS_11char_traitsIcEENS_9allocatorIcEEEENS_12basic_stringIT_T0_T1_EEOS9_PKS6_(%"class.std::__1::basic_string"* sret(%"class.std::__1::basic_string") align 8 %12, %"class.std::__1::basic_string"* nonnull align 8 dereferenceable(24) %13, i8* getelementptr inbounds ([39 x i8], [39 x i8]* @.str.19, i64 0, i64 0))
          to label %40 unwind label %45, !dbg !8248

40:                                               ; preds = %39
  call void @_ZNSt3__112basic_stringIcNS_11char_traitsIcEENS_9allocatorIcEEED1Ev(%"class.std::__1::basic_string"* nonnull align 8 dereferenceable(24) %13) #19, !dbg !8249
  call void @_ZNSt3__112basic_stringIcNS_11char_traitsIcEENS_9allocatorIcEEED1Ev(%"class.std::__1::basic_string"* nonnull align 8 dereferenceable(24) %14) #19, !dbg !8249
  call void @_ZNSt3__112basic_stringIcNS_11char_traitsIcEENS_9allocatorIcEEED1Ev(%"class.std::__1::basic_string"* nonnull align 8 dereferenceable(24) %12) #19, !dbg !8250
  br label %50

41:                                               ; preds = %36
  %42 = landingpad { i8*, i32 }
          cleanup, !dbg !8251
  %43 = extractvalue { i8*, i32 } %42, 0, !dbg !8251
  store i8* %43, i8** %10, align 8, !dbg !8251
  %44 = extractvalue { i8*, i32 } %42, 1, !dbg !8251
  store i32 %44, i32* %11, align 4, !dbg !8251
  br label %49, !dbg !8251

45:                                               ; preds = %39
  %46 = landingpad { i8*, i32 }
          cleanup, !dbg !8251
  %47 = extractvalue { i8*, i32 } %46, 0, !dbg !8251
  store i8* %47, i8** %10, align 8, !dbg !8251
  %48 = extractvalue { i8*, i32 } %46, 1, !dbg !8251
  store i32 %48, i32* %11, align 4, !dbg !8251
  call void @_ZNSt3__112basic_stringIcNS_11char_traitsIcEENS_9allocatorIcEEED1Ev(%"class.std::__1::basic_string"* nonnull align 8 dereferenceable(24) %13) #19, !dbg !8249
  br label %49, !dbg !8249

49:                                               ; preds = %45, %41
  call void @_ZNSt3__112basic_stringIcNS_11char_traitsIcEENS_9allocatorIcEEED1Ev(%"class.std::__1::basic_string"* nonnull align 8 dereferenceable(24) %14) #19, !dbg !8249
  br label %51, !dbg !8249

50:                                               ; preds = %40, %23
  ret void, !dbg !8252

51:                                               ; preds = %49, %35
  %52 = load i8*, i8** %10, align 8, !dbg !8233
  %53 = load i32, i32* %11, align 4, !dbg !8233
  %54 = insertvalue { i8*, i32 } undef, i8* %52, 0, !dbg !8233
  %55 = insertvalue { i8*, i32 } %54, i32 %53, 1, !dbg !8233
  resume { i8*, i32 } %55, !dbg !8233
}

; Function Attrs: mustprogress noinline nounwind optnone ssp uwtable
define linkonce_odr hidden zeroext i1 @_ZNSt3__1eqIcNS_11char_traitsIcEENS_9allocatorIcEEEEbRKNS_12basic_stringIT_T0_T1_EEPKS6_(%"class.std::__1::basic_string"* nonnull align 8 dereferenceable(24) %0, i8* %1) #0 personality i8* bitcast (i32 (...)* @__gxx_personality_v0 to i8*) !dbg !8253 {
  %3 = alloca i1, align 1
  %4 = alloca %"class.std::__1::basic_string"*, align 8
  %5 = alloca i8*, align 8
  %6 = alloca i64, align 8
  store %"class.std::__1::basic_string"* %0, %"class.std::__1::basic_string"** %4, align 8
  call void @llvm.dbg.declare(metadata %"class.std::__1::basic_string"** %4, metadata !8256, metadata !DIExpression()), !dbg !8257
  store i8* %1, i8** %5, align 8
  call void @llvm.dbg.declare(metadata i8** %5, metadata !8258, metadata !DIExpression()), !dbg !8259
  call void @llvm.dbg.declare(metadata i64* %6, metadata !8260, metadata !DIExpression()), !dbg !8261
  %7 = load i8*, i8** %5, align 8, !dbg !8262
  %8 = call i64 @_ZNSt3__111char_traitsIcE6lengthEPKc(i8* %7) #19, !dbg !8263
  store i64 %8, i64* %6, align 8, !dbg !8261
  %9 = load i64, i64* %6, align 8, !dbg !8264
  %10 = load %"class.std::__1::basic_string"*, %"class.std::__1::basic_string"** %4, align 8, !dbg !8266
  %11 = call i64 @_ZNKSt3__112basic_stringIcNS_11char_traitsIcEENS_9allocatorIcEEE4sizeEv(%"class.std::__1::basic_string"* nonnull align 8 dereferenceable(24) %10) #19, !dbg !8267
  %12 = icmp ne i64 %9, %11, !dbg !8268
  br i1 %12, label %13, label %14, !dbg !8269

13:                                               ; preds = %2
  store i1 false, i1* %3, align 1, !dbg !8270
  br label %21, !dbg !8270

14:                                               ; preds = %2
  %15 = load %"class.std::__1::basic_string"*, %"class.std::__1::basic_string"** %4, align 8, !dbg !8271
  %16 = load i8*, i8** %5, align 8, !dbg !8272
  %17 = load i64, i64* %6, align 8, !dbg !8273
  %18 = invoke i32 @_ZNKSt3__112basic_stringIcNS_11char_traitsIcEENS_9allocatorIcEEE7compareEmmPKcm(%"class.std::__1::basic_string"* nonnull align 8 dereferenceable(24) %15, i64 0, i64 -1, i8* %16, i64 %17)
          to label %19 unwind label %23, !dbg !8274

19:                                               ; preds = %14
  %20 = icmp eq i32 %18, 0, !dbg !8275
  store i1 %20, i1* %3, align 1, !dbg !8276
  br label %21, !dbg !8276

21:                                               ; preds = %19, %13
  %22 = load i1, i1* %3, align 1, !dbg !8277
  ret i1 %22, !dbg !8277

23:                                               ; preds = %14
  %24 = landingpad { i8*, i32 }
          catch i8* null, !dbg !8274
  %25 = extractvalue { i8*, i32 } %24, 0, !dbg !8274
  call void @__clang_call_terminate(i8* %25) #21, !dbg !8274
  unreachable, !dbg !8274
}

; Function Attrs: mustprogress noinline optnone ssp uwtable
define void @_ZN10INTERFACES9mergeMapsERNSt3__18multimapINS0_12basic_stringIcNS0_11char_traitsIcEENS0_9allocatorIcEEEEiNS0_4lessIS7_EENS5_INS0_4pairIKS7_iEEEEEESF_(%class.INTERFACES* nonnull align 8 dereferenceable(48) %0, %"class.std::__1::multimap"* nonnull align 8 dereferenceable(24) %1, %"class.std::__1::multimap"* nonnull align 8 dereferenceable(24) %2) #2 align 2 !dbg !8278 {
  %4 = alloca %class.INTERFACES*, align 8
  %5 = alloca %"class.std::__1::multimap"*, align 8
  %6 = alloca %"class.std::__1::multimap"*, align 8
  %7 = alloca %"class.std::__1::__map_iterator", align 8
  %8 = alloca %"class.std::__1::__map_iterator", align 8
  store %class.INTERFACES* %0, %class.INTERFACES** %4, align 8
  call void @llvm.dbg.declare(metadata %class.INTERFACES** %4, metadata !8279, metadata !DIExpression()), !dbg !8280
  store %"class.std::__1::multimap"* %1, %"class.std::__1::multimap"** %5, align 8
  call void @llvm.dbg.declare(metadata %"class.std::__1::multimap"** %5, metadata !8281, metadata !DIExpression()), !dbg !8282
  store %"class.std::__1::multimap"* %2, %"class.std::__1::multimap"** %6, align 8
  call void @llvm.dbg.declare(metadata %"class.std::__1::multimap"** %6, metadata !8283, metadata !DIExpression()), !dbg !8284
  %9 = load %class.INTERFACES*, %class.INTERFACES** %4, align 8
  %10 = load %"class.std::__1::multimap"*, %"class.std::__1::multimap"** %5, align 8, !dbg !8285
  %11 = load %"class.std::__1::multimap"*, %"class.std::__1::multimap"** %6, align 8, !dbg !8286
  %12 = call %"class.std::__1::__tree_end_node"* @_ZNSt3__18multimapINS_12basic_stringIcNS_11char_traitsIcEENS_9allocatorIcEEEEiNS_4lessIS6_EENS4_INS_4pairIKS6_iEEEEE5beginEv(%"class.std::__1::multimap"* nonnull align 8 dereferenceable(24) %11) #19, !dbg !8287
  %13 = getelementptr inbounds %"class.std::__1::__map_iterator", %"class.std::__1::__map_iterator"* %7, i32 0, i32 0, !dbg !8287
  %14 = getelementptr inbounds %"class.std::__1::__tree_iterator", %"class.std::__1::__tree_iterator"* %13, i32 0, i32 0, !dbg !8287
  store %"class.std::__1::__tree_end_node"* %12, %"class.std::__1::__tree_end_node"** %14, align 8, !dbg !8287
  %15 = load %"class.std::__1::multimap"*, %"class.std::__1::multimap"** %6, align 8, !dbg !8288
  %16 = call %"class.std::__1::__tree_end_node"* @_ZNSt3__18multimapINS_12basic_stringIcNS_11char_traitsIcEENS_9allocatorIcEEEEiNS_4lessIS6_EENS4_INS_4pairIKS6_iEEEEE3endEv(%"class.std::__1::multimap"* nonnull align 8 dereferenceable(24) %15) #19, !dbg !8289
  %17 = getelementptr inbounds %"class.std::__1::__map_iterator", %"class.std::__1::__map_iterator"* %8, i32 0, i32 0, !dbg !8289
  %18 = getelementptr inbounds %"class.std::__1::__tree_iterator", %"class.std::__1::__tree_iterator"* %17, i32 0, i32 0, !dbg !8289
  store %"class.std::__1::__tree_end_node"* %16, %"class.std::__1::__tree_end_node"** %18, align 8, !dbg !8289
  %19 = getelementptr inbounds %"class.std::__1::__map_iterator", %"class.std::__1::__map_iterator"* %7, i32 0, i32 0, !dbg !8290
  %20 = getelementptr inbounds %"class.std::__1::__tree_iterator", %"class.std::__1::__tree_iterator"* %19, i32 0, i32 0, !dbg !8290
  %21 = load %"class.std::__1::__tree_end_node"*, %"class.std::__1::__tree_end_node"** %20, align 8, !dbg !8290
  %22 = getelementptr inbounds %"class.std::__1::__map_iterator", %"class.std::__1::__map_iterator"* %8, i32 0, i32 0, !dbg !8290
  %23 = getelementptr inbounds %"class.std::__1::__tree_iterator", %"class.std::__1::__tree_iterator"* %22, i32 0, i32 0, !dbg !8290
  %24 = load %"class.std::__1::__tree_end_node"*, %"class.std::__1::__tree_end_node"** %23, align 8, !dbg !8290
  call void @_ZNSt3__18multimapINS_12basic_stringIcNS_11char_traitsIcEENS_9allocatorIcEEEEiNS_4lessIS6_EENS4_INS_4pairIKS6_iEEEEE6insertINS_14__map_iteratorINS_15__tree_iteratorINS_12__value_typeIS6_iEEPNS_11__tree_nodeISI_PvEElEEEEEEvT_SP_(%"class.std::__1::multimap"* nonnull align 8 dereferenceable(24) %10, %"class.std::__1::__tree_end_node"* %21, %"class.std::__1::__tree_end_node"* %24), !dbg !8290
  ret void, !dbg !8291
}

; Function Attrs: mustprogress noinline optnone ssp uwtable
define linkonce_odr void @_ZNSt3__18multimapINS_12basic_stringIcNS_11char_traitsIcEENS_9allocatorIcEEEEiNS_4lessIS6_EENS4_INS_4pairIKS6_iEEEEE6insertINS_14__map_iteratorINS_15__tree_iteratorINS_12__value_typeIS6_iEEPNS_11__tree_nodeISI_PvEElEEEEEEvT_SP_(%"class.std::__1::multimap"* nonnull align 8 dereferenceable(24) %0, %"class.std::__1::__tree_end_node"* %1, %"class.std::__1::__tree_end_node"* %2) #2 align 2 !dbg !8292 {
  %4 = alloca %"class.std::__1::__map_iterator", align 8
  %5 = alloca %"class.std::__1::__map_iterator", align 8
  %6 = alloca %"class.std::__1::multimap"*, align 8
  %7 = alloca %"class.std::__1::__map_const_iterator", align 8
  %8 = alloca %"class.std::__1::__tree_const_iterator", align 8
  %9 = alloca %"class.std::__1::__tree_iterator", align 8
  %10 = getelementptr inbounds %"class.std::__1::__map_iterator", %"class.std::__1::__map_iterator"* %4, i32 0, i32 0
  %11 = getelementptr inbounds %"class.std::__1::__tree_iterator", %"class.std::__1::__tree_iterator"* %10, i32 0, i32 0
  store %"class.std::__1::__tree_end_node"* %1, %"class.std::__1::__tree_end_node"** %11, align 8
  %12 = getelementptr inbounds %"class.std::__1::__map_iterator", %"class.std::__1::__map_iterator"* %5, i32 0, i32 0
  %13 = getelementptr inbounds %"class.std::__1::__tree_iterator", %"class.std::__1::__tree_iterator"* %12, i32 0, i32 0
  store %"class.std::__1::__tree_end_node"* %2, %"class.std::__1::__tree_end_node"** %13, align 8
  store %"class.std::__1::multimap"* %0, %"class.std::__1::multimap"** %6, align 8
  call void @llvm.dbg.declare(metadata %"class.std::__1::multimap"** %6, metadata !8298, metadata !DIExpression()), !dbg !8299
  call void @llvm.dbg.declare(metadata %"class.std::__1::__map_iterator"* %4, metadata !8300, metadata !DIExpression()), !dbg !8301
  call void @llvm.dbg.declare(metadata %"class.std::__1::__map_iterator"* %5, metadata !8302, metadata !DIExpression()), !dbg !8303
  %14 = load %"class.std::__1::multimap"*, %"class.std::__1::multimap"** %6, align 8
  call void @llvm.dbg.declare(metadata %"class.std::__1::__map_const_iterator"* %7, metadata !8304, metadata !DIExpression()), !dbg !8306
  %15 = call %"class.std::__1::__tree_end_node"* @_ZNKSt3__18multimapINS_12basic_stringIcNS_11char_traitsIcEENS_9allocatorIcEEEEiNS_4lessIS6_EENS4_INS_4pairIKS6_iEEEEE4cendEv(%"class.std::__1::multimap"* nonnull align 8 dereferenceable(24) %14) #19, !dbg !8307
  %16 = getelementptr inbounds %"class.std::__1::__map_const_iterator", %"class.std::__1::__map_const_iterator"* %7, i32 0, i32 0, !dbg !8307
  %17 = getelementptr inbounds %"class.std::__1::__tree_const_iterator", %"class.std::__1::__tree_const_iterator"* %16, i32 0, i32 0, !dbg !8307
  store %"class.std::__1::__tree_end_node"* %15, %"class.std::__1::__tree_end_node"** %17, align 8, !dbg !8307
  br label %18, !dbg !8308

18:                                               ; preds = %31, %3
  %19 = call zeroext i1 @_ZNSt3__1neERKNS_14__map_iteratorINS_15__tree_iteratorINS_12__value_typeINS_12basic_stringIcNS_11char_traitsIcEENS_9allocatorIcEEEEiEEPNS_11__tree_nodeIS9_PvEElEEEESH_(%"class.std::__1::__map_iterator"* nonnull align 8 dereferenceable(8) %4, %"class.std::__1::__map_iterator"* nonnull align 8 dereferenceable(8) %5), !dbg !8309
  br i1 %19, label %20, label %33, !dbg !8311

20:                                               ; preds = %18
  %21 = getelementptr inbounds %"class.std::__1::multimap", %"class.std::__1::multimap"* %14, i32 0, i32 0, !dbg !8312
  %22 = getelementptr inbounds %"class.std::__1::__map_const_iterator", %"class.std::__1::__map_const_iterator"* %7, i32 0, i32 0, !dbg !8313
  %23 = bitcast %"class.std::__1::__tree_const_iterator"* %8 to i8*, !dbg !8314
  %24 = bitcast %"class.std::__1::__tree_const_iterator"* %22 to i8*, !dbg !8314
  %25 = call i8* @memcpy(i8* %23, i8* %24, i64 8), !dbg !8314
  %26 = call nonnull align 8 dereferenceable(28) %"struct.std::__1::pair"* @_ZNKSt3__114__map_iteratorINS_15__tree_iteratorINS_12__value_typeINS_12basic_stringIcNS_11char_traitsIcEENS_9allocatorIcEEEEiEEPNS_11__tree_nodeIS9_PvEElEEEdeEv(%"class.std::__1::__map_iterator"* nonnull align 8 dereferenceable(8) %4), !dbg !8315
  %27 = getelementptr inbounds %"class.std::__1::__tree_const_iterator", %"class.std::__1::__tree_const_iterator"* %8, i32 0, i32 0, !dbg !8316
  %28 = load %"class.std::__1::__tree_end_node"*, %"class.std::__1::__tree_end_node"** %27, align 8, !dbg !8316
  %29 = call %"class.std::__1::__tree_end_node"* @_ZNSt3__16__treeINS_12__value_typeINS_12basic_stringIcNS_11char_traitsIcEENS_9allocatorIcEEEEiEENS_19__map_value_compareIS7_S8_NS_4lessIS7_EELb1EEENS5_IS8_EEE14__insert_multiIRNS_4pairIKS7_iEEEENS_15__tree_iteratorIS8_PNS_11__tree_nodeIS8_PvEElEENS_21__tree_const_iteratorIS8_SO_lEEOT_(%"class.std::__1::__tree"* nonnull align 8 dereferenceable(24) %21, %"class.std::__1::__tree_end_node"* %28, %"struct.std::__1::pair"* nonnull align 8 dereferenceable(28) %26), !dbg !8316
  %30 = getelementptr inbounds %"class.std::__1::__tree_iterator", %"class.std::__1::__tree_iterator"* %9, i32 0, i32 0, !dbg !8316
  store %"class.std::__1::__tree_end_node"* %29, %"class.std::__1::__tree_end_node"** %30, align 8, !dbg !8316
  br label %31, !dbg !8312

31:                                               ; preds = %20
  %32 = call nonnull align 8 dereferenceable(8) %"class.std::__1::__map_iterator"* @_ZNSt3__114__map_iteratorINS_15__tree_iteratorINS_12__value_typeINS_12basic_stringIcNS_11char_traitsIcEENS_9allocatorIcEEEEiEEPNS_11__tree_nodeIS9_PvEElEEEppEv(%"class.std::__1::__map_iterator"* nonnull align 8 dereferenceable(8) %4), !dbg !8317
  br label %18, !dbg !8318, !llvm.loop !8319

33:                                               ; preds = %18
  ret void, !dbg !8321
}

; Function Attrs: mustprogress noinline nounwind optnone ssp uwtable
define linkonce_odr hidden %"class.std::__1::__tree_end_node"* @_ZNSt3__18multimapINS_12basic_stringIcNS_11char_traitsIcEENS_9allocatorIcEEEEiNS_4lessIS6_EENS4_INS_4pairIKS6_iEEEEE5beginEv(%"class.std::__1::multimap"* nonnull align 8 dereferenceable(24) %0) #0 align 2 !dbg !8322 {
  %2 = alloca %"class.std::__1::__map_iterator", align 8
  %3 = alloca %"class.std::__1::multimap"*, align 8
  %4 = alloca %"class.std::__1::__tree_iterator", align 8
  store %"class.std::__1::multimap"* %0, %"class.std::__1::multimap"** %3, align 8
  call void @llvm.dbg.declare(metadata %"class.std::__1::multimap"** %3, metadata !8323, metadata !DIExpression()), !dbg !8324
  %5 = load %"class.std::__1::multimap"*, %"class.std::__1::multimap"** %3, align 8
  %6 = getelementptr inbounds %"class.std::__1::multimap", %"class.std::__1::multimap"* %5, i32 0, i32 0, !dbg !8325
  %7 = call %"class.std::__1::__tree_end_node"* @_ZNSt3__16__treeINS_12__value_typeINS_12basic_stringIcNS_11char_traitsIcEENS_9allocatorIcEEEEiEENS_19__map_value_compareIS7_S8_NS_4lessIS7_EELb1EEENS5_IS8_EEE5beginEv(%"class.std::__1::__tree"* nonnull align 8 dereferenceable(24) %6) #19, !dbg !8326
  %8 = getelementptr inbounds %"class.std::__1::__tree_iterator", %"class.std::__1::__tree_iterator"* %4, i32 0, i32 0, !dbg !8326
  store %"class.std::__1::__tree_end_node"* %7, %"class.std::__1::__tree_end_node"** %8, align 8, !dbg !8326
  %9 = getelementptr inbounds %"class.std::__1::__tree_iterator", %"class.std::__1::__tree_iterator"* %4, i32 0, i32 0, !dbg !8325
  %10 = load %"class.std::__1::__tree_end_node"*, %"class.std::__1::__tree_end_node"** %9, align 8, !dbg !8325
  call void @_ZNSt3__114__map_iteratorINS_15__tree_iteratorINS_12__value_typeINS_12basic_stringIcNS_11char_traitsIcEENS_9allocatorIcEEEEiEEPNS_11__tree_nodeIS9_PvEElEEEC1ESE_(%"class.std::__1::__map_iterator"* nonnull align 8 dereferenceable(8) %2, %"class.std::__1::__tree_end_node"* %10) #19, !dbg !8325
  %11 = getelementptr inbounds %"class.std::__1::__map_iterator", %"class.std::__1::__map_iterator"* %2, i32 0, i32 0, !dbg !8327
  %12 = getelementptr inbounds %"class.std::__1::__tree_iterator", %"class.std::__1::__tree_iterator"* %11, i32 0, i32 0, !dbg !8327
  %13 = load %"class.std::__1::__tree_end_node"*, %"class.std::__1::__tree_end_node"** %12, align 8, !dbg !8327
  ret %"class.std::__1::__tree_end_node"* %13, !dbg !8327
}

; Function Attrs: mustprogress noinline nounwind optnone ssp uwtable
define linkonce_odr hidden %"class.std::__1::__tree_end_node"* @_ZNSt3__18multimapINS_12basic_stringIcNS_11char_traitsIcEENS_9allocatorIcEEEEiNS_4lessIS6_EENS4_INS_4pairIKS6_iEEEEE3endEv(%"class.std::__1::multimap"* nonnull align 8 dereferenceable(24) %0) #0 align 2 !dbg !8328 {
  %2 = alloca %"class.std::__1::__map_iterator", align 8
  %3 = alloca %"class.std::__1::multimap"*, align 8
  %4 = alloca %"class.std::__1::__tree_iterator", align 8
  store %"class.std::__1::multimap"* %0, %"class.std::__1::multimap"** %3, align 8
  call void @llvm.dbg.declare(metadata %"class.std::__1::multimap"** %3, metadata !8329, metadata !DIExpression()), !dbg !8330
  %5 = load %"class.std::__1::multimap"*, %"class.std::__1::multimap"** %3, align 8
  %6 = getelementptr inbounds %"class.std::__1::multimap", %"class.std::__1::multimap"* %5, i32 0, i32 0, !dbg !8331
  %7 = call %"class.std::__1::__tree_end_node"* @_ZNSt3__16__treeINS_12__value_typeINS_12basic_stringIcNS_11char_traitsIcEENS_9allocatorIcEEEEiEENS_19__map_value_compareIS7_S8_NS_4lessIS7_EELb1EEENS5_IS8_EEE3endEv(%"class.std::__1::__tree"* nonnull align 8 dereferenceable(24) %6) #19, !dbg !8332
  %8 = getelementptr inbounds %"class.std::__1::__tree_iterator", %"class.std::__1::__tree_iterator"* %4, i32 0, i32 0, !dbg !8332
  store %"class.std::__1::__tree_end_node"* %7, %"class.std::__1::__tree_end_node"** %8, align 8, !dbg !8332
  %9 = getelementptr inbounds %"class.std::__1::__tree_iterator", %"class.std::__1::__tree_iterator"* %4, i32 0, i32 0, !dbg !8331
  %10 = load %"class.std::__1::__tree_end_node"*, %"class.std::__1::__tree_end_node"** %9, align 8, !dbg !8331
  call void @_ZNSt3__114__map_iteratorINS_15__tree_iteratorINS_12__value_typeINS_12basic_stringIcNS_11char_traitsIcEENS_9allocatorIcEEEEiEEPNS_11__tree_nodeIS9_PvEElEEEC1ESE_(%"class.std::__1::__map_iterator"* nonnull align 8 dereferenceable(8) %2, %"class.std::__1::__tree_end_node"* %10) #19, !dbg !8331
  %11 = getelementptr inbounds %"class.std::__1::__map_iterator", %"class.std::__1::__map_iterator"* %2, i32 0, i32 0, !dbg !8333
  %12 = getelementptr inbounds %"class.std::__1::__tree_iterator", %"class.std::__1::__tree_iterator"* %11, i32 0, i32 0, !dbg !8333
  %13 = load %"class.std::__1::__tree_end_node"*, %"class.std::__1::__tree_end_node"** %12, align 8, !dbg !8333
  ret %"class.std::__1::__tree_end_node"* %13, !dbg !8333
}

; Function Attrs: mustprogress noinline optnone ssp uwtable
define void @_ZN10INTERFACES17checkPathCoverageEv(%class.INTERFACES* nonnull align 8 dereferenceable(48) %0) #2 align 2 !dbg !8334 {
  %2 = alloca %class.INTERFACES*, align 8
  store %class.INTERFACES* %0, %class.INTERFACES** %2, align 8
  call void @llvm.dbg.declare(metadata %class.INTERFACES** %2, metadata !8335, metadata !DIExpression()), !dbg !8336
  %3 = load %class.INTERFACES*, %class.INTERFACES** %2, align 8
  %4 = load %"class.std::__1::multimap"*, %"class.std::__1::multimap"** @_ZL15interfaceRegMap, align 8, !dbg !8337
  %5 = load %"class.std::__1::multimap"*, %"class.std::__1::multimap"** @_ZL11sourceIDMap, align 8, !dbg !8338
  call void @_ZN10INTERFACES9mergeMapsERNSt3__18multimapINS0_12basic_stringIcNS0_11char_traitsIcEENS0_9allocatorIcEEEEiNS0_4lessIS7_EENS5_INS0_4pairIKS7_iEEEEEESF_(%class.INTERFACES* nonnull align 8 dereferenceable(48) %3, %"class.std::__1::multimap"* nonnull align 8 dereferenceable(24) %4, %"class.std::__1::multimap"* nonnull align 8 dereferenceable(24) %5), !dbg !8339
  ret void, !dbg !8340
}

; Function Attrs: mustprogress noinline optnone ssp uwtable
define void @_ZN12memory_model16print_memory_valEv(%class.memory_model* nonnull align 8 dereferenceable(113) %0) #2 align 2 !dbg !8341 {
  %2 = alloca %class.memory_model*, align 8
  %3 = alloca i32, align 4
  store %class.memory_model* %0, %class.memory_model** %2, align 8
  call void @llvm.dbg.declare(metadata %class.memory_model** %2, metadata !8342, metadata !DIExpression()), !dbg !8344
  %4 = load %class.memory_model*, %class.memory_model** %2, align 8
  %5 = call i32 (i8*, ...) @printf(i8* getelementptr inbounds ([25 x i8], [25 x i8]* @.str.20, i64 0, i64 0)), !dbg !8345
  call void @llvm.dbg.declare(metadata i32* %3, metadata !8346, metadata !DIExpression()), !dbg !8348
  store i32 0, i32* %3, align 4, !dbg !8348
  br label %6, !dbg !8349

6:                                                ; preds = %19, %1
  %7 = load i32, i32* %3, align 4, !dbg !8350
  %8 = getelementptr inbounds %class.memory_model, %class.memory_model* %4, i32 0, i32 1, !dbg !8352
  %9 = load i32, i32* %8, align 8, !dbg !8352
  %10 = icmp slt i32 %7, %9, !dbg !8353
  br i1 %10, label %11, label %22, !dbg !8354

11:                                               ; preds = %6
  %12 = getelementptr inbounds %class.memory_model, %class.memory_model* %4, i32 0, i32 7, !dbg !8355
  %13 = load i32*, i32** %12, align 8, !dbg !8355
  %14 = load i32, i32* %3, align 4, !dbg !8357
  %15 = sext i32 %14 to i64, !dbg !8355
  %16 = getelementptr inbounds i32, i32* %13, i64 %15, !dbg !8355
  %17 = load i32, i32* %16, align 4, !dbg !8355
  %18 = call i32 (i8*, ...) @printf(i8* getelementptr inbounds ([5 x i8], [5 x i8]* @.str.21, i64 0, i64 0), i32 %17), !dbg !8358
  br label %19, !dbg !8359

19:                                               ; preds = %11
  %20 = load i32, i32* %3, align 4, !dbg !8360
  %21 = add nsw i32 %20, 1, !dbg !8360
  store i32 %21, i32* %3, align 4, !dbg !8360
  br label %6, !dbg !8361, !llvm.loop !8362

22:                                               ; preds = %6
  ret void, !dbg !8364
}

declare i32 @printf(i8*, ...) #3

; Function Attrs: mustprogress noinline optnone ssp uwtable
define i32* @_ZN12memory_model18send_data_from_memEiiii(%class.memory_model* nonnull align 8 dereferenceable(113) %0, i32 %1, i32 %2, i32 %3, i32 %4) #2 align 2 !dbg !8365 {
  %6 = alloca %class.memory_model*, align 8
  %7 = alloca i32, align 4
  %8 = alloca i32, align 4
  %9 = alloca i32, align 4
  %10 = alloca i32, align 4
  %11 = alloca i32, align 4
  %12 = alloca i32*, align 8
  %13 = alloca i32, align 4
  store %class.memory_model* %0, %class.memory_model** %6, align 8
  call void @llvm.dbg.declare(metadata %class.memory_model** %6, metadata !8366, metadata !DIExpression()), !dbg !8367
  store i32 %1, i32* %7, align 4
  call void @llvm.dbg.declare(metadata i32* %7, metadata !8368, metadata !DIExpression()), !dbg !8369
  store i32 %2, i32* %8, align 4
  call void @llvm.dbg.declare(metadata i32* %8, metadata !8370, metadata !DIExpression()), !dbg !8371
  store i32 %3, i32* %9, align 4
  call void @llvm.dbg.declare(metadata i32* %9, metadata !8372, metadata !DIExpression()), !dbg !8373
  store i32 %4, i32* %10, align 4
  call void @llvm.dbg.declare(metadata i32* %10, metadata !8374, metadata !DIExpression()), !dbg !8375
  %14 = load %class.memory_model*, %class.memory_model** %6, align 8
  call void @llvm.dbg.declare(metadata i32* %11, metadata !8376, metadata !DIExpression()), !dbg !8377
  %15 = load i32, i32* %10, align 4, !dbg !8378
  store i32 %15, i32* %11, align 4, !dbg !8377
  call void @llvm.dbg.declare(metadata i32** %12, metadata !8379, metadata !DIExpression()), !dbg !8380
  %16 = load i32, i32* %11, align 4, !dbg !8381
  %17 = add nsw i32 %16, 1, !dbg !8382
  %18 = sext i32 %17 to i64, !dbg !8381
  %19 = zext i64 %18 to i128, !dbg !8383
  %20 = mul i128 %19, 4, !dbg !8383
  %21 = icmp ugt i128 %20, 18446744073709551615, !dbg !8383
  %22 = trunc i128 %20 to i64, !dbg !8383
  %23 = insertvalue { i64, i1 } undef, i64 %22, 0, !dbg !8383
  %24 = insertvalue { i64, i1 } %23, i1 %21, 1, !dbg !8383
  %25 = extractvalue { i64, i1 } %24, 1, !dbg !8383
  %26 = extractvalue { i64, i1 } %24, 0, !dbg !8383
  %27 = select i1 %25, i64 -1, i64 %26, !dbg !8383
  %28 = call noalias nonnull i8* @_Znam(i64 %27) #20, !dbg !8383, !heapallocsite !170
  %29 = bitcast i8* %28 to i32*, !dbg !8383
  store i32* %29, i32** %12, align 8, !dbg !8380
  %30 = load i32, i32* %9, align 4, !dbg !8384
  %31 = load i32, i32* %10, align 4, !dbg !8386
  %32 = add nsw i32 %30, %31, !dbg !8387
  %33 = getelementptr inbounds %class.memory_model, %class.memory_model* %14, i32 0, i32 1, !dbg !8388
  %34 = load i32, i32* %33, align 8, !dbg !8388
  %35 = icmp sge i32 %32, %34, !dbg !8389
  br i1 %35, label %36, label %37, !dbg !8390

36:                                               ; preds = %5
  call void @exit(i32 1) #22, !dbg !8391
  unreachable, !dbg !8391

37:                                               ; preds = %5
  %38 = load i32, i32* %7, align 4, !dbg !8393
  %39 = icmp ne i32 %38, 0, !dbg !8393
  br i1 %39, label %40, label %65, !dbg !8395

40:                                               ; preds = %37
  %41 = load i32, i32* %8, align 4, !dbg !8396
  %42 = icmp ne i32 %41, 0, !dbg !8396
  br i1 %42, label %65, label %43, !dbg !8397

43:                                               ; preds = %40
  call void @llvm.dbg.declare(metadata i32* %13, metadata !8398, metadata !DIExpression()), !dbg !8401
  store i32 0, i32* %13, align 4, !dbg !8401
  br label %44, !dbg !8402

44:                                               ; preds = %61, %43
  %45 = load i32, i32* %13, align 4, !dbg !8403
  %46 = load i32, i32* %11, align 4, !dbg !8405
  %47 = icmp sle i32 %45, %46, !dbg !8406
  br i1 %47, label %48, label %64, !dbg !8407

48:                                               ; preds = %44
  %49 = getelementptr inbounds %class.memory_model, %class.memory_model* %14, i32 0, i32 7, !dbg !8408
  %50 = load i32*, i32** %49, align 8, !dbg !8408
  %51 = load i32, i32* %9, align 4, !dbg !8410
  %52 = load i32, i32* %13, align 4, !dbg !8411
  %53 = add nsw i32 %51, %52, !dbg !8412
  %54 = sext i32 %53 to i64, !dbg !8408
  %55 = getelementptr inbounds i32, i32* %50, i64 %54, !dbg !8408
  %56 = load i32, i32* %55, align 4, !dbg !8408
  %57 = load i32*, i32** %12, align 8, !dbg !8413
  %58 = load i32, i32* %13, align 4, !dbg !8414
  %59 = sext i32 %58 to i64, !dbg !8413
  %60 = getelementptr inbounds i32, i32* %57, i64 %59, !dbg !8413
  store i32 %56, i32* %60, align 4, !dbg !8415
  br label %61, !dbg !8416

61:                                               ; preds = %48
  %62 = load i32, i32* %13, align 4, !dbg !8417
  %63 = add nsw i32 %62, 1, !dbg !8417
  store i32 %63, i32* %13, align 4, !dbg !8417
  br label %44, !dbg !8418, !llvm.loop !8419

64:                                               ; preds = %44
  br label %66, !dbg !8421

65:                                               ; preds = %40, %37
  call void @exit(i32 1) #22, !dbg !8422
  unreachable, !dbg !8422

66:                                               ; preds = %64
  br label %67

67:                                               ; preds = %66
  %68 = load i32*, i32** %12, align 8, !dbg !8424
  ret i32* %68, !dbg !8425
}

; Function Attrs: nofree nosync nounwind readnone speculatable willreturn
declare { i64, i1 } @llvm.umul.with.overflow.i64(i64, i64) #1

; Function Attrs: nobuiltin allocsize(0)
declare nonnull i8* @_Znam(i64) #6

; Function Attrs: noreturn
declare void @exit(i32) #9

; Function Attrs: mustprogress noinline optnone ssp uwtable
define void @_ZN12memory_model15write_to_memoryEiiiii(%class.memory_model* nonnull align 8 dereferenceable(113) %0, i32 %1, i32 %2, i32 %3, i32 %4, i32 %5) #2 align 2 !dbg !8426 {
  %7 = alloca %class.memory_model*, align 8
  %8 = alloca i32, align 4
  %9 = alloca i32, align 4
  %10 = alloca i32, align 4
  %11 = alloca i32, align 4
  %12 = alloca i32, align 4
  %13 = alloca i32, align 4
  store %class.memory_model* %0, %class.memory_model** %7, align 8
  call void @llvm.dbg.declare(metadata %class.memory_model** %7, metadata !8427, metadata !DIExpression()), !dbg !8428
  store i32 %1, i32* %8, align 4
  call void @llvm.dbg.declare(metadata i32* %8, metadata !8429, metadata !DIExpression()), !dbg !8430
  store i32 %2, i32* %9, align 4
  call void @llvm.dbg.declare(metadata i32* %9, metadata !8431, metadata !DIExpression()), !dbg !8432
  store i32 %3, i32* %10, align 4
  call void @llvm.dbg.declare(metadata i32* %10, metadata !8433, metadata !DIExpression()), !dbg !8434
  store i32 %4, i32* %11, align 4
  call void @llvm.dbg.declare(metadata i32* %11, metadata !8435, metadata !DIExpression()), !dbg !8436
  store i32 %5, i32* %12, align 4
  call void @llvm.dbg.declare(metadata i32* %12, metadata !8437, metadata !DIExpression()), !dbg !8438
  %14 = load %class.memory_model*, %class.memory_model** %7, align 8
  %15 = load i32, i32* %12, align 4, !dbg !8439
  %16 = load i32, i32* %10, align 4, !dbg !8441
  %17 = add nsw i32 %15, %16, !dbg !8442
  %18 = getelementptr inbounds %class.memory_model, %class.memory_model* %14, i32 0, i32 1, !dbg !8443
  %19 = load i32, i32* %18, align 8, !dbg !8443
  %20 = icmp sge i32 %17, %19, !dbg !8444
  br i1 %20, label %21, label %22, !dbg !8445

21:                                               ; preds = %6
  call void @exit(i32 1) #22, !dbg !8446
  unreachable, !dbg !8446

22:                                               ; preds = %6
  %23 = load i32, i32* %8, align 4, !dbg !8448
  %24 = icmp ne i32 %23, 0, !dbg !8448
  br i1 %24, label %25, label %38, !dbg !8450

25:                                               ; preds = %22
  %26 = load i32, i32* %9, align 4, !dbg !8451
  %27 = icmp ne i32 %26, 0, !dbg !8451
  br i1 %27, label %38, label %28, !dbg !8452

28:                                               ; preds = %25
  call void @llvm.dbg.declare(metadata i32* %13, metadata !8453, metadata !DIExpression()), !dbg !8455
  %29 = load i32, i32* %12, align 4, !dbg !8456
  %30 = load i32, i32* %10, align 4, !dbg !8457
  %31 = add nsw i32 %29, %30, !dbg !8458
  store i32 %31, i32* %13, align 4, !dbg !8455
  %32 = load i32, i32* %11, align 4, !dbg !8459
  %33 = getelementptr inbounds %class.memory_model, %class.memory_model* %14, i32 0, i32 7, !dbg !8460
  %34 = load i32*, i32** %33, align 8, !dbg !8460
  %35 = load i32, i32* %13, align 4, !dbg !8461
  %36 = sext i32 %35 to i64, !dbg !8460
  %37 = getelementptr inbounds i32, i32* %34, i64 %36, !dbg !8460
  store i32 %32, i32* %37, align 4, !dbg !8462
  br label %39, !dbg !8463

38:                                               ; preds = %25, %22
  call void @exit(i32 1) #22, !dbg !8464
  unreachable, !dbg !8464

39:                                               ; preds = %28
  br label %40

40:                                               ; preds = %39
  ret void, !dbg !8466
}

; Function Attrs: mustprogress noinline optnone ssp uwtable
define void @_ZN12memory_model18delete_from_memoryEiiii(%class.memory_model* nonnull align 8 dereferenceable(113) %0, i32 %1, i32 %2, i32 %3, i32 %4) #2 align 2 !dbg !8467 {
  %6 = alloca %class.memory_model*, align 8
  %7 = alloca i32, align 4
  %8 = alloca i32, align 4
  %9 = alloca i32, align 4
  %10 = alloca i32, align 4
  %11 = alloca i32, align 4
  store %class.memory_model* %0, %class.memory_model** %6, align 8
  call void @llvm.dbg.declare(metadata %class.memory_model** %6, metadata !8468, metadata !DIExpression()), !dbg !8469
  store i32 %1, i32* %7, align 4
  call void @llvm.dbg.declare(metadata i32* %7, metadata !8470, metadata !DIExpression()), !dbg !8471
  store i32 %2, i32* %8, align 4
  call void @llvm.dbg.declare(metadata i32* %8, metadata !8472, metadata !DIExpression()), !dbg !8473
  store i32 %3, i32* %9, align 4
  call void @llvm.dbg.declare(metadata i32* %9, metadata !8474, metadata !DIExpression()), !dbg !8475
  store i32 %4, i32* %10, align 4
  call void @llvm.dbg.declare(metadata i32* %10, metadata !8476, metadata !DIExpression()), !dbg !8477
  %12 = load %class.memory_model*, %class.memory_model** %6, align 8
  %13 = load i32, i32* %10, align 4, !dbg !8478
  %14 = load i32, i32* %9, align 4, !dbg !8480
  %15 = add nsw i32 %13, %14, !dbg !8481
  %16 = getelementptr inbounds %class.memory_model, %class.memory_model* %12, i32 0, i32 1, !dbg !8482
  %17 = load i32, i32* %16, align 8, !dbg !8482
  %18 = icmp sge i32 %15, %17, !dbg !8483
  br i1 %18, label %19, label %20, !dbg !8484

19:                                               ; preds = %5
  call void @exit(i32 1) #22, !dbg !8485
  unreachable, !dbg !8485

20:                                               ; preds = %5
  %21 = load i32, i32* %7, align 4, !dbg !8487
  %22 = icmp ne i32 %21, 0, !dbg !8487
  br i1 %22, label %23, label %35, !dbg !8489

23:                                               ; preds = %20
  %24 = load i32, i32* %8, align 4, !dbg !8490
  %25 = icmp ne i32 %24, 0, !dbg !8490
  br i1 %25, label %35, label %26, !dbg !8491

26:                                               ; preds = %23
  call void @llvm.dbg.declare(metadata i32* %11, metadata !8492, metadata !DIExpression()), !dbg !8494
  %27 = load i32, i32* %10, align 4, !dbg !8495
  %28 = load i32, i32* %9, align 4, !dbg !8496
  %29 = add nsw i32 %27, %28, !dbg !8497
  store i32 %29, i32* %11, align 4, !dbg !8494
  %30 = getelementptr inbounds %class.memory_model, %class.memory_model* %12, i32 0, i32 7, !dbg !8498
  %31 = load i32*, i32** %30, align 8, !dbg !8498
  %32 = load i32, i32* %11, align 4, !dbg !8499
  %33 = sext i32 %32 to i64, !dbg !8498
  %34 = getelementptr inbounds i32, i32* %31, i64 %33, !dbg !8498
  store i32 0, i32* %34, align 4, !dbg !8500
  br label %36, !dbg !8501

35:                                               ; preds = %23, %20
  call void @exit(i32 1) #22, !dbg !8502
  unreachable, !dbg !8502

36:                                               ; preds = %26
  br label %37

37:                                               ; preds = %36
  ret void, !dbg !8504
}

; Function Attrs: mustprogress noinline nounwind optnone ssp uwtable
define void @_ZN12memory_model12reset_memoryEv(%class.memory_model* nonnull align 8 dereferenceable(113) %0) #0 align 2 !dbg !8505 {
  %2 = alloca %class.memory_model*, align 8
  %3 = alloca i32, align 4
  store %class.memory_model* %0, %class.memory_model** %2, align 8
  call void @llvm.dbg.declare(metadata %class.memory_model** %2, metadata !8506, metadata !DIExpression()), !dbg !8507
  %4 = load %class.memory_model*, %class.memory_model** %2, align 8
  call void @llvm.dbg.declare(metadata i32* %3, metadata !8508, metadata !DIExpression()), !dbg !8510
  store i32 0, i32* %3, align 4, !dbg !8510
  br label %5, !dbg !8511

5:                                                ; preds = %16, %1
  %6 = load i32, i32* %3, align 4, !dbg !8512
  %7 = getelementptr inbounds %class.memory_model, %class.memory_model* %4, i32 0, i32 1, !dbg !8514
  %8 = load i32, i32* %7, align 8, !dbg !8514
  %9 = icmp slt i32 %6, %8, !dbg !8515
  br i1 %9, label %10, label %19, !dbg !8516

10:                                               ; preds = %5
  %11 = getelementptr inbounds %class.memory_model, %class.memory_model* %4, i32 0, i32 7, !dbg !8517
  %12 = load i32*, i32** %11, align 8, !dbg !8517
  %13 = load i32, i32* %3, align 4, !dbg !8519
  %14 = sext i32 %13 to i64, !dbg !8517
  %15 = getelementptr inbounds i32, i32* %12, i64 %14, !dbg !8517
  store i32 10, i32* %15, align 4, !dbg !8520
  br label %16, !dbg !8521

16:                                               ; preds = %10
  %17 = load i32, i32* %3, align 4, !dbg !8522
  %18 = add nsw i32 %17, 1, !dbg !8522
  store i32 %18, i32* %3, align 4, !dbg !8522
  br label %5, !dbg !8523, !llvm.loop !8524

19:                                               ; preds = %5
  ret void, !dbg !8526
}

; Function Attrs: mustprogress noinline nounwind optnone ssp uwtable
define zeroext i1 @_ZN12memory_model9fetch_stsEv(%class.memory_model* nonnull align 8 dereferenceable(113) %0) #0 align 2 !dbg !8527 {
  %2 = alloca i1, align 1
  %3 = alloca %class.memory_model*, align 8
  store %class.memory_model* %0, %class.memory_model** %3, align 8
  call void @llvm.dbg.declare(metadata %class.memory_model** %3, metadata !8528, metadata !DIExpression()), !dbg !8529
  %4 = load %class.memory_model*, %class.memory_model** %3, align 8
  %5 = getelementptr inbounds %class.memory_model, %class.memory_model* %4, i32 0, i32 8, !dbg !8530
  %6 = load i8, i8* %5, align 8, !dbg !8530
  %7 = trunc i8 %6 to i1, !dbg !8530
  br i1 %7, label %8, label %9, !dbg !8532

8:                                                ; preds = %1
  store i1 true, i1* %2, align 1, !dbg !8533
  br label %10, !dbg !8533

9:                                                ; preds = %1
  store i1 false, i1* %2, align 1, !dbg !8535
  br label %10, !dbg !8535

10:                                               ; preds = %9, %8
  %11 = load i1, i1* %2, align 1, !dbg !8537
  ret i1 %11, !dbg !8537
}

; Function Attrs: mustprogress noinline optnone ssp uwtable
define void @_ZN7slaveIP17reset_ip_instanceEv(%class.slaveIP* nonnull align 8 dereferenceable(216) %0) #2 align 2 !dbg !8538 {
  %2 = alloca %class.slaveIP*, align 8
  store %class.slaveIP* %0, %class.slaveIP** %2, align 8
  call void @llvm.dbg.declare(metadata %class.slaveIP** %2, metadata !8539, metadata !DIExpression()), !dbg !8541
  %3 = load %class.slaveIP*, %class.slaveIP** %2, align 8
  %4 = bitcast %class.slaveIP* %3 to %class.baseIP*, !dbg !8542
  %5 = getelementptr inbounds %class.baseIP, %class.baseIP* %4, i32 0, i32 2, !dbg !8542
  store i8 0, i8* %5, align 8, !dbg !8543
  %6 = bitcast %class.slaveIP* %3 to %class.baseIP*, !dbg !8544
  %7 = getelementptr inbounds %class.baseIP, %class.baseIP* %6, i32 0, i32 1, !dbg !8544
  call void @_ZNSt3__13mapINS_12basic_stringIcNS_11char_traitsIcEENS_9allocatorIcEEEEiNS_4lessIS6_EENS4_INS_4pairIKS6_iEEEEE5clearEv(%"class.std::__1::map"* nonnull align 8 dereferenceable(24) %7) #19, !dbg !8545
  br label %8, !dbg !8546

8:                                                ; preds = %12, %1
  %9 = getelementptr inbounds %class.slaveIP, %class.slaveIP* %3, i32 0, i32 4, !dbg !8547
  %10 = call i64 @_ZNKSt3__15queueIiNS_5dequeIiNS_9allocatorIiEEEEE4sizeEv(%"class.std::__1::queue"* nonnull align 8 dereferenceable(48) %9), !dbg !8548
  %11 = icmp ne i64 %10, 0, !dbg !8549
  br i1 %11, label %12, label %14, !dbg !8546

12:                                               ; preds = %8
  %13 = getelementptr inbounds %class.slaveIP, %class.slaveIP* %3, i32 0, i32 4, !dbg !8550
  call void @_ZNSt3__15queueIiNS_5dequeIiNS_9allocatorIiEEEEE3popEv(%"class.std::__1::queue"* nonnull align 8 dereferenceable(48) %13), !dbg !8552
  br label %8, !dbg !8546, !llvm.loop !8553

14:                                               ; preds = %8
  ret void, !dbg !8555
}

; Function Attrs: mustprogress noinline nounwind optnone ssp uwtable
define linkonce_odr hidden void @_ZNSt3__13mapINS_12basic_stringIcNS_11char_traitsIcEENS_9allocatorIcEEEEiNS_4lessIS6_EENS4_INS_4pairIKS6_iEEEEE5clearEv(%"class.std::__1::map"* nonnull align 8 dereferenceable(24) %0) #0 align 2 !dbg !8556 {
  %2 = alloca %"class.std::__1::map"*, align 8
  store %"class.std::__1::map"* %0, %"class.std::__1::map"** %2, align 8
  call void @llvm.dbg.declare(metadata %"class.std::__1::map"** %2, metadata !8557, metadata !DIExpression()), !dbg !8558
  %3 = load %"class.std::__1::map"*, %"class.std::__1::map"** %2, align 8
  %4 = getelementptr inbounds %"class.std::__1::map", %"class.std::__1::map"* %3, i32 0, i32 0, !dbg !8559
  call void @_ZNSt3__16__treeINS_12__value_typeINS_12basic_stringIcNS_11char_traitsIcEENS_9allocatorIcEEEEiEENS_19__map_value_compareIS7_S8_NS_4lessIS7_EELb1EEENS5_IS8_EEE5clearEv(%"class.std::__1::__tree"* nonnull align 8 dereferenceable(24) %4) #19, !dbg !8560
  ret void, !dbg !8561
}

; Function Attrs: mustprogress noinline nounwind optnone ssp uwtable
define linkonce_odr hidden i64 @_ZNKSt3__15queueIiNS_5dequeIiNS_9allocatorIiEEEEE4sizeEv(%"class.std::__1::queue"* nonnull align 8 dereferenceable(48) %0) #0 align 2 !dbg !8562 {
  %2 = alloca %"class.std::__1::queue"*, align 8
  store %"class.std::__1::queue"* %0, %"class.std::__1::queue"** %2, align 8
  call void @llvm.dbg.declare(metadata %"class.std::__1::queue"** %2, metadata !8563, metadata !DIExpression()), !dbg !8565
  %3 = load %"class.std::__1::queue"*, %"class.std::__1::queue"** %2, align 8
  %4 = getelementptr inbounds %"class.std::__1::queue", %"class.std::__1::queue"* %3, i32 0, i32 0, !dbg !8566
  %5 = call i64 @_ZNKSt3__15dequeIiNS_9allocatorIiEEE4sizeEv(%"class.std::__1::deque"* nonnull align 8 dereferenceable(48) %4) #19, !dbg !8567
  ret i64 %5, !dbg !8568
}

; Function Attrs: mustprogress noinline optnone ssp uwtable
define linkonce_odr hidden void @_ZNSt3__15queueIiNS_5dequeIiNS_9allocatorIiEEEEE3popEv(%"class.std::__1::queue"* nonnull align 8 dereferenceable(48) %0) #2 align 2 !dbg !8569 {
  %2 = alloca %"class.std::__1::queue"*, align 8
  store %"class.std::__1::queue"* %0, %"class.std::__1::queue"** %2, align 8
  call void @llvm.dbg.declare(metadata %"class.std::__1::queue"** %2, metadata !8570, metadata !DIExpression()), !dbg !8572
  %3 = load %"class.std::__1::queue"*, %"class.std::__1::queue"** %2, align 8
  %4 = getelementptr inbounds %"class.std::__1::queue", %"class.std::__1::queue"* %3, i32 0, i32 0, !dbg !8573
  call void @_ZNSt3__15dequeIiNS_9allocatorIiEEE9pop_frontEv(%"class.std::__1::deque"* nonnull align 8 dereferenceable(48) %4), !dbg !8574
  ret void, !dbg !8575
}

; Function Attrs: mustprogress noinline optnone ssp uwtable
define zeroext i1 @_ZN7slaveIP14check_busy_stsEv(%class.slaveIP* nonnull align 8 dereferenceable(216) %0) #2 align 2 !dbg !8576 {
  %2 = alloca i1, align 1
  %3 = alloca %class.slaveIP*, align 8
  %4 = alloca %"class.std::__1::basic_string", align 8
  %5 = alloca %"class.std::__1::basic_string", align 8
  store %class.slaveIP* %0, %class.slaveIP** %3, align 8
  call void @llvm.dbg.declare(metadata %class.slaveIP** %3, metadata !8577, metadata !DIExpression()), !dbg !8578
  %6 = load %class.slaveIP*, %class.slaveIP** %3, align 8
  %7 = bitcast %class.slaveIP* %6 to %class.baseIP*, !dbg !8579
  %8 = getelementptr inbounds %class.baseIP, %class.baseIP* %7, i32 0, i32 2, !dbg !8579
  %9 = load i8, i8* %8, align 8, !dbg !8579
  %10 = trunc i8 %9 to i1, !dbg !8579
  br i1 %10, label %11, label %12, !dbg !8581

11:                                               ; preds = %1
  call void @llvm.dbg.declare(metadata %"class.std::__1::basic_string"* %4, metadata !8582, metadata !DIExpression()), !dbg !8584
  call void @_ZNSt3__112basic_stringIcNS_11char_traitsIcEENS_9allocatorIcEEEC1IDnEEPKc(%"class.std::__1::basic_string"* nonnull align 8 dereferenceable(24) %4, i8* getelementptr inbounds ([11 x i8], [11 x i8]* @.str.22, i64 0, i64 0)), !dbg !8585
  store i1 true, i1* %2, align 1, !dbg !8586
  call void @_ZNSt3__112basic_stringIcNS_11char_traitsIcEENS_9allocatorIcEEED1Ev(%"class.std::__1::basic_string"* nonnull align 8 dereferenceable(24) %4) #19, !dbg !8587
  br label %13

12:                                               ; preds = %1
  call void @llvm.dbg.declare(metadata %"class.std::__1::basic_string"* %5, metadata !8588, metadata !DIExpression()), !dbg !8590
  call void @_ZNSt3__112basic_stringIcNS_11char_traitsIcEENS_9allocatorIcEEEC1IDnEEPKc(%"class.std::__1::basic_string"* nonnull align 8 dereferenceable(24) %5, i8* getelementptr inbounds ([15 x i8], [15 x i8]* @.str.23, i64 0, i64 0)), !dbg !8591
  store i1 false, i1* %2, align 1, !dbg !8592
  call void @_ZNSt3__112basic_stringIcNS_11char_traitsIcEENS_9allocatorIcEEED1Ev(%"class.std::__1::basic_string"* nonnull align 8 dereferenceable(24) %5) #19, !dbg !8593
  br label %13

13:                                               ; preds = %12, %11
  %14 = load i1, i1* %2, align 1, !dbg !8594
  ret i1 %14, !dbg !8594
}

; Function Attrs: mustprogress noinline optnone ssp uwtable
define void @_ZN7slaveIP12set_busy_stsEb(%class.slaveIP* nonnull align 8 dereferenceable(216) %0, i1 zeroext %1) #2 align 2 personality i8* bitcast (i32 (...)* @__gxx_personality_v0 to i8*) !dbg !8595 {
  %3 = alloca %class.slaveIP*, align 8
  %4 = alloca i8, align 1
  %5 = alloca %"class.std::__1::basic_string", align 8
  %6 = alloca %"class.std::__1::basic_string", align 8
  %7 = alloca %"class.std::__1::basic_string", align 8
  %8 = alloca i8*, align 8
  %9 = alloca i32, align 4
  store %class.slaveIP* %0, %class.slaveIP** %3, align 8
  call void @llvm.dbg.declare(metadata %class.slaveIP** %3, metadata !8596, metadata !DIExpression()), !dbg !8597
  %10 = zext i1 %1 to i8
  store i8 %10, i8* %4, align 1
  call void @llvm.dbg.declare(metadata i8* %4, metadata !8598, metadata !DIExpression()), !dbg !8599
  %11 = load %class.slaveIP*, %class.slaveIP** %3, align 8
  %12 = load i8, i8* %4, align 1, !dbg !8600
  %13 = trunc i8 %12 to i1, !dbg !8600
  %14 = bitcast %class.slaveIP* %11 to %class.baseIP*, !dbg !8601
  %15 = getelementptr inbounds %class.baseIP, %class.baseIP* %14, i32 0, i32 2, !dbg !8601
  %16 = zext i1 %13 to i8, !dbg !8602
  store i8 %16, i8* %15, align 8, !dbg !8602
  call void @llvm.dbg.declare(metadata %"class.std::__1::basic_string"* %5, metadata !8603, metadata !DIExpression()), !dbg !8604
  %17 = load i8, i8* %4, align 1, !dbg !8605
  %18 = trunc i8 %17 to i1, !dbg !8605
  %19 = zext i1 %18 to i32, !dbg !8605
  call void @_ZNSt3__19to_stringEi(%"class.std::__1::basic_string"* sret(%"class.std::__1::basic_string") align 8 %7, i32 %19), !dbg !8606
  invoke void @_ZNSt3__1plIcNS_11char_traitsIcEENS_9allocatorIcEEEENS_12basic_stringIT_T0_T1_EEPKS6_OS9_(%"class.std::__1::basic_string"* sret(%"class.std::__1::basic_string") align 8 %6, i8* getelementptr inbounds ([20 x i8], [20 x i8]* @.str, i64 0, i64 0), %"class.std::__1::basic_string"* nonnull align 8 dereferenceable(24) %7)
          to label %20 unwind label %22, !dbg !8607

20:                                               ; preds = %2
  invoke void @_ZNSt3__1plIcNS_11char_traitsIcEENS_9allocatorIcEEEENS_12basic_stringIT_T0_T1_EEOS9_S6_(%"class.std::__1::basic_string"* sret(%"class.std::__1::basic_string") align 8 %5, %"class.std::__1::basic_string"* nonnull align 8 dereferenceable(24) %6, i8 signext 10)
          to label %21 unwind label %26, !dbg !8608

21:                                               ; preds = %20
  call void @_ZNSt3__112basic_stringIcNS_11char_traitsIcEENS_9allocatorIcEEED1Ev(%"class.std::__1::basic_string"* nonnull align 8 dereferenceable(24) %6) #19, !dbg !8609
  call void @_ZNSt3__112basic_stringIcNS_11char_traitsIcEENS_9allocatorIcEEED1Ev(%"class.std::__1::basic_string"* nonnull align 8 dereferenceable(24) %7) #19, !dbg !8609
  call void @_ZNSt3__112basic_stringIcNS_11char_traitsIcEENS_9allocatorIcEEED1Ev(%"class.std::__1::basic_string"* nonnull align 8 dereferenceable(24) %5) #19, !dbg !8610
  ret void, !dbg !8610

22:                                               ; preds = %2
  %23 = landingpad { i8*, i32 }
          cleanup, !dbg !8610
  %24 = extractvalue { i8*, i32 } %23, 0, !dbg !8610
  store i8* %24, i8** %8, align 8, !dbg !8610
  %25 = extractvalue { i8*, i32 } %23, 1, !dbg !8610
  store i32 %25, i32* %9, align 4, !dbg !8610
  br label %30, !dbg !8610

26:                                               ; preds = %20
  %27 = landingpad { i8*, i32 }
          cleanup, !dbg !8610
  %28 = extractvalue { i8*, i32 } %27, 0, !dbg !8610
  store i8* %28, i8** %8, align 8, !dbg !8610
  %29 = extractvalue { i8*, i32 } %27, 1, !dbg !8610
  store i32 %29, i32* %9, align 4, !dbg !8610
  call void @_ZNSt3__112basic_stringIcNS_11char_traitsIcEENS_9allocatorIcEEED1Ev(%"class.std::__1::basic_string"* nonnull align 8 dereferenceable(24) %6) #19, !dbg !8609
  br label %30, !dbg !8609

30:                                               ; preds = %26, %22
  call void @_ZNSt3__112basic_stringIcNS_11char_traitsIcEENS_9allocatorIcEEED1Ev(%"class.std::__1::basic_string"* nonnull align 8 dereferenceable(24) %7) #19, !dbg !8609
  br label %31, !dbg !8609

31:                                               ; preds = %30
  %32 = load i8*, i8** %8, align 8, !dbg !8609
  %33 = load i32, i32* %9, align 4, !dbg !8609
  %34 = insertvalue { i8*, i32 } undef, i8* %32, 0, !dbg !8609
  %35 = insertvalue { i8*, i32 } %34, i32 %33, 1, !dbg !8609
  resume { i8*, i32 } %35, !dbg !8609
}

; Function Attrs: mustprogress noinline optnone ssp uwtable
define i32 @_ZN7slaveIP16ingress_fifo_popEi(%class.slaveIP* nonnull align 8 dereferenceable(216) %0, i32 %1) #2 align 2 !dbg !8611 {
  %3 = alloca %class.slaveIP*, align 8
  %4 = alloca i32, align 4
  %5 = alloca i32, align 4
  store %class.slaveIP* %0, %class.slaveIP** %3, align 8
  call void @llvm.dbg.declare(metadata %class.slaveIP** %3, metadata !8612, metadata !DIExpression()), !dbg !8613
  store i32 %1, i32* %4, align 4
  call void @llvm.dbg.declare(metadata i32* %4, metadata !8614, metadata !DIExpression()), !dbg !8615
  %6 = load %class.slaveIP*, %class.slaveIP** %3, align 8
  call void @llvm.dbg.declare(metadata i32* %5, metadata !8616, metadata !DIExpression()), !dbg !8617
  %7 = getelementptr inbounds %class.slaveIP, %class.slaveIP* %6, i32 0, i32 3, !dbg !8618
  %8 = load i8, i8* %7, align 1, !dbg !8618
  %9 = trunc i8 %8 to i1, !dbg !8618
  br i1 %9, label %10, label %27, !dbg !8620

10:                                               ; preds = %2
  %11 = getelementptr inbounds %class.slaveIP, %class.slaveIP* %6, i32 0, i32 4, !dbg !8621
  %12 = call i64 @_ZNKSt3__15queueIiNS_5dequeIiNS_9allocatorIiEEEEE4sizeEv(%"class.std::__1::queue"* nonnull align 8 dereferenceable(48) %11), !dbg !8622
  %13 = icmp ne i64 %12, 0, !dbg !8623
  br i1 %13, label %14, label %27, !dbg !8624

14:                                               ; preds = %10
  br label %15, !dbg !8625

15:                                               ; preds = %18, %14
  %16 = load i32, i32* %4, align 4, !dbg !8627
  %17 = icmp sgt i32 %16, 0, !dbg !8628
  br i1 %17, label %18, label %25, !dbg !8625

18:                                               ; preds = %15
  %19 = getelementptr inbounds %class.slaveIP, %class.slaveIP* %6, i32 0, i32 4, !dbg !8629
  %20 = call nonnull align 4 dereferenceable(4) i32* @_ZNSt3__15queueIiNS_5dequeIiNS_9allocatorIiEEEEE5frontEv(%"class.std::__1::queue"* nonnull align 8 dereferenceable(48) %19), !dbg !8631
  %21 = load i32, i32* %20, align 4, !dbg !8631
  store i32 %21, i32* %5, align 4, !dbg !8632
  %22 = getelementptr inbounds %class.slaveIP, %class.slaveIP* %6, i32 0, i32 4, !dbg !8633
  call void @_ZNSt3__15queueIiNS_5dequeIiNS_9allocatorIiEEEEE3popEv(%"class.std::__1::queue"* nonnull align 8 dereferenceable(48) %22), !dbg !8634
  %23 = load i32, i32* %4, align 4, !dbg !8635
  %24 = add nsw i32 %23, -1, !dbg !8635
  store i32 %24, i32* %4, align 4, !dbg !8635
  br label %15, !dbg !8625, !llvm.loop !8636

25:                                               ; preds = %15
  %26 = load i32, i32* %5, align 4, !dbg !8638
  ret i32 %26, !dbg !8639

27:                                               ; preds = %10, %2
  call void @exit(i32 1) #22, !dbg !8640
  unreachable, !dbg !8640
}

; Function Attrs: mustprogress noinline nounwind optnone ssp uwtable
define linkonce_odr hidden nonnull align 4 dereferenceable(4) i32* @_ZNSt3__15queueIiNS_5dequeIiNS_9allocatorIiEEEEE5frontEv(%"class.std::__1::queue"* nonnull align 8 dereferenceable(48) %0) #0 align 2 !dbg !8642 {
  %2 = alloca %"class.std::__1::queue"*, align 8
  store %"class.std::__1::queue"* %0, %"class.std::__1::queue"** %2, align 8
  call void @llvm.dbg.declare(metadata %"class.std::__1::queue"** %2, metadata !8643, metadata !DIExpression()), !dbg !8644
  %3 = load %"class.std::__1::queue"*, %"class.std::__1::queue"** %2, align 8
  %4 = getelementptr inbounds %"class.std::__1::queue", %"class.std::__1::queue"* %3, i32 0, i32 0, !dbg !8645
  %5 = call nonnull align 4 dereferenceable(4) i32* @_ZNSt3__15dequeIiNS_9allocatorIiEEE5frontEv(%"class.std::__1::deque"* nonnull align 8 dereferenceable(48) %4) #19, !dbg !8646
  ret i32* %5, !dbg !8647
}

; Function Attrs: mustprogress noinline optnone ssp uwtable
define void @_ZN7slaveIP17ingress_fifo_pushEPii(%class.slaveIP* nonnull align 8 dereferenceable(216) %0, i32* %1, i32 %2) #2 align 2 !dbg !8648 {
  %4 = alloca %class.slaveIP*, align 8
  %5 = alloca i32*, align 8
  %6 = alloca i32, align 4
  %7 = alloca i32, align 4
  store %class.slaveIP* %0, %class.slaveIP** %4, align 8
  call void @llvm.dbg.declare(metadata %class.slaveIP** %4, metadata !8649, metadata !DIExpression()), !dbg !8650
  store i32* %1, i32** %5, align 8
  call void @llvm.dbg.declare(metadata i32** %5, metadata !8651, metadata !DIExpression()), !dbg !8652
  store i32 %2, i32* %6, align 4
  call void @llvm.dbg.declare(metadata i32* %6, metadata !8653, metadata !DIExpression()), !dbg !8654
  %8 = load %class.slaveIP*, %class.slaveIP** %4, align 8
  %9 = getelementptr inbounds %class.slaveIP, %class.slaveIP* %8, i32 0, i32 3, !dbg !8655
  %10 = load i8, i8* %9, align 1, !dbg !8655
  %11 = trunc i8 %10 to i1, !dbg !8655
  br i1 %11, label %12, label %28, !dbg !8657

12:                                               ; preds = %3
  call void @llvm.dbg.declare(metadata i32* %7, metadata !8658, metadata !DIExpression()), !dbg !8661
  store i32 0, i32* %7, align 4, !dbg !8661
  br label %13, !dbg !8662

13:                                               ; preds = %23, %12
  %14 = load i32, i32* %7, align 4, !dbg !8663
  %15 = load i32, i32* %6, align 4, !dbg !8665
  %16 = icmp slt i32 %14, %15, !dbg !8666
  br i1 %16, label %17, label %26, !dbg !8667

17:                                               ; preds = %13
  %18 = getelementptr inbounds %class.slaveIP, %class.slaveIP* %8, i32 0, i32 4, !dbg !8668
  %19 = load i32*, i32** %5, align 8, !dbg !8670
  %20 = load i32, i32* %7, align 4, !dbg !8671
  %21 = sext i32 %20 to i64, !dbg !8672
  %22 = getelementptr inbounds i32, i32* %19, i64 %21, !dbg !8672
  call void @_ZNSt3__15queueIiNS_5dequeIiNS_9allocatorIiEEEEE4pushERKi(%"class.std::__1::queue"* nonnull align 8 dereferenceable(48) %18, i32* nonnull align 4 dereferenceable(4) %22), !dbg !8673
  br label %23, !dbg !8674

23:                                               ; preds = %17
  %24 = load i32, i32* %7, align 4, !dbg !8675
  %25 = add nsw i32 %24, 1, !dbg !8675
  store i32 %25, i32* %7, align 4, !dbg !8675
  br label %13, !dbg !8676, !llvm.loop !8677

26:                                               ; preds = %13
  %27 = getelementptr inbounds %class.slaveIP, %class.slaveIP* %8, i32 0, i32 2, !dbg !8679
  store i8 1, i8* %27, align 8, !dbg !8680
  br label %29, !dbg !8681

28:                                               ; preds = %3
  call void @exit(i32 1) #22, !dbg !8682
  unreachable, !dbg !8682

29:                                               ; preds = %26
  ret void, !dbg !8684
}

; Function Attrs: mustprogress noinline optnone ssp uwtable
define linkonce_odr hidden void @_ZNSt3__15queueIiNS_5dequeIiNS_9allocatorIiEEEEE4pushERKi(%"class.std::__1::queue"* nonnull align 8 dereferenceable(48) %0, i32* nonnull align 4 dereferenceable(4) %1) #2 align 2 !dbg !8685 {
  %3 = alloca %"class.std::__1::queue"*, align 8
  %4 = alloca i32*, align 8
  store %"class.std::__1::queue"* %0, %"class.std::__1::queue"** %3, align 8
  call void @llvm.dbg.declare(metadata %"class.std::__1::queue"** %3, metadata !8686, metadata !DIExpression()), !dbg !8687
  store i32* %1, i32** %4, align 8
  call void @llvm.dbg.declare(metadata i32** %4, metadata !8688, metadata !DIExpression()), !dbg !8689
  %5 = load %"class.std::__1::queue"*, %"class.std::__1::queue"** %3, align 8
  %6 = getelementptr inbounds %"class.std::__1::queue", %"class.std::__1::queue"* %5, i32 0, i32 0, !dbg !8690
  %7 = load i32*, i32** %4, align 8, !dbg !8691
  call void @_ZNSt3__15dequeIiNS_9allocatorIiEEE9push_backERKi(%"class.std::__1::deque"* nonnull align 8 dereferenceable(48) %6, i32* nonnull align 4 dereferenceable(4) %7), !dbg !8692
  ret void, !dbg !8693
}

