; ModuleID = 'spec4agent.bc'
source_filename = "spec4agent.cpp"
target datalayout = "e-m:e-p270:32:32-p271:32:32-p272:64:64-i64:64-f80:128-n8:16:32:64-S128"
target triple = "x86_64-pc-linux-gnu"

%"class.std::unordered_map" = type { %"class.std::_Hashtable" }
%"class.std::_Hashtable" = type { %"struct.std::__detail::_Hash_node_base"**, i64, %"struct.std::__detail::_Hash_node_base", i64, %"struct.std::__detail::_Prime_rehash_policy", %"struct.std::__detail::_Hash_node_base"* }
%"struct.std::__detail::_Hash_node_base" = type { %"struct.std::__detail::_Hash_node_base"* }
%"struct.std::__detail::_Prime_rehash_policy" = type { float, i64 }
%"class.std::multimap" = type { %"class.std::_Rb_tree" }
%"class.std::_Rb_tree" = type { %"struct.std::_Rb_tree<std::__cxx11::basic_string<char>, std::pair<const std::__cxx11::basic_string<char>, int>, std::_Select1st<std::pair<const std::__cxx11::basic_string<char>, int>>, std::less<std::__cxx11::basic_string<char>>>::_Rb_tree_impl" }
%"struct.std::_Rb_tree<std::__cxx11::basic_string<char>, std::pair<const std::__cxx11::basic_string<char>, int>, std::_Select1st<std::pair<const std::__cxx11::basic_string<char>, int>>, std::less<std::__cxx11::basic_string<char>>>::_Rb_tree_impl" = type { %"struct.std::_Rb_tree_key_compare", %"struct.std::_Rb_tree_header" }
%"struct.std::_Rb_tree_key_compare" = type { %"struct.std::less" }
%"struct.std::less" = type { i8 }
%"struct.std::_Rb_tree_header" = type { %"struct.std::_Rb_tree_node_base", i64 }
%"struct.std::_Rb_tree_node_base" = type { i32, %"struct.std::_Rb_tree_node_base"*, %"struct.std::_Rb_tree_node_base"*, %"struct.std::_Rb_tree_node_base"* }
%"class.std::ios_base::Init" = type { i8 }
%class.RESET_CONTROLLER = type { %class.slaveIP, %"struct.slaveIP::interfaceRegisters", %"struct.slaveIP::interfaceRegisters" }
%class.slaveIP = type { %class.memory_model.base, %class.system_memory_map, i8, i8, %"class.std::queue" }
%class.memory_model.base = type <{ %class.baseIP, i32, i32, i32, i32, i32, [4 x i8], i32*, i8 }>
%class.baseIP = type { %class.Log, %"class.std::map", i8, %"class.std::map" }
%class.Log = type { i32, i32, i32, i32, i32 }
%"class.std::map" = type { %"class.std::_Rb_tree" }
%class.system_memory_map = type { %class.Log, i32, i32, i32* }
%"class.std::queue" = type { %"class.std::deque" }
%"class.std::deque" = type { %"class.std::_Deque_base" }
%"class.std::_Deque_base" = type { %"struct.std::_Deque_base<int, std::allocator<int>>::_Deque_impl" }
%"struct.std::_Deque_base<int, std::allocator<int>>::_Deque_impl" = type { %"struct.std::_Deque_base<int, std::allocator<int>>::_Deque_impl_data" }
%"struct.std::_Deque_base<int, std::allocator<int>>::_Deque_impl_data" = type { i32**, i64, %"struct.std::_Deque_iterator", %"struct.std::_Deque_iterator" }
%"struct.std::_Deque_iterator" = type { i32*, i32*, i32*, i32** }
%"struct.slaveIP::interfaceRegisters" = type <{ %"class.std::__cxx11::basic_string", %"class.std::__cxx11::basic_string", i32, [4 x i8] }>
%"class.std::__cxx11::basic_string" = type { %"struct.std::__cxx11::basic_string<char>::_Alloc_hider", i64, %union.anon }
%"struct.std::__cxx11::basic_string<char>::_Alloc_hider" = type { i8* }
%union.anon = type { i64, [8 x i8] }
%class.CRC_CONTROLLER = type <{ %class.slaveIP, %"struct.slaveIP::interfaceRegisters", %"struct.slaveIP::interfaceRegisters", i8, i8, [6 x i8] }>
%class.TIMER_CONTROLLER = type <{ %class.slaveIP, %"struct.slaveIP::interfaceRegisters", %"struct.slaveIP::interfaceRegisters", %"struct.slaveIP::interfaceRegisters", i8, i8, [6 x i8] }>
%class.SOFTWARECONTROLLER = type <{ %class.slaveIP, %"struct.slaveIP::interfaceRegisters", %"struct.slaveIP::interfaceRegisters", %"struct.slaveIP::interfaceRegisters", %"struct.slaveIP::interfaceRegisters", %"struct.slaveIP::interfaceRegisters", %"struct.slaveIP::interfaceRegisters", i32, i8, [3 x i8] }>
%class.INTERFACES = type { %class.system_memory_map, %class.system_memory_map* }
%"struct.std::array.20" = type { [4 x void ()*] }
%"class.std::allocator" = type { i8 }
%"struct.std::_Rb_tree_iterator" = type { %"struct.std::_Rb_tree_node_base"* }
%"struct.std::pair" = type <{ %"class.std::__cxx11::basic_string", i32, [4 x i8] }>
%"struct.std::_Rb_tree_node" = type { %"struct.std::_Rb_tree_node_base", %"struct.__gnu_cxx::__aligned_membuf" }
%"struct.__gnu_cxx::__aligned_membuf" = type { [40 x i8] }
%"struct.std::_Rb_tree_const_iterator" = type { %"struct.std::_Rb_tree_node_base"* }
%"struct.std::__detail::_Node_iterator" = type { %"struct.std::__detail::_Node_iterator_base" }
%"struct.std::__detail::_Node_iterator_base" = type { %"struct.std::__detail::_Hash_node"* }
%"struct.std::__detail::_Hash_node" = type { %"struct.std::__detail::_Hash_node_base", %"struct.std::__detail::_Hash_node_value" }
%"struct.std::__detail::_Hash_node_value" = type { %"struct.std::__detail::_Hash_node_value_base", %"struct.std::__detail::_Hash_node_code_cache" }
%"struct.std::__detail::_Hash_node_value_base" = type { %"struct.__gnu_cxx::__aligned_buffer" }
%"struct.__gnu_cxx::__aligned_buffer" = type { %"union.std::aligned_storage<40, 8>::type" }
%"union.std::aligned_storage<40, 8>::type" = type { [40 x i8] }
%"struct.std::__detail::_Hash_node_code_cache" = type { i64 }
%"struct.std::input_iterator_tag" = type { i8 }
%"struct.std::forward_iterator_tag" = type { i8 }
%"struct.std::pair.12" = type <{ %"class.std::__cxx11::basic_string", i32, [4 x i8] }>
%"struct.std::pair.8" = type <{ %"struct.std::__detail::_Node_iterator", i8, [7 x i8] }>
%"struct.std::__detail::_Node_const_iterator" = type { %"struct.std::__detail::_Node_iterator_base" }
%"struct.INTERFACES::interfaceRegisters" = type <{ %"class.std::__cxx11::basic_string", %"class.std::__cxx11::basic_string", i32, i8, [3 x i8], %"struct.std::array", [4 x i8] }>
%"struct.std::array" = type { [5 x i32] }
%class.memory_model = type <{ %class.baseIP, i32, i32, i32, i32, i32, [4 x i8], i32*, i8, [7 x i8] }>
%"struct.std::chrono::duration" = type { i64 }
%"struct.std::chrono::time_point" = type { %"struct.std::chrono::duration.19" }
%"struct.std::chrono::duration.19" = type { i64 }
%"class.std::queue.21" = type { %"class.std::deque.22" }
%"class.std::deque.22" = type { %"class.std::_Deque_base.23" }
%"class.std::_Deque_base.23" = type { %"struct.std::_Deque_base<void (*)(), std::allocator<void (*)()>>::_Deque_impl" }
%"struct.std::_Deque_base<void (*)(), std::allocator<void (*)()>>::_Deque_impl" = type { %"struct.std::_Deque_base<void (*)(), std::allocator<void (*)()>>::_Deque_impl_data" }
%"struct.std::_Deque_base<void (*)(), std::allocator<void (*)()>>::_Deque_impl_data" = type { void ()***, i64, %"struct.std::_Deque_iterator.27", %"struct.std::_Deque_iterator.27" }
%"struct.std::_Deque_iterator.27" = type { void ()**, void ()**, void ()**, void ()*** }
%"class.std::thread" = type { %"class.std::thread::id" }
%"class.std::thread::id" = type { i64 }
%"class.std::unique_ptr" = type { %"struct.std::__uniq_ptr_data" }
%"struct.std::__uniq_ptr_data" = type { %"class.std::__uniq_ptr_impl" }
%"class.std::__uniq_ptr_impl" = type { %"class.std::tuple" }
%"class.std::tuple" = type { %"struct.std::_Tuple_impl" }
%"struct.std::_Tuple_impl" = type { %"struct.std::_Head_base.44" }
%"struct.std::_Head_base.44" = type { %"struct.std::thread::_State"* }
%"struct.std::thread::_State" = type { i32 (...)** }
%"struct.std::thread::_State_impl" = type { %"struct.std::thread::_State", %"struct.std::thread::_Invoker" }
%"struct.std::thread::_Invoker" = type { %"class.std::tuple.45" }
%"class.std::tuple.45" = type { %"struct.std::_Tuple_impl.46" }
%"struct.std::_Tuple_impl.46" = type { %"struct.std::_Head_base.47" }
%"struct.std::_Head_base.47" = type { void ()* }
%"struct.std::__detail::_Hashtable_base" = type { i8 }
%"struct.std::__detail::_Map_base" = type { i8 }
%"struct.std::__detail::_Insert" = type { i8 }
%"struct.std::__detail::_Rehash_base" = type { i8 }
%"struct.std::__detail::_Equality" = type { i8 }
%"struct.std::__detail::_Hashtable_alloc" = type { i8 }
%"struct.std::_Enable_default_constructor" = type { i8 }
%"struct.std::__detail::_Hash_code_base" = type { i8 }
%"struct.std::__detail::_Hashtable_ebo_helper.3" = type { i8 }
%"struct.std::__detail::_Hashtable_ebo_helper.4" = type { i8 }
%"struct.std::__detail::_Hashtable_ebo_helper" = type { i8 }
%"struct.std::equal_to" = type { i8 }
%"struct.std::hash" = type { i8 }
%"class.std::allocator.5" = type { i8 }
%"class.__gnu_cxx::new_allocator.6" = type { i8 }
%"class.std::__pair_base.13" = type { i8 }
%"class.std::allocator.0" = type { i8 }
%"class.__gnu_cxx::new_allocator.1" = type { i8 }
%"class.std::allocator.16" = type { i8 }
%"class.__gnu_cxx::new_allocator.17" = type { i8 }
%"class.std::allocator.28" = type { i8 }
%"class.__gnu_cxx::new_allocator.29" = type { i8 }
%"class.std::allocator.24" = type { i8 }
%"class.std::allocator.31" = type { i8 }
%"class.__gnu_cxx::new_allocator.25" = type { i8 }
%"class.__gnu_cxx::new_allocator.32" = type { i8 }
%"struct.std::_Select1st" = type { i8 }
%"struct.std::__detail::_Mod_range_hashing" = type { i8 }
%"struct.std::__detail::_Select1st" = type { i8 }
%"struct.std::integral_constant" = type { i8 }
%"struct.std::_Hashtable<std::__cxx11::basic_string<char>, std::pair<const std::__cxx11::basic_string<char>, int>, std::allocator<std::pair<const std::__cxx11::basic_string<char>, int>>, std::__detail::_Select1st, std::equal_to<std::__cxx11::basic_string<char>>, std::hash<std::string>, std::__detail::_Mod_range_hashing, std::__detail::_Default_ranged_hash, std::__detail::_Prime_rehash_policy, std::__detail::_Hashtable_traits<true, false, true>>::_Scoped_node" = type { %"struct.std::__detail::_Hashtable_alloc"*, %"struct.std::__detail::_Hash_node"* }
%"struct.std::pair.34" = type { i8, i64 }
%"class.std::__pair_base.9" = type { i8 }
%"class.std::__pair_base" = type { i8 }
%"class.std::allocator.37" = type { i8 }
%"class.__gnu_cxx::new_allocator.38" = type { i8 }
%"struct.std::_Rb_tree<std::__cxx11::basic_string<char>, std::pair<const std::__cxx11::basic_string<char>, int>, std::_Select1st<std::pair<const std::__cxx11::basic_string<char>, int>>, std::less<std::__cxx11::basic_string<char>>>::_Alloc_node" = type { %"class.std::_Rb_tree"* }
%"struct.std::pair.40" = type { %"struct.std::_Rb_tree_node_base"*, %"struct.std::_Rb_tree_node_base"* }
%"class.std::__pair_base.41" = type { i8 }
%"struct.std::default_delete" = type { i8 }
%"struct.std::_Index_tuple" = type { i8 }
%"struct.std::__invoke_other" = type { i8 }
%"struct.std::_Tuple_impl.43" = type { i8 }
%"struct.std::_Head_base" = type { i8 }

$_ZStplIcSt11char_traitsIcESaIcEENSt7__cxx1112basic_stringIT_T0_T1_EEOS8_S5_ = comdat any

$_ZStplIcSt11char_traitsIcESaIcEENSt7__cxx1112basic_stringIT_T0_T1_EEPKS5_OS8_ = comdat any

$_ZNSt7__cxx119to_stringEi = comdat any

$_ZNSt3mapINSt7__cxx1112basic_stringIcSt11char_traitsIcESaIcEEEiSt4lessIS5_ESaISt4pairIKS5_iEEE4findERS9_ = comdat any

$_ZSteqRKSt17_Rb_tree_iteratorISt4pairIKNSt7__cxx1112basic_stringIcSt11char_traitsIcESaIcEEEiEESB_ = comdat any

$_ZNSt3mapINSt7__cxx1112basic_stringIcSt11char_traitsIcESaIcEEEiSt4lessIS5_ESaISt4pairIKS5_iEEE3endEv = comdat any

$_ZStplIcSt11char_traitsIcESaIcEENSt7__cxx1112basic_stringIT_T0_T1_EEOS8_PKS5_ = comdat any

$_ZStplIcSt11char_traitsIcESaIcEENSt7__cxx1112basic_stringIT_T0_T1_EEPKS5_RKS8_ = comdat any

$_ZNKSt17_Rb_tree_iteratorISt4pairIKNSt7__cxx1112basic_stringIcSt11char_traitsIcESaIcEEEiEEptEv = comdat any

$_ZNKSt3mapINSt7__cxx1112basic_stringIcSt11char_traitsIcESaIcEEEiSt4lessIS5_ESaISt4pairIKS5_iEEE5beginEv = comdat any

$_ZNKSt3mapINSt7__cxx1112basic_stringIcSt11char_traitsIcESaIcEEEiSt4lessIS5_ESaISt4pairIKS5_iEEE3endEv = comdat any

$_ZStneRKSt23_Rb_tree_const_iteratorISt4pairIKNSt7__cxx1112basic_stringIcSt11char_traitsIcESaIcEEEiEESB_ = comdat any

$_ZNKSt23_Rb_tree_const_iteratorISt4pairIKNSt7__cxx1112basic_stringIcSt11char_traitsIcESaIcEEEiEEdeEv = comdat any

$_ZNSt23_Rb_tree_const_iteratorISt4pairIKNSt7__cxx1112basic_stringIcSt11char_traitsIcESaIcEEEiEEppEv = comdat any

$_ZNSt13unordered_mapINSt7__cxx1112basic_stringIcSt11char_traitsIcESaIcEEEiSt4hashIS5_ESt8equal_toIS5_ESaISt4pairIKS5_iEEEC2Ev = comdat any

$_ZNKSt13unordered_mapINSt7__cxx1112basic_stringIcSt11char_traitsIcESaIcEEEiSt4hashIS5_ESt8equal_toIS5_ESaISt4pairIKS5_iEEE4sizeEv = comdat any

$_ZSt8distanceINSt8__detail14_Node_iteratorISt4pairIKNSt7__cxx1112basic_stringIcSt11char_traitsIcESaIcEEEiELb0ELb1EEEENSt15iterator_traitsIT_E15difference_typeESD_SD_ = comdat any

$_ZNSt13unordered_mapINSt7__cxx1112basic_stringIcSt11char_traitsIcESaIcEEEiSt4hashIS5_ESt8equal_toIS5_ESaISt4pairIKS5_iEEE5beginEv = comdat any

$_ZNSt13unordered_mapINSt7__cxx1112basic_stringIcSt11char_traitsIcESaIcEEEiSt4hashIS5_ESt8equal_toIS5_ESaISt4pairIKS5_iEEE4findERSB_ = comdat any

$_ZNSt8__detailneERKNS_19_Node_iterator_baseISt4pairIKNSt7__cxx1112basic_stringIcSt11char_traitsIcESaIcEEEiELb1EEESC_ = comdat any

$_ZNSt13unordered_mapINSt7__cxx1112basic_stringIcSt11char_traitsIcESaIcEEEiSt4hashIS5_ESt8equal_toIS5_ESaISt4pairIKS5_iEEE3endEv = comdat any

$_ZNKSt8__detail14_Node_iteratorISt4pairIKNSt7__cxx1112basic_stringIcSt11char_traitsIcESaIcEEEiELb0ELb1EEptEv = comdat any

$_ZNSt8__detaileqERKNS_19_Node_iterator_baseISt4pairIKNSt7__cxx1112basic_stringIcSt11char_traitsIcESaIcEEEiELb1EEESC_ = comdat any

$_ZNSt13unordered_mapINSt7__cxx1112basic_stringIcSt11char_traitsIcESaIcEEEiSt4hashIS5_ESt8equal_toIS5_ESaISt4pairIKS5_iEEE6insertISA_IS5_iEEENSt9enable_ifIXsr16is_constructibleISC_OT_EE5valueESA_INSt8__detail14_Node_iteratorISC_Lb0ELb1EEEbEE4typeESJ_ = comdat any

$_ZSt9make_pairIRNSt7__cxx1112basic_stringIcSt11char_traitsIcESaIcEEERiESt4pairINSt25__strip_reference_wrapperINSt5decayIT_E4typeEE6__typeENS9_INSA_IT0_E4typeEE6__typeEEOSB_OSG_ = comdat any

$_ZNSt4pairINSt7__cxx1112basic_stringIcSt11char_traitsIcESaIcEEEiED2Ev = comdat any

$_ZStplIcSt11char_traitsIcESaIcEENSt7__cxx1112basic_stringIT_T0_T1_EEOS8_RKS8_ = comdat any

$_ZNKSt13unordered_mapINSt7__cxx1112basic_stringIcSt11char_traitsIcESaIcEEEiSt4hashIS5_ESt8equal_toIS5_ESaISt4pairIKS5_iEEE5beginEv = comdat any

$_ZNKSt13unordered_mapINSt7__cxx1112basic_stringIcSt11char_traitsIcESaIcEEEiSt4hashIS5_ESt8equal_toIS5_ESaISt4pairIKS5_iEEE3endEv = comdat any

$_ZNKSt8__detail20_Node_const_iteratorISt4pairIKNSt7__cxx1112basic_stringIcSt11char_traitsIcESaIcEEEiELb0ELb1EEdeEv = comdat any

$_ZNSt8__detail20_Node_const_iteratorISt4pairIKNSt7__cxx1112basic_stringIcSt11char_traitsIcESaIcEEEiELb0ELb1EEppEv = comdat any

$_ZStplIcSt11char_traitsIcESaIcEENSt7__cxx1112basic_stringIT_T0_T1_EEOS8_S9_ = comdat any

$_ZStplIcSt11char_traitsIcESaIcEENSt7__cxx1112basic_stringIT_T0_T1_EERKS8_PKS5_ = comdat any

$_ZSteqIcSt11char_traitsIcESaIcEEbRKNSt7__cxx1112basic_stringIT_T0_T1_EEPKS5_ = comdat any

$_ZNSt8multimapINSt7__cxx1112basic_stringIcSt11char_traitsIcESaIcEEEiSt4lessIS5_ESaISt4pairIKS5_iEEE6insertISt17_Rb_tree_iteratorISA_EEEvT_SG_ = comdat any

$_ZNSt8multimapINSt7__cxx1112basic_stringIcSt11char_traitsIcESaIcEEEiSt4lessIS5_ESaISt4pairIKS5_iEEE5beginEv = comdat any

$_ZNSt8multimapINSt7__cxx1112basic_stringIcSt11char_traitsIcESaIcEEEiSt4lessIS5_ESaISt4pairIKS5_iEEE3endEv = comdat any

$_ZNSt3mapINSt7__cxx1112basic_stringIcSt11char_traitsIcESaIcEEEiSt4lessIS5_ESaISt4pairIKS5_iEEE5clearEv = comdat any

$_ZNKSt5queueIiSt5dequeIiSaIiEEE4sizeEv = comdat any

$_ZNSt5queueIiSt5dequeIiSaIiEEE3popEv = comdat any

$_ZNSt5queueIiSt5dequeIiSaIiEEE5frontEv = comdat any

$_ZNSt5queueIiSt5dequeIiSaIiEEE4pushERKi = comdat any

$_ZNSt6chrono8durationIlSt5ratioILl1ELl1000EEEC2IivEERKT_ = comdat any

$_ZNSt6chronoplINS_3_V212system_clockENS_8durationIlSt5ratioILl1ELl1000000000EEEElS4_ILl1ELl1000EEEENS_10time_pointIT_NSt11common_typeIJT0_NS3_IT1_T2_EEEE4typeEEERKNS8_IS9_SB_EERKSE_ = comdat any

$_ZNSt6chronoltINS_3_V212system_clockENS_8durationIlSt5ratioILl1ELl1000000000EEEES6_EEbRKNS_10time_pointIT_T0_EERKNS7_IS8_T1_EE = comdat any

$_ZNSt5queueIiSt5dequeIiSaIiEEE4pushEOi = comdat any

$_ZN16RESET_CONTROLLERC2Ev = comdat any

$_ZN14CRC_CONTROLLERC2Ev = comdat any

$_ZN16TIMER_CONTROLLERC2Ev = comdat any

$_ZN18SOFTWARECONTROLLERC2Ev = comdat any

$_ZN10INTERFACESC2Ev = comdat any

$_Z6wait__IbEvT_ = comdat any

$_ZN7slaveIP18interfaceRegistersaSERKS0_ = comdat any

$_Z6wait__IiEvT_ = comdat any

$_ZNSt5queueIPFvvESt5dequeIS1_SaIS1_EEEC2IS4_vEEv = comdat any

$_ZNSt5queueIPFvvESt5dequeIS1_SaIS1_EEE4pushERKS1_ = comdat any

$_ZNSt5arrayIPFvvELm4EEixEm = comdat any

$_ZNKSt5queueIPFvvESt5dequeIS1_SaIS1_EEE5emptyEv = comdat any

$_ZNSt5queueIPFvvESt5dequeIS1_SaIS1_EEE5frontEv = comdat any

$_ZNSt6threadC2IRPFvvEJEvEEOT_DpOT0_ = comdat any

$_ZNSt5queueIPFvvESt5dequeIS1_SaIS1_EEE3popEv = comdat any

$_ZNSt6threadD2Ev = comdat any

$_ZNSt5queueIPFvvESt5dequeIS1_SaIS1_EEED2Ev = comdat any

$_ZNSt8__detail14__to_chars_lenIjEEjT_i = comdat any

$_ZNSt8__detail18__to_chars_10_implIjEEvPcjT_ = comdat any

$_ZNSt10_HashtableINSt7__cxx1112basic_stringIcSt11char_traitsIcESaIcEEESt4pairIKS5_iESaIS8_ENSt8__detail10_Select1stESt8equal_toIS5_ESt4hashIS5_ENSA_18_Mod_range_hashingENSA_20_Default_ranged_hashENSA_20_Prime_rehash_policyENSA_17_Hashtable_traitsILb1ELb0ELb1EEEEC2Ev = comdat any

$_ZNSt8__detail15_Hashtable_baseINSt7__cxx1112basic_stringIcSt11char_traitsIcESaIcEEESt4pairIKS6_iENS_10_Select1stESt8equal_toIS6_ESt4hashIS6_ENS_18_Mod_range_hashingENS_20_Default_ranged_hashENS_17_Hashtable_traitsILb1ELb0ELb1EEEEC2Ev = comdat any

$_ZNSt8__detail16_Hashtable_allocISaINS_10_Hash_nodeISt4pairIKNSt7__cxx1112basic_stringIcSt11char_traitsIcESaIcEEEiELb1EEEEEC2Ev = comdat any

$_ZNSt8__detail15_Hash_node_baseC2Ev = comdat any

$_ZNSt8__detail20_Prime_rehash_policyC2Ef = comdat any

$_ZNSt8__detail15_Hash_code_baseINSt7__cxx1112basic_stringIcSt11char_traitsIcESaIcEEESt4pairIKS6_iENS_10_Select1stESt4hashIS6_ENS_18_Mod_range_hashingENS_20_Default_ranged_hashELb1EEC2Ev = comdat any

$_ZNSt8__detail21_Hashtable_ebo_helperILi0ESt8equal_toINSt7__cxx1112basic_stringIcSt11char_traitsIcESaIcEEEELb1EEC2Ev = comdat any

$_ZNSt8__detail21_Hashtable_ebo_helperILi1ESt4hashINSt7__cxx1112basic_stringIcSt11char_traitsIcESaIcEEEELb1EEC2Ev = comdat any

$_ZNSt8__detail21_Hashtable_ebo_helperILi0ESaINS_10_Hash_nodeISt4pairIKNSt7__cxx1112basic_stringIcSt11char_traitsIcESaIcEEEiELb1EEEELb1EEC2Ev = comdat any

$_ZNSaINSt8__detail10_Hash_nodeISt4pairIKNSt7__cxx1112basic_stringIcSt11char_traitsIcESaIcEEEiELb1EEEEC2Ev = comdat any

$_ZN9__gnu_cxx13new_allocatorINSt8__detail10_Hash_nodeISt4pairIKNSt7__cxx1112basic_stringIcSt11char_traitsIcESaIcEEEiELb1EEEEC2Ev = comdat any

$_ZSt7forwardIRNSt7__cxx1112basic_stringIcSt11char_traitsIcESaIcEEEEOT_RNSt16remove_referenceIS7_E4typeE = comdat any

$_ZSt7forwardIRiEOT_RNSt16remove_referenceIS1_E4typeE = comdat any

$_ZNSt4pairINSt7__cxx1112basic_stringIcSt11char_traitsIcESaIcEEEiEC2IRS5_RiLb1EEEOT_OT0_ = comdat any

$_ZNSt6chronoplIlSt5ratioILl1ELl1000000000EElS1_ILl1ELl1000EEEENSt11common_typeIJNS_8durationIT_T0_EENS5_IT1_T2_EEEE4typeERKS8_RKSB_ = comdat any

$_ZNKSt6chrono10time_pointINS_3_V212system_clockENS_8durationIlSt5ratioILl1ELl1000000000EEEEE16time_since_epochEv = comdat any

$_ZNSt6chrono10time_pointINS_3_V212system_clockENS_8durationIlSt5ratioILl1ELl1000000000EEEEEC2ERKS6_ = comdat any

$_ZNKSt6chrono8durationIlSt5ratioILl1ELl1000000000EEE5countEv = comdat any

$_ZNSt6chrono8durationIlSt5ratioILl1ELl1000000000EEEC2IlS1_ILl1ELl1000EEvEERKNS0_IT_T0_EE = comdat any

$_ZNSt6chrono8durationIlSt5ratioILl1ELl1000000000EEEC2IlvEERKT_ = comdat any

$_ZNSt6chrono13duration_castINS_8durationIlSt5ratioILl1ELl1000000000EEEElS2_ILl1ELl1000EEEENSt9enable_ifIXsr13__is_durationIT_EE5valueES7_E4typeERKNS1_IT0_T1_EE = comdat any

$_ZNSt6chrono20__duration_cast_implINS_8durationIlSt5ratioILl1ELl1000000000EEEES2_ILl1000000ELl1EElLb0ELb1EE6__castIlS2_ILl1ELl1000EEEES4_RKNS1_IT_T0_EE = comdat any

$_ZNKSt6chrono8durationIlSt5ratioILl1ELl1000EEE5countEv = comdat any

$_ZNSt6chronoltIlSt5ratioILl1ELl1000000000EElS2_EEbRKNS_8durationIT_T0_EERKNS3_IT1_T2_EE = comdat any

$_ZN7slaveIPC2Ev = comdat any

$_ZN7slaveIP18interfaceRegistersD2Ev = comdat any

$_ZN7slaveIPD2Ev = comdat any

$_ZN12memory_modelC2Ev = comdat any

$_ZNSt5queueIiSt5dequeIiSaIiEEEC2IS2_vEEv = comdat any

$_ZNSt5queueIiSt5dequeIiSaIiEEED2Ev = comdat any

$_ZN12memory_modelD2Ev = comdat any

$_ZN6baseIPC2Ev = comdat any

$_ZN6baseIPD2Ev = comdat any

$_ZN3LogC2Ev = comdat any

$_ZNSt3mapINSt7__cxx1112basic_stringIcSt11char_traitsIcESaIcEEEiSt4lessIS5_ESaISt4pairIKS5_iEEEC2Ev = comdat any

$_ZNSt8_Rb_treeINSt7__cxx1112basic_stringIcSt11char_traitsIcESaIcEEESt4pairIKS5_iESt10_Select1stIS8_ESt4lessIS5_ESaIS8_EEC2Ev = comdat any

$_ZNSt8_Rb_treeINSt7__cxx1112basic_stringIcSt11char_traitsIcESaIcEEESt4pairIKS5_iESt10_Select1stIS8_ESt4lessIS5_ESaIS8_EE13_Rb_tree_implISC_Lb1EEC2Ev = comdat any

$_ZNSaISt13_Rb_tree_nodeISt4pairIKNSt7__cxx1112basic_stringIcSt11char_traitsIcESaIcEEEiEEEC2Ev = comdat any

$_ZNSt20_Rb_tree_key_compareISt4lessINSt7__cxx1112basic_stringIcSt11char_traitsIcESaIcEEEEEC2Ev = comdat any

$_ZNSt15_Rb_tree_headerC2Ev = comdat any

$_ZN9__gnu_cxx13new_allocatorISt13_Rb_tree_nodeISt4pairIKNSt7__cxx1112basic_stringIcSt11char_traitsIcESaIcEEEiEEEC2Ev = comdat any

$_ZNSt15_Rb_tree_header8_M_resetEv = comdat any

$__clang_call_terminate = comdat any

$_ZNSt3mapINSt7__cxx1112basic_stringIcSt11char_traitsIcESaIcEEEiSt4lessIS5_ESaISt4pairIKS5_iEEED2Ev = comdat any

$_ZNSt8_Rb_treeINSt7__cxx1112basic_stringIcSt11char_traitsIcESaIcEEESt4pairIKS5_iESt10_Select1stIS8_ESt4lessIS5_ESaIS8_EED2Ev = comdat any

$_ZNSt8_Rb_treeINSt7__cxx1112basic_stringIcSt11char_traitsIcESaIcEEESt4pairIKS5_iESt10_Select1stIS8_ESt4lessIS5_ESaIS8_EE8_M_eraseEPSt13_Rb_tree_nodeIS8_E = comdat any

$_ZNSt8_Rb_treeINSt7__cxx1112basic_stringIcSt11char_traitsIcESaIcEEESt4pairIKS5_iESt10_Select1stIS8_ESt4lessIS5_ESaIS8_EE8_M_beginEv = comdat any

$_ZNSt8_Rb_treeINSt7__cxx1112basic_stringIcSt11char_traitsIcESaIcEEESt4pairIKS5_iESt10_Select1stIS8_ESt4lessIS5_ESaIS8_EE13_Rb_tree_implISC_Lb1EED2Ev = comdat any

$_ZNSt8_Rb_treeINSt7__cxx1112basic_stringIcSt11char_traitsIcESaIcEEESt4pairIKS5_iESt10_Select1stIS8_ESt4lessIS5_ESaIS8_EE8_S_rightEPSt18_Rb_tree_node_base = comdat any

$_ZNSt8_Rb_treeINSt7__cxx1112basic_stringIcSt11char_traitsIcESaIcEEESt4pairIKS5_iESt10_Select1stIS8_ESt4lessIS5_ESaIS8_EE7_S_leftEPSt18_Rb_tree_node_base = comdat any

$_ZNSt8_Rb_treeINSt7__cxx1112basic_stringIcSt11char_traitsIcESaIcEEESt4pairIKS5_iESt10_Select1stIS8_ESt4lessIS5_ESaIS8_EE12_M_drop_nodeEPSt13_Rb_tree_nodeIS8_E = comdat any

$_ZNSt8_Rb_treeINSt7__cxx1112basic_stringIcSt11char_traitsIcESaIcEEESt4pairIKS5_iESt10_Select1stIS8_ESt4lessIS5_ESaIS8_EE15_M_destroy_nodeEPSt13_Rb_tree_nodeIS8_E = comdat any

$_ZNSt8_Rb_treeINSt7__cxx1112basic_stringIcSt11char_traitsIcESaIcEEESt4pairIKS5_iESt10_Select1stIS8_ESt4lessIS5_ESaIS8_EE11_M_put_nodeEPSt13_Rb_tree_nodeIS8_E = comdat any

$_ZNSt16allocator_traitsISaISt13_Rb_tree_nodeISt4pairIKNSt7__cxx1112basic_stringIcSt11char_traitsIcESaIcEEEiEEEE7destroyIS9_EEvRSB_PT_ = comdat any

$_ZNSt8_Rb_treeINSt7__cxx1112basic_stringIcSt11char_traitsIcESaIcEEESt4pairIKS5_iESt10_Select1stIS8_ESt4lessIS5_ESaIS8_EE21_M_get_Node_allocatorEv = comdat any

$_ZNSt13_Rb_tree_nodeISt4pairIKNSt7__cxx1112basic_stringIcSt11char_traitsIcESaIcEEEiEE9_M_valptrEv = comdat any

$_ZN9__gnu_cxx13new_allocatorISt13_Rb_tree_nodeISt4pairIKNSt7__cxx1112basic_stringIcSt11char_traitsIcESaIcEEEiEEE7destroyISA_EEvPT_ = comdat any

$_ZNSt4pairIKNSt7__cxx1112basic_stringIcSt11char_traitsIcESaIcEEEiED2Ev = comdat any

$_ZN9__gnu_cxx16__aligned_membufISt4pairIKNSt7__cxx1112basic_stringIcSt11char_traitsIcESaIcEEEiEE6_M_ptrEv = comdat any

$_ZN9__gnu_cxx16__aligned_membufISt4pairIKNSt7__cxx1112basic_stringIcSt11char_traitsIcESaIcEEEiEE7_M_addrEv = comdat any

$_ZNSt16allocator_traitsISaISt13_Rb_tree_nodeISt4pairIKNSt7__cxx1112basic_stringIcSt11char_traitsIcESaIcEEEiEEEE10deallocateERSB_PSA_m = comdat any

$_ZN9__gnu_cxx13new_allocatorISt13_Rb_tree_nodeISt4pairIKNSt7__cxx1112basic_stringIcSt11char_traitsIcESaIcEEEiEEE10deallocateEPSB_m = comdat any

$_ZNKSt8_Rb_treeINSt7__cxx1112basic_stringIcSt11char_traitsIcESaIcEEESt4pairIKS5_iESt10_Select1stIS8_ESt4lessIS5_ESaIS8_EE9_M_mbeginEv = comdat any

$_ZNSaISt13_Rb_tree_nodeISt4pairIKNSt7__cxx1112basic_stringIcSt11char_traitsIcESaIcEEEiEEED2Ev = comdat any

$_ZN9__gnu_cxx13new_allocatorISt13_Rb_tree_nodeISt4pairIKNSt7__cxx1112basic_stringIcSt11char_traitsIcESaIcEEEiEEED2Ev = comdat any

$_ZNSt5dequeIiSaIiEEC2Ev = comdat any

$_ZNSt11_Deque_baseIiSaIiEEC2Ev = comdat any

$_ZNSt11_Deque_baseIiSaIiEE11_Deque_implC2Ev = comdat any

$_ZNSt11_Deque_baseIiSaIiEE17_M_initialize_mapEm = comdat any

$_ZNSt11_Deque_baseIiSaIiEE11_Deque_implD2Ev = comdat any

$_ZNSaIiEC2Ev = comdat any

$_ZNSt11_Deque_baseIiSaIiEE16_Deque_impl_dataC2Ev = comdat any

$_ZN9__gnu_cxx13new_allocatorIiEC2Ev = comdat any

$_ZNSt15_Deque_iteratorIiRiPiEC2Ev = comdat any

$_ZSt16__deque_buf_sizem = comdat any

$_ZSt3maxImERKT_S2_S2_ = comdat any

$_ZNSt11_Deque_baseIiSaIiEE15_M_allocate_mapEm = comdat any

$_ZNSt11_Deque_baseIiSaIiEE15_M_create_nodesEPPiS3_ = comdat any

$_ZNSt11_Deque_baseIiSaIiEE17_M_deallocate_mapEPPim = comdat any

$_ZNSt15_Deque_iteratorIiRiPiE11_M_set_nodeEPS1_ = comdat any

$_ZNKSt11_Deque_baseIiSaIiEE20_M_get_map_allocatorEv = comdat any

$_ZNSt16allocator_traitsISaIPiEE8allocateERS1_m = comdat any

$_ZNSaIPiED2Ev = comdat any

$_ZNKSt11_Deque_baseIiSaIiEE19_M_get_Tp_allocatorEv = comdat any

$_ZNSaIPiEC2IiEERKSaIT_E = comdat any

$_ZN9__gnu_cxx13new_allocatorIPiEC2Ev = comdat any

$_ZN9__gnu_cxx13new_allocatorIPiE8allocateEmPKv = comdat any

$_ZNK9__gnu_cxx13new_allocatorIPiE11_M_max_sizeEv = comdat any

$_ZN9__gnu_cxx13new_allocatorIPiED2Ev = comdat any

$_ZNSt11_Deque_baseIiSaIiEE16_M_allocate_nodeEv = comdat any

$_ZNSt11_Deque_baseIiSaIiEE16_M_destroy_nodesEPPiS3_ = comdat any

$_ZNSt16allocator_traitsISaIiEE8allocateERS0_m = comdat any

$_ZN9__gnu_cxx13new_allocatorIiE8allocateEmPKv = comdat any

$_ZNK9__gnu_cxx13new_allocatorIiE11_M_max_sizeEv = comdat any

$_ZNSt11_Deque_baseIiSaIiEE18_M_deallocate_nodeEPi = comdat any

$_ZNSt16allocator_traitsISaIiEE10deallocateERS0_Pim = comdat any

$_ZN9__gnu_cxx13new_allocatorIiE10deallocateEPim = comdat any

$_ZNSt16allocator_traitsISaIPiEE10deallocateERS1_PS0_m = comdat any

$_ZN9__gnu_cxx13new_allocatorIPiE10deallocateEPS1_m = comdat any

$_ZNSt15_Deque_iteratorIiRiPiE14_S_buffer_sizeEv = comdat any

$_ZNSaIiED2Ev = comdat any

$_ZN9__gnu_cxx13new_allocatorIiED2Ev = comdat any

$_ZNSt5dequeIiSaIiEED2Ev = comdat any

$_ZNSt5dequeIiSaIiEE15_M_destroy_dataESt15_Deque_iteratorIiRiPiES5_RKS0_ = comdat any

$_ZNSt5dequeIiSaIiEE5beginEv = comdat any

$_ZNSt5dequeIiSaIiEE3endEv = comdat any

$_ZNSt11_Deque_baseIiSaIiEE19_M_get_Tp_allocatorEv = comdat any

$_ZNSt11_Deque_baseIiSaIiEED2Ev = comdat any

$_ZNSt15_Deque_iteratorIiRiPiEC2ERKS2_ = comdat any

$_ZN17system_memory_mapC2Ev = comdat any

$_ZNKSt6thread8joinableEv = comdat any

$_ZSteqNSt6thread2idES0_ = comdat any

$_ZNSt6thread2idC2Ev = comdat any

$_ZNSt5dequeIPFvvESaIS1_EED2Ev = comdat any

$_ZNSt5dequeIPFvvESaIS1_EE15_M_destroy_dataESt15_Deque_iteratorIS1_RS1_PS1_ES7_RKS2_ = comdat any

$_ZNSt5dequeIPFvvESaIS1_EE5beginEv = comdat any

$_ZNSt5dequeIPFvvESaIS1_EE3endEv = comdat any

$_ZNSt11_Deque_baseIPFvvESaIS1_EE19_M_get_Tp_allocatorEv = comdat any

$_ZNSt11_Deque_baseIPFvvESaIS1_EED2Ev = comdat any

$_ZNSt15_Deque_iteratorIPFvvERS1_PS1_EC2ERKS4_ = comdat any

$_ZNSt11_Deque_baseIPFvvESaIS1_EE16_M_destroy_nodesEPPS1_S5_ = comdat any

$_ZNSt11_Deque_baseIPFvvESaIS1_EE17_M_deallocate_mapEPPS1_m = comdat any

$_ZNSt11_Deque_baseIPFvvESaIS1_EE11_Deque_implD2Ev = comdat any

$_ZNSt11_Deque_baseIPFvvESaIS1_EE18_M_deallocate_nodeEPS1_ = comdat any

$_ZNSt16allocator_traitsISaIPFvvEEE10deallocateERS2_PS1_m = comdat any

$_ZN9__gnu_cxx13new_allocatorIPFvvEE10deallocateEPS2_m = comdat any

$_ZNKSt11_Deque_baseIPFvvESaIS1_EE20_M_get_map_allocatorEv = comdat any

$_ZNSt16allocator_traitsISaIPPFvvEEE10deallocateERS3_PS2_m = comdat any

$_ZNSaIPPFvvEED2Ev = comdat any

$_ZNKSt11_Deque_baseIPFvvESaIS1_EE19_M_get_Tp_allocatorEv = comdat any

$_ZNSaIPPFvvEEC2IS0_EERKSaIT_E = comdat any

$_ZN9__gnu_cxx13new_allocatorIPPFvvEEC2Ev = comdat any

$_ZN9__gnu_cxx13new_allocatorIPPFvvEE10deallocateEPS3_m = comdat any

$_ZN9__gnu_cxx13new_allocatorIPPFvvEED2Ev = comdat any

$_ZNSaIPFvvEED2Ev = comdat any

$_ZN9__gnu_cxx13new_allocatorIPFvvEED2Ev = comdat any

$_ZSt4moveIRNSt7__cxx1112basic_stringIcSt11char_traitsIcESaIcEEEEONSt16remove_referenceIT_E4typeEOS8_ = comdat any

$_ZNSt8_Rb_treeINSt7__cxx1112basic_stringIcSt11char_traitsIcESaIcEEESt4pairIKS5_iESt10_Select1stIS8_ESt4lessIS5_ESaIS8_EE5clearEv = comdat any

$_ZNSt8_Rb_treeINSt7__cxx1112basic_stringIcSt11char_traitsIcESaIcEEESt4pairIKS5_iESt10_Select1stIS8_ESt4lessIS5_ESaIS8_EE4findERS7_ = comdat any

$_ZNSt8_Rb_treeINSt7__cxx1112basic_stringIcSt11char_traitsIcESaIcEEESt4pairIKS5_iESt10_Select1stIS8_ESt4lessIS5_ESaIS8_EE14_M_lower_boundEPSt13_Rb_tree_nodeIS8_EPSt18_Rb_tree_node_baseRS7_ = comdat any

$_ZNSt8_Rb_treeINSt7__cxx1112basic_stringIcSt11char_traitsIcESaIcEEESt4pairIKS5_iESt10_Select1stIS8_ESt4lessIS5_ESaIS8_EE6_M_endEv = comdat any

$_ZNSt8_Rb_treeINSt7__cxx1112basic_stringIcSt11char_traitsIcESaIcEEESt4pairIKS5_iESt10_Select1stIS8_ESt4lessIS5_ESaIS8_EE3endEv = comdat any

$_ZNKSt4lessINSt7__cxx1112basic_stringIcSt11char_traitsIcESaIcEEEEclERKS5_S8_ = comdat any

$_ZNSt8_Rb_treeINSt7__cxx1112basic_stringIcSt11char_traitsIcESaIcEEESt4pairIKS5_iESt10_Select1stIS8_ESt4lessIS5_ESaIS8_EE6_S_keyEPKSt18_Rb_tree_node_base = comdat any

$_ZNSt8_Rb_treeINSt7__cxx1112basic_stringIcSt11char_traitsIcESaIcEEESt4pairIKS5_iESt10_Select1stIS8_ESt4lessIS5_ESaIS8_EE6_S_keyEPKSt13_Rb_tree_nodeIS8_E = comdat any

$_ZNSt17_Rb_tree_iteratorISt4pairIKNSt7__cxx1112basic_stringIcSt11char_traitsIcESaIcEEEiEEC2EPSt18_Rb_tree_node_base = comdat any

$_ZNKSt10_Select1stISt4pairIKNSt7__cxx1112basic_stringIcSt11char_traitsIcESaIcEEEiEEclERKS8_ = comdat any

$_ZNKSt13_Rb_tree_nodeISt4pairIKNSt7__cxx1112basic_stringIcSt11char_traitsIcESaIcEEEiEE9_M_valptrEv = comdat any

$_ZNK9__gnu_cxx16__aligned_membufISt4pairIKNSt7__cxx1112basic_stringIcSt11char_traitsIcESaIcEEEiEE6_M_ptrEv = comdat any

$_ZNK9__gnu_cxx16__aligned_membufISt4pairIKNSt7__cxx1112basic_stringIcSt11char_traitsIcESaIcEEEiEE7_M_addrEv = comdat any

$_ZStltIcSt11char_traitsIcESaIcEEbRKNSt7__cxx1112basic_stringIT_T0_T1_EESA_ = comdat any

$_ZNSt11char_traitsIcE6lengthEPKc = comdat any

$_ZN9__gnu_cxx14__alloc_traitsISaIcEcE17_S_select_on_copyERKS1_ = comdat any

$_ZNSt16allocator_traitsISaIcEE37select_on_container_copy_constructionERKS0_ = comdat any

$_ZNKSt8_Rb_treeINSt7__cxx1112basic_stringIcSt11char_traitsIcESaIcEEESt4pairIKS5_iESt10_Select1stIS8_ESt4lessIS5_ESaIS8_EE5beginEv = comdat any

$_ZNSt23_Rb_tree_const_iteratorISt4pairIKNSt7__cxx1112basic_stringIcSt11char_traitsIcESaIcEEEiEEC2EPKSt18_Rb_tree_node_base = comdat any

$_ZNKSt8_Rb_treeINSt7__cxx1112basic_stringIcSt11char_traitsIcESaIcEEESt4pairIKS5_iESt10_Select1stIS8_ESt4lessIS5_ESaIS8_EE3endEv = comdat any

$_ZNKSt10_HashtableINSt7__cxx1112basic_stringIcSt11char_traitsIcESaIcEEESt4pairIKS5_iESaIS8_ENSt8__detail10_Select1stESt8equal_toIS5_ESt4hashIS5_ENSA_18_Mod_range_hashingENSA_20_Default_ranged_hashENSA_20_Prime_rehash_policyENSA_17_Hashtable_traitsILb1ELb0ELb1EEEE4sizeEv = comdat any

$_ZNSt10_HashtableINSt7__cxx1112basic_stringIcSt11char_traitsIcESaIcEEESt4pairIKS5_iESaIS8_ENSt8__detail10_Select1stESt8equal_toIS5_ESt4hashIS5_ENSA_18_Mod_range_hashingENSA_20_Default_ranged_hashENSA_20_Prime_rehash_policyENSA_17_Hashtable_traitsILb1ELb0ELb1EEEE5beginEv = comdat any

$_ZNKSt10_HashtableINSt7__cxx1112basic_stringIcSt11char_traitsIcESaIcEEESt4pairIKS5_iESaIS8_ENSt8__detail10_Select1stESt8equal_toIS5_ESt4hashIS5_ENSA_18_Mod_range_hashingENSA_20_Default_ranged_hashENSA_20_Prime_rehash_policyENSA_17_Hashtable_traitsILb1ELb0ELb1EEEE8_M_beginEv = comdat any

$_ZNSt8__detail14_Node_iteratorISt4pairIKNSt7__cxx1112basic_stringIcSt11char_traitsIcESaIcEEEiELb0ELb1EEC2EPNS_10_Hash_nodeIS9_Lb1EEE = comdat any

$_ZNSt8__detail19_Node_iterator_baseISt4pairIKNSt7__cxx1112basic_stringIcSt11char_traitsIcESaIcEEEiELb1EEC2EPNS_10_Hash_nodeIS9_Lb1EEE = comdat any

$_ZNSt10_HashtableINSt7__cxx1112basic_stringIcSt11char_traitsIcESaIcEEESt4pairIKS5_iESaIS8_ENSt8__detail10_Select1stESt8equal_toIS5_ESt4hashIS5_ENSA_18_Mod_range_hashingENSA_20_Default_ranged_hashENSA_20_Prime_rehash_policyENSA_17_Hashtable_traitsILb1ELb0ELb1EEEE4findERS7_ = comdat any

$_ZNKSt8__detail15_Hash_code_baseINSt7__cxx1112basic_stringIcSt11char_traitsIcESaIcEEESt4pairIKS6_iENS_10_Select1stESt4hashIS6_ENS_18_Mod_range_hashingENS_20_Default_ranged_hashELb1EE12_M_hash_codeERS8_ = comdat any

$_ZNKSt10_HashtableINSt7__cxx1112basic_stringIcSt11char_traitsIcESaIcEEESt4pairIKS5_iESaIS8_ENSt8__detail10_Select1stESt8equal_toIS5_ESt4hashIS5_ENSA_18_Mod_range_hashingENSA_20_Default_ranged_hashENSA_20_Prime_rehash_policyENSA_17_Hashtable_traitsILb1ELb0ELb1EEEE15_M_bucket_indexEm = comdat any

$_ZNKSt10_HashtableINSt7__cxx1112basic_stringIcSt11char_traitsIcESaIcEEESt4pairIKS5_iESaIS8_ENSt8__detail10_Select1stESt8equal_toIS5_ESt4hashIS5_ENSA_18_Mod_range_hashingENSA_20_Default_ranged_hashENSA_20_Prime_rehash_policyENSA_17_Hashtable_traitsILb1ELb0ELb1EEEE12_M_find_nodeEmRS7_m = comdat any

$_ZNKSt8__detail15_Hash_code_baseINSt7__cxx1112basic_stringIcSt11char_traitsIcESaIcEEESt4pairIKS6_iENS_10_Select1stESt4hashIS6_ENS_18_Mod_range_hashingENS_20_Default_ranged_hashELb1EE7_M_hashEv = comdat any

$_ZNKSt4hashINSt7__cxx1112basic_stringIcSt11char_traitsIcESaIcEEEEclERKS5_ = comdat any

$_ZNKSt8__detail21_Hashtable_ebo_helperILi1ESt4hashINSt7__cxx1112basic_stringIcSt11char_traitsIcESaIcEEEELb1EE7_M_cgetEv = comdat any

$_ZNSt10_Hash_impl4hashEPKvmm = comdat any

$_ZNKSt8__detail15_Hash_code_baseINSt7__cxx1112basic_stringIcSt11char_traitsIcESaIcEEESt4pairIKS6_iENS_10_Select1stESt4hashIS6_ENS_18_Mod_range_hashingENS_20_Default_ranged_hashELb1EE15_M_bucket_indexEmm = comdat any

$_ZNKSt8__detail18_Mod_range_hashingclEmm = comdat any

$_ZNKSt10_HashtableINSt7__cxx1112basic_stringIcSt11char_traitsIcESaIcEEESt4pairIKS5_iESaIS8_ENSt8__detail10_Select1stESt8equal_toIS5_ESt4hashIS5_ENSA_18_Mod_range_hashingENSA_20_Default_ranged_hashENSA_20_Prime_rehash_policyENSA_17_Hashtable_traitsILb1ELb0ELb1EEEE19_M_find_before_nodeEmRS7_m = comdat any

$_ZNKSt8__detail15_Hashtable_baseINSt7__cxx1112basic_stringIcSt11char_traitsIcESaIcEEESt4pairIKS6_iENS_10_Select1stESt8equal_toIS6_ESt4hashIS6_ENS_18_Mod_range_hashingENS_20_Default_ranged_hashENS_17_Hashtable_traitsILb1ELb0ELb1EEEE9_M_equalsERS8_mRKNS_16_Hash_node_valueIS9_Lb1EEE = comdat any

$_ZNKSt10_HashtableINSt7__cxx1112basic_stringIcSt11char_traitsIcESaIcEEESt4pairIKS5_iESaIS8_ENSt8__detail10_Select1stESt8equal_toIS5_ESt4hashIS5_ENSA_18_Mod_range_hashingENSA_20_Default_ranged_hashENSA_20_Prime_rehash_policyENSA_17_Hashtable_traitsILb1ELb0ELb1EEEE15_M_bucket_indexERKNSA_16_Hash_node_valueIS8_Lb1EEE = comdat any

$_ZNKSt8__detail10_Hash_nodeISt4pairIKNSt7__cxx1112basic_stringIcSt11char_traitsIcESaIcEEEiELb1EE7_M_nextEv = comdat any

$_ZNSt8__detail15_Hashtable_baseINSt7__cxx1112basic_stringIcSt11char_traitsIcESaIcEEESt4pairIKS6_iENS_10_Select1stESt8equal_toIS6_ESt4hashIS6_ENS_18_Mod_range_hashingENS_20_Default_ranged_hashENS_17_Hashtable_traitsILb1ELb0ELb1EEEE9_S_equalsEmRKNS_21_Hash_node_code_cacheILb1EEE = comdat any

$_ZNKSt8__detail15_Hashtable_baseINSt7__cxx1112basic_stringIcSt11char_traitsIcESaIcEEESt4pairIKS6_iENS_10_Select1stESt8equal_toIS6_ESt4hashIS6_ENS_18_Mod_range_hashingENS_20_Default_ranged_hashENS_17_Hashtable_traitsILb1ELb0ELb1EEEE5_M_eqEv = comdat any

$_ZNKSt8equal_toINSt7__cxx1112basic_stringIcSt11char_traitsIcESaIcEEEEclERKS5_S8_ = comdat any

$_ZNKSt8__detail10_Select1stclIRKSt4pairIKNSt7__cxx1112basic_stringIcSt11char_traitsIcESaIcEEEiEEEDTclsr3stdE3getILi0EEclsr3stdE7forwardIT_Efp_EEEOSD_ = comdat any

$_ZNKSt8__detail21_Hash_node_value_baseISt4pairIKNSt7__cxx1112basic_stringIcSt11char_traitsIcESaIcEEEiEE4_M_vEv = comdat any

$_ZNKSt8__detail21_Hashtable_ebo_helperILi0ESt8equal_toINSt7__cxx1112basic_stringIcSt11char_traitsIcESaIcEEEELb1EE7_M_cgetEv = comdat any

$_ZSteqIcEN9__gnu_cxx11__enable_ifIXsr9__is_charIT_EE7__valueEbE6__typeERKNSt7__cxx1112basic_stringIS2_St11char_traitsIS2_ESaIS2_EEESC_ = comdat any

$_ZNSt11char_traitsIcE7compareEPKcS2_m = comdat any

$_ZSt3getILm0EKNSt7__cxx1112basic_stringIcSt11char_traitsIcESaIcEEEiERKNSt13tuple_elementIXT_ESt4pairIT0_T1_EE4typeERKSB_ = comdat any

$_ZSt7forwardIRKSt4pairIKNSt7__cxx1112basic_stringIcSt11char_traitsIcESaIcEEEiEEOT_RNSt16remove_referenceISB_E4typeE = comdat any

$_ZNSt10__pair_getILm0EE11__const_getIKNSt7__cxx1112basic_stringIcSt11char_traitsIcESaIcEEEiEERKT_RKSt4pairIS9_T0_E = comdat any

$_ZNKSt8__detail21_Hash_node_value_baseISt4pairIKNSt7__cxx1112basic_stringIcSt11char_traitsIcESaIcEEEiEE9_M_valptrEv = comdat any

$_ZNK9__gnu_cxx16__aligned_bufferISt4pairIKNSt7__cxx1112basic_stringIcSt11char_traitsIcESaIcEEEiEE6_M_ptrEv = comdat any

$_ZNK9__gnu_cxx16__aligned_bufferISt4pairIKNSt7__cxx1112basic_stringIcSt11char_traitsIcESaIcEEEiEE7_M_addrEv = comdat any

$_ZNKSt8__detail15_Hash_code_baseINSt7__cxx1112basic_stringIcSt11char_traitsIcESaIcEEESt4pairIKS6_iENS_10_Select1stESt4hashIS6_ENS_18_Mod_range_hashingENS_20_Default_ranged_hashELb1EE15_M_bucket_indexERKNS_16_Hash_node_valueIS9_Lb1EEEm = comdat any

$_ZSt10__distanceINSt8__detail14_Node_iteratorISt4pairIKNSt7__cxx1112basic_stringIcSt11char_traitsIcESaIcEEEiELb0ELb1EEEENSt15iterator_traitsIT_E15difference_typeESD_SD_St18input_iterator_tag = comdat any

$_ZSt19__iterator_categoryINSt8__detail14_Node_iteratorISt4pairIKNSt7__cxx1112basic_stringIcSt11char_traitsIcESaIcEEEiELb0ELb1EEEENSt15iterator_traitsIT_E17iterator_categoryERKSD_ = comdat any

$_ZNSt8__detail14_Node_iteratorISt4pairIKNSt7__cxx1112basic_stringIcSt11char_traitsIcESaIcEEEiELb0ELb1EEppEv = comdat any

$_ZNSt8__detail19_Node_iterator_baseISt4pairIKNSt7__cxx1112basic_stringIcSt11char_traitsIcESaIcEEEiELb1EE7_M_incrEv = comdat any

$_ZNSt10_HashtableINSt7__cxx1112basic_stringIcSt11char_traitsIcESaIcEEESt4pairIKS5_iESaIS8_ENSt8__detail10_Select1stESt8equal_toIS5_ESt4hashIS5_ENSA_18_Mod_range_hashingENSA_20_Default_ranged_hashENSA_20_Prime_rehash_policyENSA_17_Hashtable_traitsILb1ELb0ELb1EEEE3endEv = comdat any

$_ZNSt8__detail21_Hash_node_value_baseISt4pairIKNSt7__cxx1112basic_stringIcSt11char_traitsIcESaIcEEEiEE9_M_valptrEv = comdat any

$_ZN9__gnu_cxx16__aligned_bufferISt4pairIKNSt7__cxx1112basic_stringIcSt11char_traitsIcESaIcEEEiEE6_M_ptrEv = comdat any

$_ZN9__gnu_cxx16__aligned_bufferISt4pairIKNSt7__cxx1112basic_stringIcSt11char_traitsIcESaIcEEEiEE7_M_addrEv = comdat any

$_ZNSt10_HashtableINSt7__cxx1112basic_stringIcSt11char_traitsIcESaIcEEESt4pairIKS5_iESaIS8_ENSt8__detail10_Select1stESt8equal_toIS5_ESt4hashIS5_ENSA_18_Mod_range_hashingENSA_20_Default_ranged_hashENSA_20_Prime_rehash_policyENSA_17_Hashtable_traitsILb1ELb0ELb1EEEE7emplaceIJS6_IS5_iEEEES6_INSA_14_Node_iteratorIS8_Lb0ELb1EEEbEDpOT_ = comdat any

$_ZSt7forwardISt4pairINSt7__cxx1112basic_stringIcSt11char_traitsIcESaIcEEEiEEOT_RNSt16remove_referenceIS8_E4typeE = comdat any

$_ZNSt10_HashtableINSt7__cxx1112basic_stringIcSt11char_traitsIcESaIcEEESt4pairIKS5_iESaIS8_ENSt8__detail10_Select1stESt8equal_toIS5_ESt4hashIS5_ENSA_18_Mod_range_hashingENSA_20_Default_ranged_hashENSA_20_Prime_rehash_policyENSA_17_Hashtable_traitsILb1ELb0ELb1EEEE10_M_emplaceIJS6_IS5_iEEEES6_INSA_14_Node_iteratorIS8_Lb0ELb1EEEbESt17integral_constantIbLb1EEDpOT_ = comdat any

$_ZNSt10_HashtableINSt7__cxx1112basic_stringIcSt11char_traitsIcESaIcEEESt4pairIKS5_iESaIS8_ENSt8__detail10_Select1stESt8equal_toIS5_ESt4hashIS5_ENSA_18_Mod_range_hashingENSA_20_Default_ranged_hashENSA_20_Prime_rehash_policyENSA_17_Hashtable_traitsILb1ELb0ELb1EEEE12_Scoped_nodeC2IJS6_IS5_iEEEEPNSA_16_Hashtable_allocISaINSA_10_Hash_nodeIS8_Lb1EEEEEEDpOT_ = comdat any

$_ZNKSt8__detail10_Select1stclIRSt4pairIKNSt7__cxx1112basic_stringIcSt11char_traitsIcESaIcEEEiEEEDTclsr3stdE3getILi0EEclsr3stdE7forwardIT_Efp_EEEOSC_ = comdat any

$_ZNSt8__detail21_Hash_node_value_baseISt4pairIKNSt7__cxx1112basic_stringIcSt11char_traitsIcESaIcEEEiEE4_M_vEv = comdat any

$_ZSt9make_pairINSt8__detail14_Node_iteratorISt4pairIKNSt7__cxx1112basic_stringIcSt11char_traitsIcESaIcEEEiELb0ELb1EEEbES2_INSt25__strip_reference_wrapperINSt5decayIT_E4typeEE6__typeENSC_INSD_IT0_E4typeEE6__typeEEOSE_OSJ_ = comdat any

$_ZNSt10_HashtableINSt7__cxx1112basic_stringIcSt11char_traitsIcESaIcEEESt4pairIKS5_iESaIS8_ENSt8__detail10_Select1stESt8equal_toIS5_ESt4hashIS5_ENSA_18_Mod_range_hashingENSA_20_Default_ranged_hashENSA_20_Prime_rehash_policyENSA_17_Hashtable_traitsILb1ELb0ELb1EEEE21_M_insert_unique_nodeEmmPNSA_10_Hash_nodeIS8_Lb1EEEm = comdat any

$_ZNSt4pairINSt8__detail14_Node_iteratorIS_IKNSt7__cxx1112basic_stringIcSt11char_traitsIcESaIcEEEiELb0ELb1EEEbEC2IRSA_bLb1EEEOT_OT0_ = comdat any

$_ZNSt10_HashtableINSt7__cxx1112basic_stringIcSt11char_traitsIcESaIcEEESt4pairIKS5_iESaIS8_ENSt8__detail10_Select1stESt8equal_toIS5_ESt4hashIS5_ENSA_18_Mod_range_hashingENSA_20_Default_ranged_hashENSA_20_Prime_rehash_policyENSA_17_Hashtable_traitsILb1ELb0ELb1EEEE12_Scoped_nodeD2Ev = comdat any

$_ZNSt8__detail16_Hashtable_allocISaINS_10_Hash_nodeISt4pairIKNSt7__cxx1112basic_stringIcSt11char_traitsIcESaIcEEEiELb1EEEEE16_M_allocate_nodeIJS2_IS8_iEEEEPSB_DpOT_ = comdat any

$_ZNSt16allocator_traitsISaINSt8__detail10_Hash_nodeISt4pairIKNSt7__cxx1112basic_stringIcSt11char_traitsIcESaIcEEEiELb1EEEEE8allocateERSC_m = comdat any

$_ZNSt8__detail16_Hashtable_allocISaINS_10_Hash_nodeISt4pairIKNSt7__cxx1112basic_stringIcSt11char_traitsIcESaIcEEEiELb1EEEEE17_M_node_allocatorEv = comdat any

$_ZSt12__to_addressINSt8__detail10_Hash_nodeISt4pairIKNSt7__cxx1112basic_stringIcSt11char_traitsIcESaIcEEEiELb1EEEEPT_SD_ = comdat any

$_ZNSt8__detail10_Hash_nodeISt4pairIKNSt7__cxx1112basic_stringIcSt11char_traitsIcESaIcEEEiELb1EEC2Ev = comdat any

$_ZNSt16allocator_traitsISaINSt8__detail10_Hash_nodeISt4pairIKNSt7__cxx1112basic_stringIcSt11char_traitsIcESaIcEEEiELb1EEEEE9constructISA_JS2_IS8_iEEEEvRSC_PT_DpOT0_ = comdat any

$_ZNSt16allocator_traitsISaINSt8__detail10_Hash_nodeISt4pairIKNSt7__cxx1112basic_stringIcSt11char_traitsIcESaIcEEEiELb1EEEEE10deallocateERSC_PSB_m = comdat any

$_ZN9__gnu_cxx13new_allocatorINSt8__detail10_Hash_nodeISt4pairIKNSt7__cxx1112basic_stringIcSt11char_traitsIcESaIcEEEiELb1EEEE8allocateEmPKv = comdat any

$_ZNK9__gnu_cxx13new_allocatorINSt8__detail10_Hash_nodeISt4pairIKNSt7__cxx1112basic_stringIcSt11char_traitsIcESaIcEEEiELb1EEEE11_M_max_sizeEv = comdat any

$_ZNSt8__detail21_Hashtable_ebo_helperILi0ESaINS_10_Hash_nodeISt4pairIKNSt7__cxx1112basic_stringIcSt11char_traitsIcESaIcEEEiELb1EEEELb1EE6_M_getEv = comdat any

$_ZN9__gnu_cxx13new_allocatorINSt8__detail10_Hash_nodeISt4pairIKNSt7__cxx1112basic_stringIcSt11char_traitsIcESaIcEEEiELb1EEEE9constructISB_JS3_IS9_iEEEEvPT_DpOT0_ = comdat any

$_ZNSt4pairIKNSt7__cxx1112basic_stringIcSt11char_traitsIcESaIcEEEiEC2IS5_iLb1EEEOS_IT_T0_E = comdat any

$_ZSt7forwardINSt7__cxx1112basic_stringIcSt11char_traitsIcESaIcEEEEOT_RNSt16remove_referenceIS6_E4typeE = comdat any

$_ZSt7forwardIiEOT_RNSt16remove_referenceIS0_E4typeE = comdat any

$_ZN9__gnu_cxx13new_allocatorINSt8__detail10_Hash_nodeISt4pairIKNSt7__cxx1112basic_stringIcSt11char_traitsIcESaIcEEEiELb1EEEE10deallocateEPSC_m = comdat any

$_ZSt3getILm0EKNSt7__cxx1112basic_stringIcSt11char_traitsIcESaIcEEEiERNSt13tuple_elementIXT_ESt4pairIT0_T1_EE4typeERSB_ = comdat any

$_ZSt7forwardIRSt4pairIKNSt7__cxx1112basic_stringIcSt11char_traitsIcESaIcEEEiEEOT_RNSt16remove_referenceISA_E4typeE = comdat any

$_ZNSt10__pair_getILm0EE5__getIKNSt7__cxx1112basic_stringIcSt11char_traitsIcESaIcEEEiEERT_RSt4pairIS9_T0_E = comdat any

$_ZSt7forwardINSt8__detail14_Node_iteratorISt4pairIKNSt7__cxx1112basic_stringIcSt11char_traitsIcESaIcEEEiELb0ELb1EEEEOT_RNSt16remove_referenceISC_E4typeE = comdat any

$_ZSt7forwardIbEOT_RNSt16remove_referenceIS0_E4typeE = comdat any

$_ZNSt4pairINSt8__detail14_Node_iteratorIS_IKNSt7__cxx1112basic_stringIcSt11char_traitsIcESaIcEEEiELb0ELb1EEEbEC2ISA_bLb1EEEOT_OT0_ = comdat any

$_ZNKSt8__detail20_Prime_rehash_policy8_M_stateEv = comdat any

$_ZNSt10_HashtableINSt7__cxx1112basic_stringIcSt11char_traitsIcESaIcEEESt4pairIKS5_iESaIS8_ENSt8__detail10_Select1stESt8equal_toIS5_ESt4hashIS5_ENSA_18_Mod_range_hashingENSA_20_Default_ranged_hashENSA_20_Prime_rehash_policyENSA_17_Hashtable_traitsILb1ELb0ELb1EEEE9_M_rehashEmRKm = comdat any

$_ZNKSt8__detail15_Hash_code_baseINSt7__cxx1112basic_stringIcSt11char_traitsIcESaIcEEESt4pairIKS6_iENS_10_Select1stESt4hashIS6_ENS_18_Mod_range_hashingENS_20_Default_ranged_hashELb1EE13_M_store_codeERNS_21_Hash_node_code_cacheILb1EEEm = comdat any

$_ZNSt10_HashtableINSt7__cxx1112basic_stringIcSt11char_traitsIcESaIcEEESt4pairIKS5_iESaIS8_ENSt8__detail10_Select1stESt8equal_toIS5_ESt4hashIS5_ENSA_18_Mod_range_hashingENSA_20_Default_ranged_hashENSA_20_Prime_rehash_policyENSA_17_Hashtable_traitsILb1ELb0ELb1EEEE22_M_insert_bucket_beginEmPNSA_10_Hash_nodeIS8_Lb1EEE = comdat any

$_ZNSt10_HashtableINSt7__cxx1112basic_stringIcSt11char_traitsIcESaIcEEESt4pairIKS5_iESaIS8_ENSt8__detail10_Select1stESt8equal_toIS5_ESt4hashIS5_ENSA_18_Mod_range_hashingENSA_20_Default_ranged_hashENSA_20_Prime_rehash_policyENSA_17_Hashtable_traitsILb1ELb0ELb1EEEE13_M_rehash_auxEmSt17integral_constantIbLb1EE = comdat any

$_ZNSt8__detail20_Prime_rehash_policy8_M_resetEm = comdat any

$_ZNSt10_HashtableINSt7__cxx1112basic_stringIcSt11char_traitsIcESaIcEEESt4pairIKS5_iESaIS8_ENSt8__detail10_Select1stESt8equal_toIS5_ESt4hashIS5_ENSA_18_Mod_range_hashingENSA_20_Default_ranged_hashENSA_20_Prime_rehash_policyENSA_17_Hashtable_traitsILb1ELb0ELb1EEEE19_M_allocate_bucketsEm = comdat any

$_ZNSt10_HashtableINSt7__cxx1112basic_stringIcSt11char_traitsIcESaIcEEESt4pairIKS5_iESaIS8_ENSt8__detail10_Select1stESt8equal_toIS5_ESt4hashIS5_ENSA_18_Mod_range_hashingENSA_20_Default_ranged_hashENSA_20_Prime_rehash_policyENSA_17_Hashtable_traitsILb1ELb0ELb1EEEE21_M_deallocate_bucketsEv = comdat any

$_ZNSt8__detail16_Hashtable_allocISaINS_10_Hash_nodeISt4pairIKNSt7__cxx1112basic_stringIcSt11char_traitsIcESaIcEEEiELb1EEEEE19_M_allocate_bucketsEm = comdat any

$_ZNSaIPNSt8__detail15_Hash_node_baseEEC2INS_10_Hash_nodeISt4pairIKNSt7__cxx1112basic_stringIcSt11char_traitsIcESaIcEEEiELb1EEEEERKSaIT_E = comdat any

$_ZNSt16allocator_traitsISaIPNSt8__detail15_Hash_node_baseEEE8allocateERS3_m = comdat any

$_ZSt12__to_addressIPNSt8__detail15_Hash_node_baseEEPT_S4_ = comdat any

$_ZNSaIPNSt8__detail15_Hash_node_baseEED2Ev = comdat any

$_ZN9__gnu_cxx13new_allocatorIPNSt8__detail15_Hash_node_baseEEC2Ev = comdat any

$_ZN9__gnu_cxx13new_allocatorIPNSt8__detail15_Hash_node_baseEE8allocateEmPKv = comdat any

$_ZNK9__gnu_cxx13new_allocatorIPNSt8__detail15_Hash_node_baseEE11_M_max_sizeEv = comdat any

$_ZN9__gnu_cxx13new_allocatorIPNSt8__detail15_Hash_node_baseEED2Ev = comdat any

$_ZNSt10_HashtableINSt7__cxx1112basic_stringIcSt11char_traitsIcESaIcEEESt4pairIKS5_iESaIS8_ENSt8__detail10_Select1stESt8equal_toIS5_ESt4hashIS5_ENSA_18_Mod_range_hashingENSA_20_Default_ranged_hashENSA_20_Prime_rehash_policyENSA_17_Hashtable_traitsILb1ELb0ELb1EEEE21_M_deallocate_bucketsEPPNSA_15_Hash_node_baseEm = comdat any

$_ZNKSt10_HashtableINSt7__cxx1112basic_stringIcSt11char_traitsIcESaIcEEESt4pairIKS5_iESaIS8_ENSt8__detail10_Select1stESt8equal_toIS5_ESt4hashIS5_ENSA_18_Mod_range_hashingENSA_20_Default_ranged_hashENSA_20_Prime_rehash_policyENSA_17_Hashtable_traitsILb1ELb0ELb1EEEE21_M_uses_single_bucketEPPNSA_15_Hash_node_baseE = comdat any

$_ZNSt8__detail16_Hashtable_allocISaINS_10_Hash_nodeISt4pairIKNSt7__cxx1112basic_stringIcSt11char_traitsIcESaIcEEEiELb1EEEEE21_M_deallocate_bucketsEPPNS_15_Hash_node_baseEm = comdat any

$_ZNSt14pointer_traitsIPPNSt8__detail15_Hash_node_baseEE10pointer_toERS2_ = comdat any

$_ZNSt16allocator_traitsISaIPNSt8__detail15_Hash_node_baseEEE10deallocateERS3_PS2_m = comdat any

$_ZSt9addressofIPNSt8__detail15_Hash_node_baseEEPT_RS3_ = comdat any

$_ZSt11__addressofIPNSt8__detail15_Hash_node_baseEEPT_RS3_ = comdat any

$_ZN9__gnu_cxx13new_allocatorIPNSt8__detail15_Hash_node_baseEE10deallocateEPS3_m = comdat any

$_ZSt7forwardIRNSt8__detail14_Node_iteratorISt4pairIKNSt7__cxx1112basic_stringIcSt11char_traitsIcESaIcEEEiELb0ELb1EEEEOT_RNSt16remove_referenceISD_E4typeE = comdat any

$_ZNSt8__detail16_Hashtable_allocISaINS_10_Hash_nodeISt4pairIKNSt7__cxx1112basic_stringIcSt11char_traitsIcESaIcEEEiELb1EEEEE18_M_deallocate_nodeEPSB_ = comdat any

$_ZNSt16allocator_traitsISaINSt8__detail10_Hash_nodeISt4pairIKNSt7__cxx1112basic_stringIcSt11char_traitsIcESaIcEEEiELb1EEEEE7destroyISA_EEvRSC_PT_ = comdat any

$_ZNSt8__detail16_Hashtable_allocISaINS_10_Hash_nodeISt4pairIKNSt7__cxx1112basic_stringIcSt11char_traitsIcESaIcEEEiELb1EEEEE22_M_deallocate_node_ptrEPSB_ = comdat any

$_ZN9__gnu_cxx13new_allocatorINSt8__detail10_Hash_nodeISt4pairIKNSt7__cxx1112basic_stringIcSt11char_traitsIcESaIcEEEiELb1EEEE7destroyISB_EEvPT_ = comdat any

$_ZNSt14pointer_traitsIPNSt8__detail10_Hash_nodeISt4pairIKNSt7__cxx1112basic_stringIcSt11char_traitsIcESaIcEEEiELb1EEEE10pointer_toERSB_ = comdat any

$_ZSt9addressofINSt8__detail10_Hash_nodeISt4pairIKNSt7__cxx1112basic_stringIcSt11char_traitsIcESaIcEEEiELb1EEEEPT_RSC_ = comdat any

$_ZSt11__addressofINSt8__detail10_Hash_nodeISt4pairIKNSt7__cxx1112basic_stringIcSt11char_traitsIcESaIcEEEiELb1EEEEPT_RSC_ = comdat any

$_ZNKSt10_HashtableINSt7__cxx1112basic_stringIcSt11char_traitsIcESaIcEEESt4pairIKS5_iESaIS8_ENSt8__detail10_Select1stESt8equal_toIS5_ESt4hashIS5_ENSA_18_Mod_range_hashingENSA_20_Default_ranged_hashENSA_20_Prime_rehash_policyENSA_17_Hashtable_traitsILb1ELb0ELb1EEEE5beginEv = comdat any

$_ZNSt8__detail20_Node_const_iteratorISt4pairIKNSt7__cxx1112basic_stringIcSt11char_traitsIcESaIcEEEiELb0ELb1EEC2EPNS_10_Hash_nodeIS9_Lb1EEE = comdat any

$_ZNKSt10_HashtableINSt7__cxx1112basic_stringIcSt11char_traitsIcESaIcEEESt4pairIKS5_iESaIS8_ENSt8__detail10_Select1stESt8equal_toIS5_ESt4hashIS5_ENSA_18_Mod_range_hashingENSA_20_Default_ranged_hashENSA_20_Prime_rehash_policyENSA_17_Hashtable_traitsILb1ELb0ELb1EEEE3endEv = comdat any

$_ZNSt8_Rb_treeINSt7__cxx1112basic_stringIcSt11char_traitsIcESaIcEEESt4pairIKS5_iESt10_Select1stIS8_ESt4lessIS5_ESaIS8_EE5beginEv = comdat any

$_ZNSt8_Rb_treeINSt7__cxx1112basic_stringIcSt11char_traitsIcESaIcEEESt4pairIKS5_iESt10_Select1stIS8_ESt4lessIS5_ESaIS8_EE21_M_insert_range_equalISt17_Rb_tree_iteratorIS8_EEENSt9enable_ifIXsr17__same_value_typeIT_EE5valueEvE4typeESJ_SJ_ = comdat any

$_ZNSt8_Rb_treeINSt7__cxx1112basic_stringIcSt11char_traitsIcESaIcEEESt4pairIKS5_iESt10_Select1stIS8_ESt4lessIS5_ESaIS8_EE11_Alloc_nodeC2ERSE_ = comdat any

$_ZStneRKSt17_Rb_tree_iteratorISt4pairIKNSt7__cxx1112basic_stringIcSt11char_traitsIcESaIcEEEiEESB_ = comdat any

$_ZNSt8_Rb_treeINSt7__cxx1112basic_stringIcSt11char_traitsIcESaIcEEESt4pairIKS5_iESt10_Select1stIS8_ESt4lessIS5_ESaIS8_EE16_M_insert_equal_IRS8_NSE_11_Alloc_nodeEEESt17_Rb_tree_iteratorIS8_ESt23_Rb_tree_const_iteratorIS8_EOT_RT0_ = comdat any

$_ZNSt23_Rb_tree_const_iteratorISt4pairIKNSt7__cxx1112basic_stringIcSt11char_traitsIcESaIcEEEiEEC2ERKSt17_Rb_tree_iteratorIS8_E = comdat any

$_ZNKSt17_Rb_tree_iteratorISt4pairIKNSt7__cxx1112basic_stringIcSt11char_traitsIcESaIcEEEiEEdeEv = comdat any

$_ZNSt17_Rb_tree_iteratorISt4pairIKNSt7__cxx1112basic_stringIcSt11char_traitsIcESaIcEEEiEEppEv = comdat any

$_ZNSt8_Rb_treeINSt7__cxx1112basic_stringIcSt11char_traitsIcESaIcEEESt4pairIKS5_iESt10_Select1stIS8_ESt4lessIS5_ESaIS8_EE28_M_get_insert_hint_equal_posESt23_Rb_tree_const_iteratorIS8_ERS7_ = comdat any

$_ZNKSt10_Select1stISt4pairIKNSt7__cxx1112basic_stringIcSt11char_traitsIcESaIcEEEiEEclERS8_ = comdat any

$_ZNSt8_Rb_treeINSt7__cxx1112basic_stringIcSt11char_traitsIcESaIcEEESt4pairIKS5_iESt10_Select1stIS8_ESt4lessIS5_ESaIS8_EE10_M_insert_IRS8_NSE_11_Alloc_nodeEEESt17_Rb_tree_iteratorIS8_EPSt18_Rb_tree_node_baseSL_OT_RT0_ = comdat any

$_ZNSt8_Rb_treeINSt7__cxx1112basic_stringIcSt11char_traitsIcESaIcEEESt4pairIKS5_iESt10_Select1stIS8_ESt4lessIS5_ESaIS8_EE21_M_insert_equal_lowerIRS8_EESt17_Rb_tree_iteratorIS8_EOT_ = comdat any

$_ZNKSt23_Rb_tree_const_iteratorISt4pairIKNSt7__cxx1112basic_stringIcSt11char_traitsIcESaIcEEEiEE13_M_const_castEv = comdat any

$_ZNKSt8_Rb_treeINSt7__cxx1112basic_stringIcSt11char_traitsIcESaIcEEESt4pairIKS5_iESt10_Select1stIS8_ESt4lessIS5_ESaIS8_EE4sizeEv = comdat any

$_ZNSt8_Rb_treeINSt7__cxx1112basic_stringIcSt11char_traitsIcESaIcEEESt4pairIKS5_iESt10_Select1stIS8_ESt4lessIS5_ESaIS8_EE12_M_rightmostEv = comdat any

$_ZNSt4pairIPSt18_Rb_tree_node_baseS1_EC2IRS1_Lb1EEERKS1_OT_ = comdat any

$_ZNSt8_Rb_treeINSt7__cxx1112basic_stringIcSt11char_traitsIcESaIcEEESt4pairIKS5_iESt10_Select1stIS8_ESt4lessIS5_ESaIS8_EE23_M_get_insert_equal_posERS7_ = comdat any

$_ZNSt8_Rb_treeINSt7__cxx1112basic_stringIcSt11char_traitsIcESaIcEEESt4pairIKS5_iESt10_Select1stIS8_ESt4lessIS5_ESaIS8_EE11_M_leftmostEv = comdat any

$_ZNSt4pairIPSt18_Rb_tree_node_baseS1_EC2IRS1_S4_Lb1EEEOT_OT0_ = comdat any

$_ZNSt17_Rb_tree_iteratorISt4pairIKNSt7__cxx1112basic_stringIcSt11char_traitsIcESaIcEEEiEEmmEv = comdat any

$_ZNSt4pairIPSt18_Rb_tree_node_baseS1_EC2IS1_S1_Lb1EEERKS1_S5_ = comdat any

$_ZSt7forwardIRPSt18_Rb_tree_node_baseEOT_RNSt16remove_referenceIS3_E4typeE = comdat any

$_ZNSt4pairIPSt18_Rb_tree_node_baseS1_EC2IRPSt13_Rb_tree_nodeIS_IKNSt7__cxx1112basic_stringIcSt11char_traitsIcESaIcEEEiEERS1_Lb1EEEOT_OT0_ = comdat any

$_ZSt7forwardIRPSt13_Rb_tree_nodeISt4pairIKNSt7__cxx1112basic_stringIcSt11char_traitsIcESaIcEEEiEEEOT_RNSt16remove_referenceISD_E4typeE = comdat any

$_ZNKSt8_Rb_treeINSt7__cxx1112basic_stringIcSt11char_traitsIcESaIcEEESt4pairIKS5_iESt10_Select1stIS8_ESt4lessIS5_ESaIS8_EE11_Alloc_nodeclIRS8_EEPSt13_Rb_tree_nodeIS8_EOT_ = comdat any

$_ZNSt8_Rb_treeINSt7__cxx1112basic_stringIcSt11char_traitsIcESaIcEEESt4pairIKS5_iESt10_Select1stIS8_ESt4lessIS5_ESaIS8_EE14_M_create_nodeIJRS8_EEEPSt13_Rb_tree_nodeIS8_EDpOT_ = comdat any

$_ZNSt8_Rb_treeINSt7__cxx1112basic_stringIcSt11char_traitsIcESaIcEEESt4pairIKS5_iESt10_Select1stIS8_ESt4lessIS5_ESaIS8_EE11_M_get_nodeEv = comdat any

$_ZNSt8_Rb_treeINSt7__cxx1112basic_stringIcSt11char_traitsIcESaIcEEESt4pairIKS5_iESt10_Select1stIS8_ESt4lessIS5_ESaIS8_EE17_M_construct_nodeIJRS8_EEEvPSt13_Rb_tree_nodeIS8_EDpOT_ = comdat any

$_ZNSt16allocator_traitsISaISt13_Rb_tree_nodeISt4pairIKNSt7__cxx1112basic_stringIcSt11char_traitsIcESaIcEEEiEEEE8allocateERSB_m = comdat any

$_ZN9__gnu_cxx13new_allocatorISt13_Rb_tree_nodeISt4pairIKNSt7__cxx1112basic_stringIcSt11char_traitsIcESaIcEEEiEEE8allocateEmPKv = comdat any

$_ZNK9__gnu_cxx13new_allocatorISt13_Rb_tree_nodeISt4pairIKNSt7__cxx1112basic_stringIcSt11char_traitsIcESaIcEEEiEEE11_M_max_sizeEv = comdat any

$_ZNSt16allocator_traitsISaISt13_Rb_tree_nodeISt4pairIKNSt7__cxx1112basic_stringIcSt11char_traitsIcESaIcEEEiEEEE9constructIS9_JRS9_EEEvRSB_PT_DpOT0_ = comdat any

$_ZN9__gnu_cxx13new_allocatorISt13_Rb_tree_nodeISt4pairIKNSt7__cxx1112basic_stringIcSt11char_traitsIcESaIcEEEiEEE9constructISA_JRSA_EEEvPT_DpOT0_ = comdat any

$_ZNSt4pairIKNSt7__cxx1112basic_stringIcSt11char_traitsIcESaIcEEEiEC2ERKS7_ = comdat any

$_ZNSt8_Rb_treeINSt7__cxx1112basic_stringIcSt11char_traitsIcESaIcEEESt4pairIKS5_iESt10_Select1stIS8_ESt4lessIS5_ESaIS8_EE15_M_insert_lowerIRS8_EESt17_Rb_tree_iteratorIS8_EPSt18_Rb_tree_node_baseOT_ = comdat any

$_ZNKSt5dequeIiSaIiEE4sizeEv = comdat any

$_ZStmiRKSt15_Deque_iteratorIiRiPiES4_ = comdat any

$_ZNSt5dequeIiSaIiEE9pop_frontEv = comdat any

$_ZNSt16allocator_traitsISaIiEE7destroyIiEEvRS0_PT_ = comdat any

$_ZNSt5dequeIiSaIiEE16_M_pop_front_auxEv = comdat any

$_ZN9__gnu_cxx13new_allocatorIiE7destroyIiEEvPT_ = comdat any

$_ZNSt5dequeIiSaIiEE5frontEv = comdat any

$_ZNKSt15_Deque_iteratorIiRiPiEdeEv = comdat any

$_ZNSt5dequeIiSaIiEE9push_backERKi = comdat any

$_ZNSt16allocator_traitsISaIiEE9constructIiJRKiEEEvRS0_PT_DpOT0_ = comdat any

$_ZNSt5dequeIiSaIiEE16_M_push_back_auxIJRKiEEEvDpOT_ = comdat any

$_ZN9__gnu_cxx13new_allocatorIiE9constructIiJRKiEEEvPT_DpOT0_ = comdat any

$_ZSt7forwardIRKiEOT_RNSt16remove_referenceIS2_E4typeE = comdat any

$_ZNKSt5dequeIiSaIiEE8max_sizeEv = comdat any

$_ZNSt5dequeIiSaIiEE22_M_reserve_map_at_backEm = comdat any

$_ZNSt5dequeIiSaIiEE11_S_max_sizeERKS0_ = comdat any

$_ZNSt16allocator_traitsISaIiEE8max_sizeERKS0_ = comdat any

$_ZSt3minImERKT_S2_S2_ = comdat any

$_ZNK9__gnu_cxx13new_allocatorIiE8max_sizeEv = comdat any

$_ZNSt5dequeIiSaIiEE17_M_reallocate_mapEmb = comdat any

$_ZSt4copyIPPiS1_ET0_T_S3_S2_ = comdat any

$_ZSt13copy_backwardIPPiS1_ET0_T_S3_S2_ = comdat any

$_ZSt13__copy_move_aILb0EPPiS1_ET1_T0_S3_S2_ = comdat any

$_ZSt12__miter_baseIPPiET_S2_ = comdat any

$_ZSt12__niter_wrapIPPiET_RKS2_S2_ = comdat any

$_ZSt14__copy_move_a1ILb0EPPiS1_ET1_T0_S3_S2_ = comdat any

$_ZSt12__niter_baseIPPiET_S2_ = comdat any

$_ZSt14__copy_move_a2ILb0EPPiS1_ET1_T0_S3_S2_ = comdat any

$_ZNSt11__copy_moveILb0ELb1ESt26random_access_iterator_tagE8__copy_mIPiEEPT_PKS4_S7_S5_ = comdat any

$_ZSt22__copy_move_backward_aILb0EPPiS1_ET1_T0_S3_S2_ = comdat any

$_ZSt23__copy_move_backward_a1ILb0EPPiS1_ET1_T0_S3_S2_ = comdat any

$_ZSt23__copy_move_backward_a2ILb0EPPiS1_ET1_T0_S3_S2_ = comdat any

$_ZNSt20__copy_move_backwardILb0ELb1ESt26random_access_iterator_tagE13__copy_move_bIPiEEPT_PKS4_S7_S5_ = comdat any

$_ZNSt5dequeIiSaIiEE9push_backEOi = comdat any

$_ZSt4moveIRiEONSt16remove_referenceIT_E4typeEOS2_ = comdat any

$_ZNSt5dequeIiSaIiEE12emplace_backIJiEEEvDpOT_ = comdat any

$_ZNSt16allocator_traitsISaIiEE9constructIiJiEEEvRS0_PT_DpOT0_ = comdat any

$_ZNSt5dequeIiSaIiEE16_M_push_back_auxIJiEEEvDpOT_ = comdat any

$_ZN9__gnu_cxx13new_allocatorIiE9constructIiJiEEEvPT_DpOT0_ = comdat any

$_ZNSt5dequeIPFvvESaIS1_EEC2Ev = comdat any

$_ZNSt11_Deque_baseIPFvvESaIS1_EEC2Ev = comdat any

$_ZNSt11_Deque_baseIPFvvESaIS1_EE11_Deque_implC2Ev = comdat any

$_ZNSt11_Deque_baseIPFvvESaIS1_EE17_M_initialize_mapEm = comdat any

$_ZNSaIPFvvEEC2Ev = comdat any

$_ZNSt11_Deque_baseIPFvvESaIS1_EE16_Deque_impl_dataC2Ev = comdat any

$_ZN9__gnu_cxx13new_allocatorIPFvvEEC2Ev = comdat any

$_ZNSt15_Deque_iteratorIPFvvERS1_PS1_EC2Ev = comdat any

$_ZNSt11_Deque_baseIPFvvESaIS1_EE15_M_allocate_mapEm = comdat any

$_ZNSt11_Deque_baseIPFvvESaIS1_EE15_M_create_nodesEPPS1_S5_ = comdat any

$_ZNSt15_Deque_iteratorIPFvvERS1_PS1_E11_M_set_nodeEPS3_ = comdat any

$_ZNSt16allocator_traitsISaIPPFvvEEE8allocateERS3_m = comdat any

$_ZN9__gnu_cxx13new_allocatorIPPFvvEE8allocateEmPKv = comdat any

$_ZNK9__gnu_cxx13new_allocatorIPPFvvEE11_M_max_sizeEv = comdat any

$_ZNSt11_Deque_baseIPFvvESaIS1_EE16_M_allocate_nodeEv = comdat any

$_ZNSt16allocator_traitsISaIPFvvEEE8allocateERS2_m = comdat any

$_ZN9__gnu_cxx13new_allocatorIPFvvEE8allocateEmPKv = comdat any

$_ZNK9__gnu_cxx13new_allocatorIPFvvEE11_M_max_sizeEv = comdat any

$_ZNSt15_Deque_iteratorIPFvvERS1_PS1_E14_S_buffer_sizeEv = comdat any

$_ZNSt14__array_traitsIPFvvELm4EE6_S_refERA4_KS1_m = comdat any

$_ZNSt5dequeIPFvvESaIS1_EE9push_backERKS1_ = comdat any

$_ZNSt16allocator_traitsISaIPFvvEEE9constructIS1_JRKS1_EEEvRS2_PT_DpOT0_ = comdat any

$_ZNSt5dequeIPFvvESaIS1_EE16_M_push_back_auxIJRKS1_EEEvDpOT_ = comdat any

$_ZN9__gnu_cxx13new_allocatorIPFvvEE9constructIS2_JRKS2_EEEvPT_DpOT0_ = comdat any

$_ZSt7forwardIRKPFvvEEOT_RNSt16remove_referenceIS4_E4typeE = comdat any

$_ZNKSt5dequeIPFvvESaIS1_EE4sizeEv = comdat any

$_ZNKSt5dequeIPFvvESaIS1_EE8max_sizeEv = comdat any

$_ZNSt5dequeIPFvvESaIS1_EE22_M_reserve_map_at_backEm = comdat any

$_ZStmiRKSt15_Deque_iteratorIPFvvERS1_PS1_ES6_ = comdat any

$_ZNSt5dequeIPFvvESaIS1_EE11_S_max_sizeERKS2_ = comdat any

$_ZNSt16allocator_traitsISaIPFvvEEE8max_sizeERKS2_ = comdat any

$_ZNK9__gnu_cxx13new_allocatorIPFvvEE8max_sizeEv = comdat any

$_ZNSt5dequeIPFvvESaIS1_EE17_M_reallocate_mapEmb = comdat any

$_ZSt4copyIPPPFvvES3_ET0_T_S5_S4_ = comdat any

$_ZSt13copy_backwardIPPPFvvES3_ET0_T_S5_S4_ = comdat any

$_ZSt13__copy_move_aILb0EPPPFvvES3_ET1_T0_S5_S4_ = comdat any

$_ZSt12__miter_baseIPPPFvvEET_S4_ = comdat any

$_ZSt12__niter_wrapIPPPFvvEET_RKS4_S4_ = comdat any

$_ZSt14__copy_move_a1ILb0EPPPFvvES3_ET1_T0_S5_S4_ = comdat any

$_ZSt12__niter_baseIPPPFvvEET_S4_ = comdat any

$_ZSt14__copy_move_a2ILb0EPPPFvvES3_ET1_T0_S5_S4_ = comdat any

$_ZNSt11__copy_moveILb0ELb1ESt26random_access_iterator_tagE8__copy_mIPPFvvEEEPT_PKS6_S9_S7_ = comdat any

$_ZSt22__copy_move_backward_aILb0EPPPFvvES3_ET1_T0_S5_S4_ = comdat any

$_ZSt23__copy_move_backward_a1ILb0EPPPFvvES3_ET1_T0_S5_S4_ = comdat any

$_ZSt23__copy_move_backward_a2ILb0EPPPFvvES3_ET1_T0_S5_S4_ = comdat any

$_ZNSt20__copy_move_backwardILb0ELb1ESt26random_access_iterator_tagE13__copy_move_bIPPFvvEEEPT_PKS6_S9_S7_ = comdat any

$_ZNKSt5dequeIPFvvESaIS1_EE5emptyEv = comdat any

$_ZSteqRKSt15_Deque_iteratorIPFvvERS1_PS1_ES6_ = comdat any

$_ZNSt5dequeIPFvvESaIS1_EE5frontEv = comdat any

$_ZNKSt15_Deque_iteratorIPFvvERS1_PS1_EdeEv = comdat any

$_ZSt7forwardIRPFvvEEOT_RNSt16remove_referenceIS3_E4typeE = comdat any

$_ZNSt6thread11_State_implINS_8_InvokerISt5tupleIJPFvvEEEEEEC2IJRS4_EEEDpOT_ = comdat any

$_ZNSt10unique_ptrINSt6thread6_StateESt14default_deleteIS1_EEC2IS3_vEEPS1_ = comdat any

$_ZNSt10unique_ptrINSt6thread6_StateESt14default_deleteIS1_EED2Ev = comdat any

$_ZNSt6thread6_StateC2Ev = comdat any

$_ZNSt6thread8_InvokerISt5tupleIJPFvvEEEEC2IJRS3_EEEDpOT_ = comdat any

$_ZNSt6thread11_State_implINS_8_InvokerISt5tupleIJPFvvEEEEEED2Ev = comdat any

$_ZNSt6thread11_State_implINS_8_InvokerISt5tupleIJPFvvEEEEEED0Ev = comdat any

$_ZNSt6thread11_State_implINS_8_InvokerISt5tupleIJPFvvEEEEEE6_M_runEv = comdat any

$_ZNSt5tupleIJPFvvEEEC2IJRS1_ELb1ELb1EEEDpOT_ = comdat any

$_ZNSt11_Tuple_implILm0EJPFvvEEEC2IRS1_EEOT_ = comdat any

$_ZNSt10_Head_baseILm0EPFvvELb0EEC2IRS1_EEOT_ = comdat any

$_ZNSt6thread8_InvokerISt5tupleIJPFvvEEEEclEv = comdat any

$_ZNSt6thread8_InvokerISt5tupleIJPFvvEEEE9_M_invokeIJLm0EEEEvSt12_Index_tupleIJXspT_EEE = comdat any

$_ZSt8__invokeIPFvvEJEENSt15__invoke_resultIT_JDpT0_EE4typeEOS3_DpOS4_ = comdat any

$_ZSt3getILm0EJPFvvEEEONSt13tuple_elementIXT_ESt5tupleIJDpT0_EEE4typeEOS6_ = comdat any

$_ZSt4moveIRSt5tupleIJPFvvEEEEONSt16remove_referenceIT_E4typeEOS6_ = comdat any

$_ZSt13__invoke_implIvPFvvEJEET_St14__invoke_otherOT0_DpOT1_ = comdat any

$_ZSt7forwardIPFvvEEOT_RNSt16remove_referenceIS2_E4typeE = comdat any

$_ZSt12__get_helperILm0EPFvvEJEERT0_RSt11_Tuple_implIXT_EJS2_DpT1_EE = comdat any

$_ZNSt11_Tuple_implILm0EJPFvvEEE7_M_headERS2_ = comdat any

$_ZNSt10_Head_baseILm0EPFvvELb0EE7_M_headERS2_ = comdat any

$_ZNSt15__uniq_ptr_dataINSt6thread6_StateESt14default_deleteIS1_ELb1ELb1EECI2St15__uniq_ptr_implIS1_S3_EEPS1_ = comdat any

$_ZNSt15__uniq_ptr_implINSt6thread6_StateESt14default_deleteIS1_EEC2EPS1_ = comdat any

$_ZNSt5tupleIJPNSt6thread6_StateESt14default_deleteIS1_EEEC2ILb1ELb1EEEv = comdat any

$_ZNSt15__uniq_ptr_implINSt6thread6_StateESt14default_deleteIS1_EE6_M_ptrEv = comdat any

$_ZNSt11_Tuple_implILm0EJPNSt6thread6_StateESt14default_deleteIS1_EEEC2Ev = comdat any

$_ZNSt11_Tuple_implILm1EJSt14default_deleteINSt6thread6_StateEEEEC2Ev = comdat any

$_ZNSt10_Head_baseILm0EPNSt6thread6_StateELb0EEC2Ev = comdat any

$_ZNSt10_Head_baseILm1ESt14default_deleteINSt6thread6_StateEELb1EEC2Ev = comdat any

$_ZSt3getILm0EJPNSt6thread6_StateESt14default_deleteIS1_EEERNSt13tuple_elementIXT_ESt5tupleIJDpT0_EEE4typeERS9_ = comdat any

$_ZSt12__get_helperILm0EPNSt6thread6_StateEJSt14default_deleteIS1_EEERT0_RSt11_Tuple_implIXT_EJS5_DpT1_EE = comdat any

$_ZNSt11_Tuple_implILm0EJPNSt6thread6_StateESt14default_deleteIS1_EEE7_M_headERS5_ = comdat any

$_ZNSt10_Head_baseILm0EPNSt6thread6_StateELb0EE7_M_headERS3_ = comdat any

$_ZNSt10unique_ptrINSt6thread6_StateESt14default_deleteIS1_EE11get_deleterEv = comdat any

$_ZNKSt14default_deleteINSt6thread6_StateEEclEPS1_ = comdat any

$_ZSt4moveIRPNSt6thread6_StateEEONSt16remove_referenceIT_E4typeEOS5_ = comdat any

$_ZNSt15__uniq_ptr_implINSt6thread6_StateESt14default_deleteIS1_EE10_M_deleterEv = comdat any

$_ZSt3getILm1EJPNSt6thread6_StateESt14default_deleteIS1_EEERNSt13tuple_elementIXT_ESt5tupleIJDpT0_EEE4typeERS9_ = comdat any

$_ZSt12__get_helperILm1ESt14default_deleteINSt6thread6_StateEEJEERT0_RSt11_Tuple_implIXT_EJS4_DpT1_EE = comdat any

$_ZNSt11_Tuple_implILm1EJSt14default_deleteINSt6thread6_StateEEEE7_M_headERS4_ = comdat any

$_ZNSt10_Head_baseILm1ESt14default_deleteINSt6thread6_StateEELb1EE7_M_headERS4_ = comdat any

$_ZNSt5dequeIPFvvESaIS1_EE9pop_frontEv = comdat any

$_ZNSt16allocator_traitsISaIPFvvEEE7destroyIS1_EEvRS2_PT_ = comdat any

$_ZNSt5dequeIPFvvESaIS1_EE16_M_pop_front_auxEv = comdat any

$_ZN9__gnu_cxx13new_allocatorIPFvvEE7destroyIS2_EEvPT_ = comdat any

$_ZZNSt8__detail18__to_chars_10_implIjEEvPcjT_E8__digits = comdat any

$_ZTVNSt6thread11_State_implINS_8_InvokerISt5tupleIJPFvvEEEEEEE = comdat any

$_ZTSNSt6thread11_State_implINS_8_InvokerISt5tupleIJPFvvEEEEEEE = comdat any

$_ZTINSt6thread11_State_implINS_8_InvokerISt5tupleIJPFvvEEEEEEE = comdat any

@_ZN6baseIP9m_sys_rstE = dso_local global i8 0, align 1, !dbg !0
@_ZN6baseIP9m_sys_clkE = dso_local global i8 0, align 1, !dbg !4741
@.str = private unnamed_addr constant [20 x i8] c"Busy status set to \00", align 1
@.str.1 = private unnamed_addr constant [24 x i8] c"memory-mapped register \00", align 1
@.str.2 = private unnamed_addr constant [10 x i8] c"not found\00", align 1
@_ZN17system_memory_map17global_memory_mapB5cxx11E = dso_local global %"class.std::unordered_map"* null, align 8, !dbg !4743
@.str.3 = private unnamed_addr constant [23 x i8] c"Valid bit values are: \00", align 1
@.str.4 = private unnamed_addr constant [31 x i8] c"system memory-mapped register \00", align 1
@.str.5 = private unnamed_addr constant [11 x i8] c" not found\00", align 1
@.str.6 = private unnamed_addr constant [23 x i8] c" not valid, data stale\00", align 1
@valid_status = dso_local global i32 0, align 4, !dbg !4745
@.str.7 = private unnamed_addr constant [7 x i8] c"valid[\00", align 1
@.str.8 = private unnamed_addr constant [2 x i8] c"]\00", align 1
@.str.9 = private unnamed_addr constant [5 x i8] c" = 1\00", align 1
@.str.10 = private unnamed_addr constant [15 x i8] c" for register \00", align 1
@.str.11 = private unnamed_addr constant [20 x i8] c"system memory map: \00", align 1
@.str.12 = private unnamed_addr constant [13 x i8] c" DIRECTION: \00", align 1
@.str.13 = private unnamed_addr constant [4 x i8] c" , \00", align 1
@.str.14 = private unnamed_addr constant [8 x i8] c"VALUE: \00", align 1
@.str.15 = private unnamed_addr constant [6 x i8] c"INPUT\00", align 1
@.str.16 = private unnamed_addr constant [9 x i8] c"IFF REG \00", align 1
@.str.17 = private unnamed_addr constant [15 x i8] c" AND SourceID \00", align 1
@.str.18 = private unnamed_addr constant [40 x i8] c" AND DIRECTION MATCH, UPDATE SUCCESSFUL\00", align 1
@.str.19 = private unnamed_addr constant [39 x i8] c" AND DIRECTION MISMATCH, UPDATE FAILED\00", align 1
@_ZL15interfaceRegMapB5cxx11 = internal global %"class.std::multimap"* null, align 8, !dbg !4796
@_ZL11sourceIDMapB5cxx11 = internal global %"class.std::multimap"* null, align 8, !dbg !4800
@.str.20 = private unnamed_addr constant [25 x i8] c"Printing memory values:\0A\00", align 1
@.str.21 = private unnamed_addr constant [5 x i8] c"%d ,\00", align 1
@_ZN7slaveIP8m_ip_rstE = dso_local global i8 0, align 1, !dbg !4747
@.str.22 = private unnamed_addr constant [11 x i8] c"IP is busy\00", align 1
@.str.23 = private unnamed_addr constant [15 x i8] c"IP is not busy\00", align 1
@.str.24 = private unnamed_addr constant [19 x i8] c"fifo contents: %d\0A\00", align 1
@.str.25 = private unnamed_addr constant [12 x i8] c"FIFO empty\0A\00", align 1
@_ZStL8__ioinit = internal global %"class.std::ios_base::Init" zeroinitializer, align 1, !dbg !4749
@.str.27 = private unnamed_addr constant [38 x i8] c"[CRC] CALCULATED CHECKSUM IS: INT -> \00", align 1
@.str.28 = private unnamed_addr constant [31 x i8] c"[CRC] CRC Trigger not asserted\00", align 1
@.str.29 = private unnamed_addr constant [16 x i8] c"[SW] CRC MATCH!\00", align 1
@.str.30 = private unnamed_addr constant [19 x i8] c"[SW] CRC MISMATCH!\00", align 1
@reset_control = dso_local global %class.RESET_CONTROLLER* null, align 8, !dbg !4755
@crc = dso_local global %class.CRC_CONTROLLER* null, align 8, !dbg !4758
@timer = dso_local global %class.TIMER_CONTROLLER* null, align 8, !dbg !4761
@software = dso_local global %class.SOFTWARECONTROLLER* null, align 8, !dbg !4764
@interface = dso_local global %class.INTERFACES* null, align 8, !dbg !4767
@__event__timerSet = dso_local global i8 0, align 1, !dbg !4770
@__event__timerfinish = dso_local global i8 0, align 1, !dbg !4772
@__event__resetRequest = dso_local global i8 0, align 1, !dbg !4774
@__assertion__globalresetAssert = dso_local global i8 0, align 1, !dbg !4776
@__assertion__crcTriggerAssert = dso_local global i8 0, align 1, !dbg !4778
@__assertion__timerTriggerassert = dso_local global i8 0, align 1, !dbg !4780
@__const.main.func_arr = private unnamed_addr constant %"struct.std::array.20" { [4 x void ()*] [void ()* @_Z11resetDriverv, void ()* @_Z8swDriverv, void ()* @_Z9crcDriverv, void ()* @_Z11timerDriverv] }, align 8
@.str.36 = private unnamed_addr constant [10 x i8] c"next_func\00", align 1
@_ZZNSt8__detail18__to_chars_10_implIjEEvPcjT_E8__digits = linkonce_odr dso_local constant [201 x i8] c"00010203040506070809101112131415161718192021222324252627282930313233343536373839404142434445464748495051525354555657585960616263646566676869707172737475767778798081828384858687888990919293949596979899\00", comdat, align 16, !dbg !4782
@.str.37 = private unnamed_addr constant [7 x i8] c"glbRST\00", align 1
@.str.38 = private unnamed_addr constant [7 x i8] c"OUTPUT\00", align 1
@.str.39 = private unnamed_addr constant [4 x i8] c"req\00", align 1
@.str.40 = private unnamed_addr constant [11 x i8] c"crcTrigger\00", align 1
@.str.41 = private unnamed_addr constant [12 x i8] c"crcChecksum\00", align 1
@.str.42 = private unnamed_addr constant [9 x i8] c"duration\00", align 1
@.str.43 = private unnamed_addr constant [11 x i8] c"startTimer\00", align 1
@.str.44 = private unnamed_addr constant [10 x i8] c"timerDone\00", align 1
@.str.45 = private unnamed_addr constant [10 x i8] c"initTimer\00", align 1
@.str.46 = private unnamed_addr constant [14 x i8] c"timerDuration\00", align 1
@.str.47 = private unnamed_addr constant [8 x i8] c"initCRC\00", align 1
@.str.48 = private unnamed_addr constant [9 x i8] c"resetReq\00", align 1
@.str.49 = private unnamed_addr constant [11 x i8] c"swChecksum\00", align 1
@.str.50 = private unnamed_addr constant [9 x i8] c"timerEnd\00", align 1
@.str.51 = private unnamed_addr constant [48 x i8] c"cannot create std::deque larger than max_size()\00", align 1
@_ZTVNSt6thread11_State_implINS_8_InvokerISt5tupleIJPFvvEEEEEEE = linkonce_odr dso_local unnamed_addr constant { [5 x i8*] } { [5 x i8*] [i8* null, i8* bitcast ({ i8*, i8*, i8* }* @_ZTINSt6thread11_State_implINS_8_InvokerISt5tupleIJPFvvEEEEEEE to i8*), i8* bitcast (void (%"struct.std::thread::_State_impl"*)* @_ZNSt6thread11_State_implINS_8_InvokerISt5tupleIJPFvvEEEEEED2Ev to i8*), i8* bitcast (void (%"struct.std::thread::_State_impl"*)* @_ZNSt6thread11_State_implINS_8_InvokerISt5tupleIJPFvvEEEEEED0Ev to i8*), i8* bitcast (void (%"struct.std::thread::_State_impl"*)* @_ZNSt6thread11_State_implINS_8_InvokerISt5tupleIJPFvvEEEEEE6_M_runEv to i8*)] }, comdat, align 8
@_ZTVN10__cxxabiv120__si_class_type_infoE = external global i8*
@_ZTSNSt6thread11_State_implINS_8_InvokerISt5tupleIJPFvvEEEEEEE = linkonce_odr dso_local constant [59 x i8] c"NSt6thread11_State_implINS_8_InvokerISt5tupleIJPFvvEEEEEEE\00", comdat, align 1
@_ZTINSt6thread6_StateE = external constant i8*
@_ZTINSt6thread11_State_implINS_8_InvokerISt5tupleIJPFvvEEEEEEE = linkonce_odr dso_local constant { i8*, i8*, i8* } { i8* bitcast (i8** getelementptr inbounds (i8*, i8** @_ZTVN10__cxxabiv120__si_class_type_infoE, i64 2) to i8*), i8* getelementptr inbounds ([59 x i8], [59 x i8]* @_ZTSNSt6thread11_State_implINS_8_InvokerISt5tupleIJPFvvEEEEEEE, i32 0, i32 0), i8* bitcast (i8** @_ZTINSt6thread6_StateE to i8*) }, comdat, align 8
@_ZTVNSt6thread6_StateE = external unnamed_addr constant { [5 x i8*] }, align 8
@llvm.global_ctors = appending global [1 x { i32, void ()*, i8* }] [{ i32, void ()*, i8* } { i32 65535, void ()* @_GLOBAL__sub_I_spec4agent.cpp, i8* null }]
@__dso_handle = hidden global i8* null, align 8
@.str.26 = private unnamed_addr constant [81 x i8] c"/tmp/klee-20240103-39466-hqw711/klee-3.0/runtime/Intrinsic/klee_div_zero_check.c\00", align 1
@.str.1.27 = private unnamed_addr constant [15 x i8] c"divide by zero\00", align 1
@.str.2.28 = private unnamed_addr constant [8 x i8] c"div.err\00", align 1

; Function Attrs: mustprogress noinline nounwind uwtable
define dso_local void @_ZN3Log8SetlevelEi(%class.Log* noundef nonnull align 4 dereferenceable(20) %0, i32 noundef %1) #0 align 2 !dbg !5735 {
  %3 = alloca %class.Log*, align 8
  %4 = alloca i32, align 4
  store %class.Log* %0, %class.Log** %3, align 8
  call void @llvm.dbg.declare(metadata %class.Log** %3, metadata !5736, metadata !DIExpression()), !dbg !5738
  store i32 %1, i32* %4, align 4
  call void @llvm.dbg.declare(metadata i32* %4, metadata !5739, metadata !DIExpression()), !dbg !5740
  %5 = load %class.Log*, %class.Log** %3, align 8
  %6 = load i32, i32* %4, align 4, !dbg !5741
  %7 = getelementptr inbounds %class.Log, %class.Log* %5, i32 0, i32 4, !dbg !5742
  store i32 %6, i32* %7, align 4, !dbg !5743
  ret void, !dbg !5744
}

; Function Attrs: nofree nosync nounwind readnone speculatable willreturn
declare void @llvm.dbg.declare(metadata, metadata, metadata) #1

; Function Attrs: mustprogress noinline nounwind uwtable
define dso_local void @_ZN3Log10to_consoleENSt7__cxx1112basic_stringIcSt11char_traitsIcESaIcEEEi(%class.Log* noundef nonnull align 4 dereferenceable(20) %0, %"class.std::__cxx11::basic_string"* noundef %1, i32 noundef %2) #0 align 2 !dbg !5745 {
  %4 = alloca %class.Log*, align 8
  %5 = alloca i32, align 4
  store %class.Log* %0, %class.Log** %4, align 8
  call void @llvm.dbg.declare(metadata %class.Log** %4, metadata !5746, metadata !DIExpression()), !dbg !5747
  call void @llvm.dbg.declare(metadata %"class.std::__cxx11::basic_string"* %1, metadata !5748, metadata !DIExpression()), !dbg !5749
  store i32 %2, i32* %5, align 4
  call void @llvm.dbg.declare(metadata i32* %5, metadata !5750, metadata !DIExpression()), !dbg !5751
  %6 = load %class.Log*, %class.Log** %4, align 8
  ret void, !dbg !5752
}

; Function Attrs: mustprogress noinline uwtable
define dso_local void @_ZN6baseIP12set_busy_stsEb(%class.baseIP* noundef nonnull align 8 dereferenceable(128) %0, i1 noundef zeroext %1) #2 align 2 personality i8* bitcast (i32 (...)* @__gxx_personality_v0 to i8*) !dbg !5753 {
  %3 = alloca %class.baseIP*, align 8
  %4 = alloca i8, align 1
  %5 = alloca %"class.std::__cxx11::basic_string", align 8
  %6 = alloca %"class.std::__cxx11::basic_string", align 8
  %7 = alloca %"class.std::__cxx11::basic_string", align 8
  %8 = alloca i8*, align 8
  %9 = alloca i32, align 4
  %10 = alloca %"class.std::__cxx11::basic_string", align 8
  store %class.baseIP* %0, %class.baseIP** %3, align 8
  call void @llvm.dbg.declare(metadata %class.baseIP** %3, metadata !5754, metadata !DIExpression()), !dbg !5756
  %11 = zext i1 %1 to i8
  store i8 %11, i8* %4, align 1
  call void @llvm.dbg.declare(metadata i8* %4, metadata !5757, metadata !DIExpression()), !dbg !5758
  %12 = load %class.baseIP*, %class.baseIP** %3, align 8
  %13 = load i8, i8* %4, align 1, !dbg !5759
  %14 = trunc i8 %13 to i1, !dbg !5759
  %15 = getelementptr inbounds %class.baseIP, %class.baseIP* %12, i32 0, i32 2, !dbg !5760
  %16 = zext i1 %14 to i8, !dbg !5761
  store i8 %16, i8* %15, align 8, !dbg !5761
  call void @llvm.dbg.declare(metadata %"class.std::__cxx11::basic_string"* %5, metadata !5762, metadata !DIExpression()), !dbg !5763
  %17 = load i8, i8* %4, align 1, !dbg !5764
  %18 = trunc i8 %17 to i1, !dbg !5764
  %19 = zext i1 %18 to i32, !dbg !5764
  call void @_ZNSt7__cxx119to_stringEi(%"class.std::__cxx11::basic_string"* sret(%"class.std::__cxx11::basic_string") align 8 %7, i32 noundef %19), !dbg !5765
  invoke void @_ZStplIcSt11char_traitsIcESaIcEENSt7__cxx1112basic_stringIT_T0_T1_EEPKS5_OS8_(%"class.std::__cxx11::basic_string"* sret(%"class.std::__cxx11::basic_string") align 8 %6, i8* noundef getelementptr inbounds ([20 x i8], [20 x i8]* @.str, i64 0, i64 0), %"class.std::__cxx11::basic_string"* noundef nonnull align 8 dereferenceable(32) %7)
          to label %20 unwind label %24, !dbg !5766

20:                                               ; preds = %2
  invoke void @_ZStplIcSt11char_traitsIcESaIcEENSt7__cxx1112basic_stringIT_T0_T1_EEOS8_S5_(%"class.std::__cxx11::basic_string"* sret(%"class.std::__cxx11::basic_string") align 8 %5, %"class.std::__cxx11::basic_string"* noundef nonnull align 8 dereferenceable(32) %6, i8 noundef signext 10)
          to label %21 unwind label %28, !dbg !5767

21:                                               ; preds = %20
  call void @_ZNSt7__cxx1112basic_stringIcSt11char_traitsIcESaIcEED1Ev(%"class.std::__cxx11::basic_string"* noundef nonnull align 8 dereferenceable(32) %6) #10, !dbg !5768
  call void @_ZNSt7__cxx1112basic_stringIcSt11char_traitsIcESaIcEED1Ev(%"class.std::__cxx11::basic_string"* noundef nonnull align 8 dereferenceable(32) %7) #10, !dbg !5768
  %22 = bitcast %class.baseIP* %12 to %class.Log*, !dbg !5769
  invoke void @_ZNSt7__cxx1112basic_stringIcSt11char_traitsIcESaIcEEC1ERKS4_(%"class.std::__cxx11::basic_string"* noundef nonnull align 8 dereferenceable(32) %10, %"class.std::__cxx11::basic_string"* noundef nonnull align 8 dereferenceable(32) %5)
          to label %23 unwind label %33, !dbg !5770

23:                                               ; preds = %21
  call void @_ZN3Log10to_consoleENSt7__cxx1112basic_stringIcSt11char_traitsIcESaIcEEEi(%class.Log* noundef nonnull align 4 dereferenceable(20) %22, %"class.std::__cxx11::basic_string"* noundef %10, i32 noundef 2), !dbg !5769
  call void @_ZNSt7__cxx1112basic_stringIcSt11char_traitsIcESaIcEED1Ev(%"class.std::__cxx11::basic_string"* noundef nonnull align 8 dereferenceable(32) %10) #10, !dbg !5769
  call void @_ZNSt7__cxx1112basic_stringIcSt11char_traitsIcESaIcEED1Ev(%"class.std::__cxx11::basic_string"* noundef nonnull align 8 dereferenceable(32) %5) #10, !dbg !5771
  ret void, !dbg !5771

24:                                               ; preds = %2
  %25 = landingpad { i8*, i32 }
          cleanup, !dbg !5771
  %26 = extractvalue { i8*, i32 } %25, 0, !dbg !5771
  store i8* %26, i8** %8, align 8, !dbg !5771
  %27 = extractvalue { i8*, i32 } %25, 1, !dbg !5771
  store i32 %27, i32* %9, align 4, !dbg !5771
  br label %32, !dbg !5771

28:                                               ; preds = %20
  %29 = landingpad { i8*, i32 }
          cleanup, !dbg !5771
  %30 = extractvalue { i8*, i32 } %29, 0, !dbg !5771
  store i8* %30, i8** %8, align 8, !dbg !5771
  %31 = extractvalue { i8*, i32 } %29, 1, !dbg !5771
  store i32 %31, i32* %9, align 4, !dbg !5771
  call void @_ZNSt7__cxx1112basic_stringIcSt11char_traitsIcESaIcEED1Ev(%"class.std::__cxx11::basic_string"* noundef nonnull align 8 dereferenceable(32) %6) #10, !dbg !5768
  br label %32, !dbg !5768

32:                                               ; preds = %28, %24
  call void @_ZNSt7__cxx1112basic_stringIcSt11char_traitsIcESaIcEED1Ev(%"class.std::__cxx11::basic_string"* noundef nonnull align 8 dereferenceable(32) %7) #10, !dbg !5768
  br label %37, !dbg !5768

33:                                               ; preds = %21
  %34 = landingpad { i8*, i32 }
          cleanup, !dbg !5771
  %35 = extractvalue { i8*, i32 } %34, 0, !dbg !5771
  store i8* %35, i8** %8, align 8, !dbg !5771
  %36 = extractvalue { i8*, i32 } %34, 1, !dbg !5771
  store i32 %36, i32* %9, align 4, !dbg !5771
  call void @_ZNSt7__cxx1112basic_stringIcSt11char_traitsIcESaIcEED1Ev(%"class.std::__cxx11::basic_string"* noundef nonnull align 8 dereferenceable(32) %5) #10, !dbg !5771
  br label %37, !dbg !5771

37:                                               ; preds = %33, %32
  %38 = load i8*, i8** %8, align 8, !dbg !5768
  %39 = load i32, i32* %9, align 4, !dbg !5768
  %40 = insertvalue { i8*, i32 } undef, i8* %38, 0, !dbg !5768
  %41 = insertvalue { i8*, i32 } %40, i32 %39, 1, !dbg !5768
  resume { i8*, i32 } %41, !dbg !5768
}

; Function Attrs: mustprogress noinline uwtable
define linkonce_odr dso_local void @_ZStplIcSt11char_traitsIcESaIcEENSt7__cxx1112basic_stringIT_T0_T1_EEOS8_S5_(%"class.std::__cxx11::basic_string"* noalias sret(%"class.std::__cxx11::basic_string") align 8 %0, %"class.std::__cxx11::basic_string"* noundef nonnull align 8 dereferenceable(32) %1, i8 noundef signext %2) #2 comdat !dbg !5772 {
  %4 = alloca i8*, align 8
  %5 = alloca %"class.std::__cxx11::basic_string"*, align 8
  %6 = alloca i8, align 1
  %7 = bitcast %"class.std::__cxx11::basic_string"* %0 to i8*
  store i8* %7, i8** %4, align 8
  store %"class.std::__cxx11::basic_string"* %1, %"class.std::__cxx11::basic_string"** %5, align 8
  call void @llvm.dbg.declare(metadata %"class.std::__cxx11::basic_string"** %5, metadata !5832, metadata !DIExpression()), !dbg !5833
  store i8 %2, i8* %6, align 1
  call void @llvm.dbg.declare(metadata i8* %6, metadata !5834, metadata !DIExpression()), !dbg !5835
  %8 = load %"class.std::__cxx11::basic_string"*, %"class.std::__cxx11::basic_string"** %5, align 8, !dbg !5836
  %9 = load i8, i8* %6, align 1, !dbg !5837
  %10 = call noundef nonnull align 8 dereferenceable(32) %"class.std::__cxx11::basic_string"* @_ZNSt7__cxx1112basic_stringIcSt11char_traitsIcESaIcEE6appendEmc(%"class.std::__cxx11::basic_string"* noundef nonnull align 8 dereferenceable(32) %8, i64 noundef 1, i8 noundef signext %9), !dbg !5838
  %11 = call noundef nonnull align 8 dereferenceable(32) %"class.std::__cxx11::basic_string"* @_ZSt4moveIRNSt7__cxx1112basic_stringIcSt11char_traitsIcESaIcEEEEONSt16remove_referenceIT_E4typeEOS8_(%"class.std::__cxx11::basic_string"* noundef nonnull align 8 dereferenceable(32) %10) #10, !dbg !5839
  call void @_ZNSt7__cxx1112basic_stringIcSt11char_traitsIcESaIcEEC1EOS4_(%"class.std::__cxx11::basic_string"* noundef nonnull align 8 dereferenceable(32) %0, %"class.std::__cxx11::basic_string"* noundef nonnull align 8 dereferenceable(32) %11) #10, !dbg !5839
  ret void, !dbg !5840
}

; Function Attrs: mustprogress noinline uwtable
define linkonce_odr dso_local void @_ZStplIcSt11char_traitsIcESaIcEENSt7__cxx1112basic_stringIT_T0_T1_EEPKS5_OS8_(%"class.std::__cxx11::basic_string"* noalias sret(%"class.std::__cxx11::basic_string") align 8 %0, i8* noundef %1, %"class.std::__cxx11::basic_string"* noundef nonnull align 8 dereferenceable(32) %2) #2 comdat !dbg !5841 {
  %4 = alloca i8*, align 8
  %5 = alloca i8*, align 8
  %6 = alloca %"class.std::__cxx11::basic_string"*, align 8
  %7 = bitcast %"class.std::__cxx11::basic_string"* %0 to i8*
  store i8* %7, i8** %4, align 8
  store i8* %1, i8** %5, align 8
  call void @llvm.dbg.declare(metadata i8** %5, metadata !5844, metadata !DIExpression()), !dbg !5845
  store %"class.std::__cxx11::basic_string"* %2, %"class.std::__cxx11::basic_string"** %6, align 8
  call void @llvm.dbg.declare(metadata %"class.std::__cxx11::basic_string"** %6, metadata !5846, metadata !DIExpression()), !dbg !5847
  %8 = load %"class.std::__cxx11::basic_string"*, %"class.std::__cxx11::basic_string"** %6, align 8, !dbg !5848
  %9 = load i8*, i8** %5, align 8, !dbg !5849
  %10 = call noundef nonnull align 8 dereferenceable(32) %"class.std::__cxx11::basic_string"* @_ZNSt7__cxx1112basic_stringIcSt11char_traitsIcESaIcEE6insertEmPKc(%"class.std::__cxx11::basic_string"* noundef nonnull align 8 dereferenceable(32) %8, i64 noundef 0, i8* noundef %9), !dbg !5850
  %11 = call noundef nonnull align 8 dereferenceable(32) %"class.std::__cxx11::basic_string"* @_ZSt4moveIRNSt7__cxx1112basic_stringIcSt11char_traitsIcESaIcEEEEONSt16remove_referenceIT_E4typeEOS8_(%"class.std::__cxx11::basic_string"* noundef nonnull align 8 dereferenceable(32) %10) #10, !dbg !5851
  call void @_ZNSt7__cxx1112basic_stringIcSt11char_traitsIcESaIcEEC1EOS4_(%"class.std::__cxx11::basic_string"* noundef nonnull align 8 dereferenceable(32) %0, %"class.std::__cxx11::basic_string"* noundef nonnull align 8 dereferenceable(32) %11) #10, !dbg !5851
  ret void, !dbg !5852
}

; Function Attrs: mustprogress noinline uwtable
define linkonce_odr dso_local void @_ZNSt7__cxx119to_stringEi(%"class.std::__cxx11::basic_string"* noalias sret(%"class.std::__cxx11::basic_string") align 8 %0, i32 noundef %1) #2 comdat personality i8* bitcast (i32 (...)* @__gxx_personality_v0 to i8*) !dbg !5853 {
  %3 = alloca i8*, align 8
  %4 = alloca i32, align 4
  %5 = alloca i8, align 1
  %6 = alloca i32, align 4
  %7 = alloca i32, align 4
  %8 = alloca i1, align 1
  %9 = alloca %"class.std::allocator", align 1
  %10 = alloca i8*, align 8
  %11 = alloca i32, align 4
  %12 = bitcast %"class.std::__cxx11::basic_string"* %0 to i8*
  store i8* %12, i8** %3, align 8
  store i32 %1, i32* %4, align 4
  call void @llvm.dbg.declare(metadata i32* %4, metadata !5856, metadata !DIExpression()), !dbg !5857
  call void @llvm.dbg.declare(metadata i8* %5, metadata !5858, metadata !DIExpression()), !dbg !5859
  %13 = load i32, i32* %4, align 4, !dbg !5860
  %14 = icmp slt i32 %13, 0, !dbg !5861
  %15 = zext i1 %14 to i8, !dbg !5859
  store i8 %15, i8* %5, align 1, !dbg !5859
  call void @llvm.dbg.declare(metadata i32* %6, metadata !5862, metadata !DIExpression()), !dbg !5864
  %16 = load i8, i8* %5, align 1, !dbg !5865
  %17 = trunc i8 %16 to i1, !dbg !5865
  %18 = load i32, i32* %4, align 4, !dbg !5865
  %19 = xor i32 %18, -1, !dbg !5865
  %20 = add i32 %19, 1, !dbg !5865
  %21 = load i32, i32* %4, align 4, !dbg !5865
  %22 = select i1 %17, i32 %20, i32 %21, !dbg !5865
  store i32 %22, i32* %6, align 4, !dbg !5864
  call void @llvm.dbg.declare(metadata i32* %7, metadata !5866, metadata !DIExpression()), !dbg !5867
  %23 = load i32, i32* %6, align 4, !dbg !5868
  %24 = call noundef i32 @_ZNSt8__detail14__to_chars_lenIjEEjT_i(i32 noundef %23, i32 noundef 10) #10, !dbg !5869
  store i32 %24, i32* %7, align 4, !dbg !5867
  store i1 false, i1* %8, align 1, !dbg !5870
  call void @llvm.dbg.declare(metadata i8** %3, metadata !5871, metadata !DIExpression(DW_OP_deref)), !dbg !5872
  %25 = load i8, i8* %5, align 1, !dbg !5873
  %26 = trunc i8 %25 to i1, !dbg !5873
  %27 = zext i1 %26 to i32, !dbg !5873
  %28 = load i32, i32* %7, align 4, !dbg !5874
  %29 = add i32 %27, %28, !dbg !5875
  %30 = zext i32 %29 to i64, !dbg !5873
  call void @_ZNSaIcEC1Ev(%"class.std::allocator"* noundef nonnull align 1 dereferenceable(1) %9) #10, !dbg !5872
  invoke void @_ZNSt7__cxx1112basic_stringIcSt11char_traitsIcESaIcEEC1EmcRKS3_(%"class.std::__cxx11::basic_string"* noundef nonnull align 8 dereferenceable(32) %0, i64 noundef %30, i8 noundef signext 45, %"class.std::allocator"* noundef nonnull align 1 dereferenceable(1) %9)
          to label %31 unwind label %40, !dbg !5872

31:                                               ; preds = %2
  call void @_ZNSaIcED1Ev(%"class.std::allocator"* noundef nonnull align 1 dereferenceable(1) %9) #10, !dbg !5872
  %32 = load i8, i8* %5, align 1, !dbg !5876
  %33 = trunc i8 %32 to i1, !dbg !5876
  %34 = zext i1 %33 to i64, !dbg !5876
  %35 = invoke noundef nonnull align 1 dereferenceable(1) i8* @_ZNSt7__cxx1112basic_stringIcSt11char_traitsIcESaIcEEixEm(%"class.std::__cxx11::basic_string"* noundef nonnull align 8 dereferenceable(32) %0, i64 noundef %34)
          to label %36 unwind label %44, !dbg !5877

36:                                               ; preds = %31
  %37 = load i32, i32* %7, align 4, !dbg !5878
  %38 = load i32, i32* %6, align 4, !dbg !5879
  call void @_ZNSt8__detail18__to_chars_10_implIjEEvPcjT_(i8* noundef %35, i32 noundef %37, i32 noundef %38) #10, !dbg !5880
  store i1 true, i1* %8, align 1, !dbg !5881
  %39 = load i1, i1* %8, align 1, !dbg !5882
  br i1 %39, label %49, label %48, !dbg !5882

40:                                               ; preds = %2
  %41 = landingpad { i8*, i32 }
          cleanup, !dbg !5882
  %42 = extractvalue { i8*, i32 } %41, 0, !dbg !5882
  store i8* %42, i8** %10, align 8, !dbg !5882
  %43 = extractvalue { i8*, i32 } %41, 1, !dbg !5882
  store i32 %43, i32* %11, align 4, !dbg !5882
  call void @_ZNSaIcED1Ev(%"class.std::allocator"* noundef nonnull align 1 dereferenceable(1) %9) #10, !dbg !5872
  br label %50, !dbg !5872

44:                                               ; preds = %31
  %45 = landingpad { i8*, i32 }
          cleanup, !dbg !5882
  %46 = extractvalue { i8*, i32 } %45, 0, !dbg !5882
  store i8* %46, i8** %10, align 8, !dbg !5882
  %47 = extractvalue { i8*, i32 } %45, 1, !dbg !5882
  store i32 %47, i32* %11, align 4, !dbg !5882
  call void @_ZNSt7__cxx1112basic_stringIcSt11char_traitsIcESaIcEED1Ev(%"class.std::__cxx11::basic_string"* noundef nonnull align 8 dereferenceable(32) %0) #10, !dbg !5882
  br label %50, !dbg !5882

48:                                               ; preds = %36
  call void @_ZNSt7__cxx1112basic_stringIcSt11char_traitsIcESaIcEED1Ev(%"class.std::__cxx11::basic_string"* noundef nonnull align 8 dereferenceable(32) %0) #10, !dbg !5882
  br label %49, !dbg !5882

49:                                               ; preds = %48, %36
  ret void, !dbg !5882

50:                                               ; preds = %44, %40
  %51 = load i8*, i8** %10, align 8, !dbg !5872
  %52 = load i32, i32* %11, align 4, !dbg !5872
  %53 = insertvalue { i8*, i32 } undef, i8* %51, 0, !dbg !5872
  %54 = insertvalue { i8*, i32 } %53, i32 %52, 1, !dbg !5872
  resume { i8*, i32 } %54, !dbg !5872
}

declare i32 @__gxx_personality_v0(...)

; Function Attrs: nounwind
declare void @_ZNSt7__cxx1112basic_stringIcSt11char_traitsIcESaIcEED1Ev(%"class.std::__cxx11::basic_string"* noundef nonnull align 8 dereferenceable(32)) unnamed_addr #3

declare void @_ZNSt7__cxx1112basic_stringIcSt11char_traitsIcESaIcEEC1ERKS4_(%"class.std::__cxx11::basic_string"* noundef nonnull align 8 dereferenceable(32), %"class.std::__cxx11::basic_string"* noundef nonnull align 8 dereferenceable(32)) unnamed_addr #4

; Function Attrs: mustprogress noinline uwtable
define dso_local void @_ZN6baseIP13read_from_memENSt7__cxx1112basic_stringIcSt11char_traitsIcESaIcEEE(%class.baseIP* noundef nonnull align 8 dereferenceable(128) %0, %"class.std::__cxx11::basic_string"* noundef %1) #2 align 2 personality i8* bitcast (i32 (...)* @__gxx_personality_v0 to i8*) !dbg !5883 {
  %3 = alloca %class.baseIP*, align 8
  %4 = alloca %"struct.std::_Rb_tree_iterator", align 8
  %5 = alloca %"struct.std::_Rb_tree_iterator", align 8
  %6 = alloca %"class.std::__cxx11::basic_string", align 8
  %7 = alloca %"class.std::__cxx11::basic_string", align 8
  %8 = alloca %"class.std::__cxx11::basic_string", align 8
  %9 = alloca i8*, align 8
  %10 = alloca i32, align 4
  %11 = alloca %"class.std::__cxx11::basic_string", align 8
  store %class.baseIP* %0, %class.baseIP** %3, align 8
  call void @llvm.dbg.declare(metadata %class.baseIP** %3, metadata !5884, metadata !DIExpression()), !dbg !5885
  call void @llvm.dbg.declare(metadata %"class.std::__cxx11::basic_string"* %1, metadata !5886, metadata !DIExpression()), !dbg !5887
  %12 = load %class.baseIP*, %class.baseIP** %3, align 8
  call void @llvm.dbg.declare(metadata %"struct.std::_Rb_tree_iterator"* %4, metadata !5888, metadata !DIExpression()), !dbg !5889
  %13 = getelementptr inbounds %class.baseIP, %class.baseIP* %12, i32 0, i32 1, !dbg !5890
  %14 = call %"struct.std::_Rb_tree_node_base"* @_ZNSt3mapINSt7__cxx1112basic_stringIcSt11char_traitsIcESaIcEEEiSt4lessIS5_ESaISt4pairIKS5_iEEE4findERS9_(%"class.std::map"* noundef nonnull align 8 dereferenceable(48) %13, %"class.std::__cxx11::basic_string"* noundef nonnull align 8 dereferenceable(32) %1), !dbg !5891
  %15 = getelementptr inbounds %"struct.std::_Rb_tree_iterator", %"struct.std::_Rb_tree_iterator"* %4, i32 0, i32 0, !dbg !5891
  store %"struct.std::_Rb_tree_node_base"* %14, %"struct.std::_Rb_tree_node_base"** %15, align 8, !dbg !5891
  %16 = getelementptr inbounds %class.baseIP, %class.baseIP* %12, i32 0, i32 1, !dbg !5892
  %17 = call %"struct.std::_Rb_tree_node_base"* @_ZNSt3mapINSt7__cxx1112basic_stringIcSt11char_traitsIcESaIcEEEiSt4lessIS5_ESaISt4pairIKS5_iEEE3endEv(%"class.std::map"* noundef nonnull align 8 dereferenceable(48) %16) #10, !dbg !5894
  %18 = getelementptr inbounds %"struct.std::_Rb_tree_iterator", %"struct.std::_Rb_tree_iterator"* %5, i32 0, i32 0, !dbg !5894
  store %"struct.std::_Rb_tree_node_base"* %17, %"struct.std::_Rb_tree_node_base"** %18, align 8, !dbg !5894
  %19 = call noundef zeroext i1 @_ZSteqRKSt17_Rb_tree_iteratorISt4pairIKNSt7__cxx1112basic_stringIcSt11char_traitsIcESaIcEEEiEESB_(%"struct.std::_Rb_tree_iterator"* noundef nonnull align 8 dereferenceable(8) %4, %"struct.std::_Rb_tree_iterator"* noundef nonnull align 8 dereferenceable(8) %5) #10, !dbg !5895
  br i1 %19, label %20, label %38, !dbg !5896

20:                                               ; preds = %2
  call void @llvm.dbg.declare(metadata %"class.std::__cxx11::basic_string"* %6, metadata !5897, metadata !DIExpression()), !dbg !5899
  call void @_ZStplIcSt11char_traitsIcESaIcEENSt7__cxx1112basic_stringIT_T0_T1_EEPKS5_RKS8_(%"class.std::__cxx11::basic_string"* sret(%"class.std::__cxx11::basic_string") align 8 %8, i8* noundef getelementptr inbounds ([24 x i8], [24 x i8]* @.str.1, i64 0, i64 0), %"class.std::__cxx11::basic_string"* noundef nonnull align 8 dereferenceable(32) %1), !dbg !5900
  invoke void @_ZStplIcSt11char_traitsIcESaIcEENSt7__cxx1112basic_stringIT_T0_T1_EEOS8_PKS5_(%"class.std::__cxx11::basic_string"* sret(%"class.std::__cxx11::basic_string") align 8 %7, %"class.std::__cxx11::basic_string"* noundef nonnull align 8 dereferenceable(32) %8, i8* noundef getelementptr inbounds ([10 x i8], [10 x i8]* @.str.2, i64 0, i64 0))
          to label %21 unwind label %25, !dbg !5901

21:                                               ; preds = %20
  invoke void @_ZStplIcSt11char_traitsIcESaIcEENSt7__cxx1112basic_stringIT_T0_T1_EEOS8_S5_(%"class.std::__cxx11::basic_string"* sret(%"class.std::__cxx11::basic_string") align 8 %6, %"class.std::__cxx11::basic_string"* noundef nonnull align 8 dereferenceable(32) %7, i8 noundef signext 10)
          to label %22 unwind label %29, !dbg !5902

22:                                               ; preds = %21
  call void @_ZNSt7__cxx1112basic_stringIcSt11char_traitsIcESaIcEED1Ev(%"class.std::__cxx11::basic_string"* noundef nonnull align 8 dereferenceable(32) %7) #10, !dbg !5903
  call void @_ZNSt7__cxx1112basic_stringIcSt11char_traitsIcESaIcEED1Ev(%"class.std::__cxx11::basic_string"* noundef nonnull align 8 dereferenceable(32) %8) #10, !dbg !5903
  %23 = bitcast %class.baseIP* %12 to %class.Log*, !dbg !5904
  invoke void @_ZNSt7__cxx1112basic_stringIcSt11char_traitsIcESaIcEEC1ERKS4_(%"class.std::__cxx11::basic_string"* noundef nonnull align 8 dereferenceable(32) %11, %"class.std::__cxx11::basic_string"* noundef nonnull align 8 dereferenceable(32) %6)
          to label %24 unwind label %34, !dbg !5905

24:                                               ; preds = %22
  call void @_ZN3Log10to_consoleENSt7__cxx1112basic_stringIcSt11char_traitsIcESaIcEEEi(%class.Log* noundef nonnull align 4 dereferenceable(20) %23, %"class.std::__cxx11::basic_string"* noundef %11, i32 noundef 0), !dbg !5904
  call void @_ZNSt7__cxx1112basic_stringIcSt11char_traitsIcESaIcEED1Ev(%"class.std::__cxx11::basic_string"* noundef nonnull align 8 dereferenceable(32) %11) #10, !dbg !5904
  call void @_ZNSt7__cxx1112basic_stringIcSt11char_traitsIcESaIcEED1Ev(%"class.std::__cxx11::basic_string"* noundef nonnull align 8 dereferenceable(32) %6) #10, !dbg !5906
  br label %38, !dbg !5907

25:                                               ; preds = %20
  %26 = landingpad { i8*, i32 }
          cleanup, !dbg !5908
  %27 = extractvalue { i8*, i32 } %26, 0, !dbg !5908
  store i8* %27, i8** %9, align 8, !dbg !5908
  %28 = extractvalue { i8*, i32 } %26, 1, !dbg !5908
  store i32 %28, i32* %10, align 4, !dbg !5908
  br label %33, !dbg !5908

29:                                               ; preds = %21
  %30 = landingpad { i8*, i32 }
          cleanup, !dbg !5908
  %31 = extractvalue { i8*, i32 } %30, 0, !dbg !5908
  store i8* %31, i8** %9, align 8, !dbg !5908
  %32 = extractvalue { i8*, i32 } %30, 1, !dbg !5908
  store i32 %32, i32* %10, align 4, !dbg !5908
  call void @_ZNSt7__cxx1112basic_stringIcSt11char_traitsIcESaIcEED1Ev(%"class.std::__cxx11::basic_string"* noundef nonnull align 8 dereferenceable(32) %7) #10, !dbg !5903
  br label %33, !dbg !5903

33:                                               ; preds = %29, %25
  call void @_ZNSt7__cxx1112basic_stringIcSt11char_traitsIcESaIcEED1Ev(%"class.std::__cxx11::basic_string"* noundef nonnull align 8 dereferenceable(32) %8) #10, !dbg !5903
  br label %39, !dbg !5903

34:                                               ; preds = %22
  %35 = landingpad { i8*, i32 }
          cleanup, !dbg !5908
  %36 = extractvalue { i8*, i32 } %35, 0, !dbg !5908
  store i8* %36, i8** %9, align 8, !dbg !5908
  %37 = extractvalue { i8*, i32 } %35, 1, !dbg !5908
  store i32 %37, i32* %10, align 4, !dbg !5908
  call void @_ZNSt7__cxx1112basic_stringIcSt11char_traitsIcESaIcEED1Ev(%"class.std::__cxx11::basic_string"* noundef nonnull align 8 dereferenceable(32) %6) #10, !dbg !5906
  br label %39, !dbg !5906

38:                                               ; preds = %24, %2
  ret void, !dbg !5909

39:                                               ; preds = %34, %33
  %40 = load i8*, i8** %9, align 8, !dbg !5903
  %41 = load i32, i32* %10, align 4, !dbg !5903
  %42 = insertvalue { i8*, i32 } undef, i8* %40, 0, !dbg !5903
  %43 = insertvalue { i8*, i32 } %42, i32 %41, 1, !dbg !5903
  resume { i8*, i32 } %43, !dbg !5903
}

; Function Attrs: mustprogress noinline uwtable
define linkonce_odr dso_local %"struct.std::_Rb_tree_node_base"* @_ZNSt3mapINSt7__cxx1112basic_stringIcSt11char_traitsIcESaIcEEEiSt4lessIS5_ESaISt4pairIKS5_iEEE4findERS9_(%"class.std::map"* noundef nonnull align 8 dereferenceable(48) %0, %"class.std::__cxx11::basic_string"* noundef nonnull align 8 dereferenceable(32) %1) #2 comdat align 2 !dbg !5910 {
  %3 = alloca %"struct.std::_Rb_tree_iterator", align 8
  %4 = alloca %"class.std::map"*, align 8
  %5 = alloca %"class.std::__cxx11::basic_string"*, align 8
  store %"class.std::map"* %0, %"class.std::map"** %4, align 8
  call void @llvm.dbg.declare(metadata %"class.std::map"** %4, metadata !5911, metadata !DIExpression()), !dbg !5913
  store %"class.std::__cxx11::basic_string"* %1, %"class.std::__cxx11::basic_string"** %5, align 8
  call void @llvm.dbg.declare(metadata %"class.std::__cxx11::basic_string"** %5, metadata !5914, metadata !DIExpression()), !dbg !5915
  %6 = load %"class.std::map"*, %"class.std::map"** %4, align 8
  %7 = getelementptr inbounds %"class.std::map", %"class.std::map"* %6, i32 0, i32 0, !dbg !5916
  %8 = load %"class.std::__cxx11::basic_string"*, %"class.std::__cxx11::basic_string"** %5, align 8, !dbg !5917
  %9 = call %"struct.std::_Rb_tree_node_base"* @_ZNSt8_Rb_treeINSt7__cxx1112basic_stringIcSt11char_traitsIcESaIcEEESt4pairIKS5_iESt10_Select1stIS8_ESt4lessIS5_ESaIS8_EE4findERS7_(%"class.std::_Rb_tree"* noundef nonnull align 8 dereferenceable(48) %7, %"class.std::__cxx11::basic_string"* noundef nonnull align 8 dereferenceable(32) %8), !dbg !5918
  %10 = getelementptr inbounds %"struct.std::_Rb_tree_iterator", %"struct.std::_Rb_tree_iterator"* %3, i32 0, i32 0, !dbg !5918
  store %"struct.std::_Rb_tree_node_base"* %9, %"struct.std::_Rb_tree_node_base"** %10, align 8, !dbg !5918
  %11 = getelementptr inbounds %"struct.std::_Rb_tree_iterator", %"struct.std::_Rb_tree_iterator"* %3, i32 0, i32 0, !dbg !5919
  %12 = load %"struct.std::_Rb_tree_node_base"*, %"struct.std::_Rb_tree_node_base"** %11, align 8, !dbg !5919
  ret %"struct.std::_Rb_tree_node_base"* %12, !dbg !5919
}

; Function Attrs: mustprogress noinline nounwind uwtable
define linkonce_odr dso_local noundef zeroext i1 @_ZSteqRKSt17_Rb_tree_iteratorISt4pairIKNSt7__cxx1112basic_stringIcSt11char_traitsIcESaIcEEEiEESB_(%"struct.std::_Rb_tree_iterator"* noundef nonnull align 8 dereferenceable(8) %0, %"struct.std::_Rb_tree_iterator"* noundef nonnull align 8 dereferenceable(8) %1) #0 comdat !dbg !5920 {
  %3 = alloca %"struct.std::_Rb_tree_iterator"*, align 8
  %4 = alloca %"struct.std::_Rb_tree_iterator"*, align 8
  store %"struct.std::_Rb_tree_iterator"* %0, %"struct.std::_Rb_tree_iterator"** %3, align 8
  call void @llvm.dbg.declare(metadata %"struct.std::_Rb_tree_iterator"** %3, metadata !5925, metadata !DIExpression()), !dbg !5926
  store %"struct.std::_Rb_tree_iterator"* %1, %"struct.std::_Rb_tree_iterator"** %4, align 8
  call void @llvm.dbg.declare(metadata %"struct.std::_Rb_tree_iterator"** %4, metadata !5927, metadata !DIExpression()), !dbg !5928
  %5 = load %"struct.std::_Rb_tree_iterator"*, %"struct.std::_Rb_tree_iterator"** %3, align 8, !dbg !5929
  %6 = getelementptr inbounds %"struct.std::_Rb_tree_iterator", %"struct.std::_Rb_tree_iterator"* %5, i32 0, i32 0, !dbg !5930
  %7 = load %"struct.std::_Rb_tree_node_base"*, %"struct.std::_Rb_tree_node_base"** %6, align 8, !dbg !5930
  %8 = load %"struct.std::_Rb_tree_iterator"*, %"struct.std::_Rb_tree_iterator"** %4, align 8, !dbg !5931
  %9 = getelementptr inbounds %"struct.std::_Rb_tree_iterator", %"struct.std::_Rb_tree_iterator"* %8, i32 0, i32 0, !dbg !5932
  %10 = load %"struct.std::_Rb_tree_node_base"*, %"struct.std::_Rb_tree_node_base"** %9, align 8, !dbg !5932
  %11 = icmp eq %"struct.std::_Rb_tree_node_base"* %7, %10, !dbg !5933
  ret i1 %11, !dbg !5934
}

; Function Attrs: mustprogress noinline nounwind uwtable
define linkonce_odr dso_local %"struct.std::_Rb_tree_node_base"* @_ZNSt3mapINSt7__cxx1112basic_stringIcSt11char_traitsIcESaIcEEEiSt4lessIS5_ESaISt4pairIKS5_iEEE3endEv(%"class.std::map"* noundef nonnull align 8 dereferenceable(48) %0) #0 comdat align 2 !dbg !5935 {
  %2 = alloca %"struct.std::_Rb_tree_iterator", align 8
  %3 = alloca %"class.std::map"*, align 8
  store %"class.std::map"* %0, %"class.std::map"** %3, align 8
  call void @llvm.dbg.declare(metadata %"class.std::map"** %3, metadata !5936, metadata !DIExpression()), !dbg !5937
  %4 = load %"class.std::map"*, %"class.std::map"** %3, align 8
  %5 = getelementptr inbounds %"class.std::map", %"class.std::map"* %4, i32 0, i32 0, !dbg !5938
  %6 = call %"struct.std::_Rb_tree_node_base"* @_ZNSt8_Rb_treeINSt7__cxx1112basic_stringIcSt11char_traitsIcESaIcEEESt4pairIKS5_iESt10_Select1stIS8_ESt4lessIS5_ESaIS8_EE3endEv(%"class.std::_Rb_tree"* noundef nonnull align 8 dereferenceable(48) %5) #10, !dbg !5939
  %7 = getelementptr inbounds %"struct.std::_Rb_tree_iterator", %"struct.std::_Rb_tree_iterator"* %2, i32 0, i32 0, !dbg !5939
  store %"struct.std::_Rb_tree_node_base"* %6, %"struct.std::_Rb_tree_node_base"** %7, align 8, !dbg !5939
  %8 = getelementptr inbounds %"struct.std::_Rb_tree_iterator", %"struct.std::_Rb_tree_iterator"* %2, i32 0, i32 0, !dbg !5940
  %9 = load %"struct.std::_Rb_tree_node_base"*, %"struct.std::_Rb_tree_node_base"** %8, align 8, !dbg !5940
  ret %"struct.std::_Rb_tree_node_base"* %9, !dbg !5940
}

; Function Attrs: mustprogress noinline uwtable
define linkonce_odr dso_local void @_ZStplIcSt11char_traitsIcESaIcEENSt7__cxx1112basic_stringIT_T0_T1_EEOS8_PKS5_(%"class.std::__cxx11::basic_string"* noalias sret(%"class.std::__cxx11::basic_string") align 8 %0, %"class.std::__cxx11::basic_string"* noundef nonnull align 8 dereferenceable(32) %1, i8* noundef %2) #2 comdat !dbg !5941 {
  %4 = alloca i8*, align 8
  %5 = alloca %"class.std::__cxx11::basic_string"*, align 8
  %6 = alloca i8*, align 8
  %7 = bitcast %"class.std::__cxx11::basic_string"* %0 to i8*
  store i8* %7, i8** %4, align 8
  store %"class.std::__cxx11::basic_string"* %1, %"class.std::__cxx11::basic_string"** %5, align 8
  call void @llvm.dbg.declare(metadata %"class.std::__cxx11::basic_string"** %5, metadata !5944, metadata !DIExpression()), !dbg !5945
  store i8* %2, i8** %6, align 8
  call void @llvm.dbg.declare(metadata i8** %6, metadata !5946, metadata !DIExpression()), !dbg !5947
  %8 = load %"class.std::__cxx11::basic_string"*, %"class.std::__cxx11::basic_string"** %5, align 8, !dbg !5948
  %9 = load i8*, i8** %6, align 8, !dbg !5949
  %10 = call noundef nonnull align 8 dereferenceable(32) %"class.std::__cxx11::basic_string"* @_ZNSt7__cxx1112basic_stringIcSt11char_traitsIcESaIcEE6appendEPKc(%"class.std::__cxx11::basic_string"* noundef nonnull align 8 dereferenceable(32) %8, i8* noundef %9), !dbg !5950
  %11 = call noundef nonnull align 8 dereferenceable(32) %"class.std::__cxx11::basic_string"* @_ZSt4moveIRNSt7__cxx1112basic_stringIcSt11char_traitsIcESaIcEEEEONSt16remove_referenceIT_E4typeEOS8_(%"class.std::__cxx11::basic_string"* noundef nonnull align 8 dereferenceable(32) %10) #10, !dbg !5951
  call void @_ZNSt7__cxx1112basic_stringIcSt11char_traitsIcESaIcEEC1EOS4_(%"class.std::__cxx11::basic_string"* noundef nonnull align 8 dereferenceable(32) %0, %"class.std::__cxx11::basic_string"* noundef nonnull align 8 dereferenceable(32) %11) #10, !dbg !5951
  ret void, !dbg !5952
}

; Function Attrs: mustprogress noinline uwtable
define linkonce_odr dso_local void @_ZStplIcSt11char_traitsIcESaIcEENSt7__cxx1112basic_stringIT_T0_T1_EEPKS5_RKS8_(%"class.std::__cxx11::basic_string"* noalias sret(%"class.std::__cxx11::basic_string") align 8 %0, i8* noundef %1, %"class.std::__cxx11::basic_string"* noundef nonnull align 8 dereferenceable(32) %2) #2 comdat personality i8* bitcast (i32 (...)* @__gxx_personality_v0 to i8*) !dbg !5953 {
  %4 = alloca i8*, align 8
  %5 = alloca i8*, align 8
  %6 = alloca %"class.std::__cxx11::basic_string"*, align 8
  %7 = alloca i64, align 8
  %8 = alloca i1, align 1
  %9 = alloca %"class.std::allocator", align 1
  %10 = alloca %"class.std::allocator", align 1
  %11 = alloca i8*, align 8
  %12 = alloca i32, align 4
  %13 = bitcast %"class.std::__cxx11::basic_string"* %0 to i8*
  store i8* %13, i8** %4, align 8
  store i8* %1, i8** %5, align 8
  call void @llvm.dbg.declare(metadata i8** %5, metadata !5956, metadata !DIExpression()), !dbg !5957
  store %"class.std::__cxx11::basic_string"* %2, %"class.std::__cxx11::basic_string"** %6, align 8
  call void @llvm.dbg.declare(metadata %"class.std::__cxx11::basic_string"** %6, metadata !5958, metadata !DIExpression()), !dbg !5959
  call void @llvm.dbg.declare(metadata i64* %7, metadata !5960, metadata !DIExpression()), !dbg !6008
  %14 = load i8*, i8** %5, align 8, !dbg !6009
  %15 = call noundef i64 @_ZNSt11char_traitsIcE6lengthEPKc(i8* noundef %14), !dbg !6010
  store i64 %15, i64* %7, align 8, !dbg !6008
  store i1 false, i1* %8, align 1, !dbg !6011
  call void @llvm.dbg.declare(metadata i8** %4, metadata !6012, metadata !DIExpression(DW_OP_deref)), !dbg !6014
  %16 = load %"class.std::__cxx11::basic_string"*, %"class.std::__cxx11::basic_string"** %6, align 8, !dbg !6015
  call void @_ZNKSt7__cxx1112basic_stringIcSt11char_traitsIcESaIcEE13get_allocatorEv(%"class.std::allocator"* sret(%"class.std::allocator") align 1 %10, %"class.std::__cxx11::basic_string"* noundef nonnull align 8 dereferenceable(32) %16) #10, !dbg !6016
  invoke void @_ZN9__gnu_cxx14__alloc_traitsISaIcEcE17_S_select_on_copyERKS1_(%"class.std::allocator"* sret(%"class.std::allocator") align 1 %9, %"class.std::allocator"* noundef nonnull align 1 dereferenceable(1) %10)
          to label %17 unwind label %31, !dbg !6017

17:                                               ; preds = %3
  call void @_ZNSt7__cxx1112basic_stringIcSt11char_traitsIcESaIcEEC1ERKS3_(%"class.std::__cxx11::basic_string"* noundef nonnull align 8 dereferenceable(32) %0, %"class.std::allocator"* noundef nonnull align 1 dereferenceable(1) %9) #10, !dbg !6014
  call void @_ZNSaIcED1Ev(%"class.std::allocator"* noundef nonnull align 1 dereferenceable(1) %9) #10, !dbg !6014
  call void @_ZNSaIcED1Ev(%"class.std::allocator"* noundef nonnull align 1 dereferenceable(1) %10) #10, !dbg !6014
  %18 = load i64, i64* %7, align 8, !dbg !6018
  %19 = load %"class.std::__cxx11::basic_string"*, %"class.std::__cxx11::basic_string"** %6, align 8, !dbg !6019
  %20 = call noundef i64 @_ZNKSt7__cxx1112basic_stringIcSt11char_traitsIcESaIcEE4sizeEv(%"class.std::__cxx11::basic_string"* noundef nonnull align 8 dereferenceable(32) %19) #10, !dbg !6020
  %21 = add i64 %18, %20, !dbg !6021
  invoke void @_ZNSt7__cxx1112basic_stringIcSt11char_traitsIcESaIcEE7reserveEm(%"class.std::__cxx11::basic_string"* noundef nonnull align 8 dereferenceable(32) %0, i64 noundef %21)
          to label %22 unwind label %35, !dbg !6022

22:                                               ; preds = %17
  %23 = load i8*, i8** %5, align 8, !dbg !6023
  %24 = load i64, i64* %7, align 8, !dbg !6024
  %25 = invoke noundef nonnull align 8 dereferenceable(32) %"class.std::__cxx11::basic_string"* @_ZNSt7__cxx1112basic_stringIcSt11char_traitsIcESaIcEE6appendEPKcm(%"class.std::__cxx11::basic_string"* noundef nonnull align 8 dereferenceable(32) %0, i8* noundef %23, i64 noundef %24)
          to label %26 unwind label %35, !dbg !6025

26:                                               ; preds = %22
  %27 = load %"class.std::__cxx11::basic_string"*, %"class.std::__cxx11::basic_string"** %6, align 8, !dbg !6026
  %28 = invoke noundef nonnull align 8 dereferenceable(32) %"class.std::__cxx11::basic_string"* @_ZNSt7__cxx1112basic_stringIcSt11char_traitsIcESaIcEE6appendERKS4_(%"class.std::__cxx11::basic_string"* noundef nonnull align 8 dereferenceable(32) %0, %"class.std::__cxx11::basic_string"* noundef nonnull align 8 dereferenceable(32) %27)
          to label %29 unwind label %35, !dbg !6027

29:                                               ; preds = %26
  store i1 true, i1* %8, align 1, !dbg !6028
  %30 = load i1, i1* %8, align 1, !dbg !6029
  br i1 %30, label %40, label %39, !dbg !6029

31:                                               ; preds = %3
  %32 = landingpad { i8*, i32 }
          cleanup, !dbg !6029
  %33 = extractvalue { i8*, i32 } %32, 0, !dbg !6029
  store i8* %33, i8** %11, align 8, !dbg !6029
  %34 = extractvalue { i8*, i32 } %32, 1, !dbg !6029
  store i32 %34, i32* %12, align 4, !dbg !6029
  call void @_ZNSaIcED1Ev(%"class.std::allocator"* noundef nonnull align 1 dereferenceable(1) %10) #10, !dbg !6014
  br label %41, !dbg !6014

35:                                               ; preds = %26, %22, %17
  %36 = landingpad { i8*, i32 }
          cleanup, !dbg !6029
  %37 = extractvalue { i8*, i32 } %36, 0, !dbg !6029
  store i8* %37, i8** %11, align 8, !dbg !6029
  %38 = extractvalue { i8*, i32 } %36, 1, !dbg !6029
  store i32 %38, i32* %12, align 4, !dbg !6029
  call void @_ZNSt7__cxx1112basic_stringIcSt11char_traitsIcESaIcEED1Ev(%"class.std::__cxx11::basic_string"* noundef nonnull align 8 dereferenceable(32) %0) #10, !dbg !6029
  br label %41, !dbg !6029

39:                                               ; preds = %29
  call void @_ZNSt7__cxx1112basic_stringIcSt11char_traitsIcESaIcEED1Ev(%"class.std::__cxx11::basic_string"* noundef nonnull align 8 dereferenceable(32) %0) #10, !dbg !6029
  br label %40, !dbg !6029

40:                                               ; preds = %39, %29
  ret void, !dbg !6029

41:                                               ; preds = %35, %31
  %42 = load i8*, i8** %11, align 8, !dbg !6014
  %43 = load i32, i32* %12, align 4, !dbg !6014
  %44 = insertvalue { i8*, i32 } undef, i8* %42, 0, !dbg !6014
  %45 = insertvalue { i8*, i32 } %44, i32 %43, 1, !dbg !6014
  resume { i8*, i32 } %45, !dbg !6014
}

; Function Attrs: mustprogress noinline uwtable
define dso_local %"struct.std::_Rb_tree_node_base"* @_ZN6baseIP16modify_reg_valueENSt7__cxx1112basic_stringIcSt11char_traitsIcESaIcEEEi(%class.baseIP* noundef nonnull align 8 dereferenceable(128) %0, %"class.std::__cxx11::basic_string"* noundef %1, i32 noundef %2) #2 align 2 !dbg !6030 {
  %4 = alloca %"struct.std::_Rb_tree_iterator", align 8
  %5 = alloca %class.baseIP*, align 8
  %6 = alloca i32, align 4
  %7 = alloca %"struct.std::_Rb_tree_iterator", align 8
  store %class.baseIP* %0, %class.baseIP** %5, align 8
  call void @llvm.dbg.declare(metadata %class.baseIP** %5, metadata !6037, metadata !DIExpression()), !dbg !6038
  call void @llvm.dbg.declare(metadata %"class.std::__cxx11::basic_string"* %1, metadata !6039, metadata !DIExpression()), !dbg !6040
  store i32 %2, i32* %6, align 4
  call void @llvm.dbg.declare(metadata i32* %6, metadata !6041, metadata !DIExpression()), !dbg !6042
  %8 = load %class.baseIP*, %class.baseIP** %5, align 8
  call void @llvm.dbg.declare(metadata %"struct.std::_Rb_tree_iterator"* %4, metadata !6043, metadata !DIExpression()), !dbg !6044
  %9 = getelementptr inbounds %class.baseIP, %class.baseIP* %8, i32 0, i32 1, !dbg !6045
  %10 = call %"struct.std::_Rb_tree_node_base"* @_ZNSt3mapINSt7__cxx1112basic_stringIcSt11char_traitsIcESaIcEEEiSt4lessIS5_ESaISt4pairIKS5_iEEE4findERS9_(%"class.std::map"* noundef nonnull align 8 dereferenceable(48) %9, %"class.std::__cxx11::basic_string"* noundef nonnull align 8 dereferenceable(32) %1), !dbg !6046
  %11 = getelementptr inbounds %"struct.std::_Rb_tree_iterator", %"struct.std::_Rb_tree_iterator"* %4, i32 0, i32 0, !dbg !6046
  store %"struct.std::_Rb_tree_node_base"* %10, %"struct.std::_Rb_tree_node_base"** %11, align 8, !dbg !6046
  %12 = getelementptr inbounds %class.baseIP, %class.baseIP* %8, i32 0, i32 1, !dbg !6047
  %13 = call %"struct.std::_Rb_tree_node_base"* @_ZNSt3mapINSt7__cxx1112basic_stringIcSt11char_traitsIcESaIcEEEiSt4lessIS5_ESaISt4pairIKS5_iEEE3endEv(%"class.std::map"* noundef nonnull align 8 dereferenceable(48) %12) #10, !dbg !6049
  %14 = getelementptr inbounds %"struct.std::_Rb_tree_iterator", %"struct.std::_Rb_tree_iterator"* %7, i32 0, i32 0, !dbg !6049
  store %"struct.std::_Rb_tree_node_base"* %13, %"struct.std::_Rb_tree_node_base"** %14, align 8, !dbg !6049
  %15 = call noundef zeroext i1 @_ZSteqRKSt17_Rb_tree_iteratorISt4pairIKNSt7__cxx1112basic_stringIcSt11char_traitsIcESaIcEEEiEESB_(%"struct.std::_Rb_tree_iterator"* noundef nonnull align 8 dereferenceable(8) %4, %"struct.std::_Rb_tree_iterator"* noundef nonnull align 8 dereferenceable(8) %7) #10, !dbg !6050
  br i1 %15, label %20, label %16, !dbg !6051

16:                                               ; preds = %3
  %17 = load i32, i32* %6, align 4, !dbg !6052
  %18 = call noundef %"struct.std::pair"* @_ZNKSt17_Rb_tree_iteratorISt4pairIKNSt7__cxx1112basic_stringIcSt11char_traitsIcESaIcEEEiEEptEv(%"struct.std::_Rb_tree_iterator"* noundef nonnull align 8 dereferenceable(8) %4) #10, !dbg !6054
  %19 = getelementptr inbounds %"struct.std::pair", %"struct.std::pair"* %18, i32 0, i32 1, !dbg !6055
  store i32 %17, i32* %19, align 8, !dbg !6056
  br label %20

20:                                               ; preds = %3, %16
  %21 = getelementptr inbounds %"struct.std::_Rb_tree_iterator", %"struct.std::_Rb_tree_iterator"* %4, i32 0, i32 0, !dbg !6057
  %22 = load %"struct.std::_Rb_tree_node_base"*, %"struct.std::_Rb_tree_node_base"** %21, align 8, !dbg !6057
  ret %"struct.std::_Rb_tree_node_base"* %22, !dbg !6057
}

; Function Attrs: mustprogress noinline nounwind uwtable
define linkonce_odr dso_local noundef %"struct.std::pair"* @_ZNKSt17_Rb_tree_iteratorISt4pairIKNSt7__cxx1112basic_stringIcSt11char_traitsIcESaIcEEEiEEptEv(%"struct.std::_Rb_tree_iterator"* noundef nonnull align 8 dereferenceable(8) %0) #0 comdat align 2 !dbg !6058 {
  %2 = alloca %"struct.std::_Rb_tree_iterator"*, align 8
  store %"struct.std::_Rb_tree_iterator"* %0, %"struct.std::_Rb_tree_iterator"** %2, align 8
  call void @llvm.dbg.declare(metadata %"struct.std::_Rb_tree_iterator"** %2, metadata !6059, metadata !DIExpression()), !dbg !6061
  %3 = load %"struct.std::_Rb_tree_iterator"*, %"struct.std::_Rb_tree_iterator"** %2, align 8
  %4 = getelementptr inbounds %"struct.std::_Rb_tree_iterator", %"struct.std::_Rb_tree_iterator"* %3, i32 0, i32 0, !dbg !6062
  %5 = load %"struct.std::_Rb_tree_node_base"*, %"struct.std::_Rb_tree_node_base"** %4, align 8, !dbg !6062
  %6 = bitcast %"struct.std::_Rb_tree_node_base"* %5 to %"struct.std::_Rb_tree_node"*, !dbg !6063
  %7 = call noundef %"struct.std::pair"* @_ZNSt13_Rb_tree_nodeISt4pairIKNSt7__cxx1112basic_stringIcSt11char_traitsIcESaIcEEEiEE9_M_valptrEv(%"struct.std::_Rb_tree_node"* noundef nonnull align 8 dereferenceable(72) %6), !dbg !6064
  ret %"struct.std::pair"* %7, !dbg !6065
}

; Function Attrs: mustprogress noinline nounwind uwtable
define dso_local void @_ZN6baseIP9print_mapERKSt3mapINSt7__cxx1112basic_stringIcSt11char_traitsIcESaIcEEEiSt4lessIS6_ESaISt4pairIKS6_iEEE(%class.baseIP* noundef nonnull align 8 dereferenceable(128) %0, %"class.std::map"* noundef nonnull align 8 dereferenceable(48) %1) #0 align 2 !dbg !6066 {
  %3 = alloca %class.baseIP*, align 8
  %4 = alloca %"class.std::map"*, align 8
  %5 = alloca %"class.std::map"*, align 8
  %6 = alloca %"struct.std::_Rb_tree_const_iterator", align 8
  %7 = alloca %"struct.std::_Rb_tree_const_iterator", align 8
  %8 = alloca %"struct.std::pair"*, align 8
  store %class.baseIP* %0, %class.baseIP** %3, align 8
  call void @llvm.dbg.declare(metadata %class.baseIP** %3, metadata !6067, metadata !DIExpression()), !dbg !6068
  store %"class.std::map"* %1, %"class.std::map"** %4, align 8
  call void @llvm.dbg.declare(metadata %"class.std::map"** %4, metadata !6069, metadata !DIExpression()), !dbg !6070
  %9 = load %class.baseIP*, %class.baseIP** %3, align 8
  call void @llvm.dbg.declare(metadata %"class.std::map"** %5, metadata !6071, metadata !DIExpression()), !dbg !6073
  %10 = load %"class.std::map"*, %"class.std::map"** %4, align 8, !dbg !6074
  store %"class.std::map"* %10, %"class.std::map"** %5, align 8, !dbg !6074
  call void @llvm.dbg.declare(metadata %"struct.std::_Rb_tree_const_iterator"* %6, metadata !6075, metadata !DIExpression()), !dbg !6073
  %11 = load %"class.std::map"*, %"class.std::map"** %5, align 8, !dbg !6076
  %12 = call %"struct.std::_Rb_tree_node_base"* @_ZNKSt3mapINSt7__cxx1112basic_stringIcSt11char_traitsIcESaIcEEEiSt4lessIS5_ESaISt4pairIKS5_iEEE5beginEv(%"class.std::map"* noundef nonnull align 8 dereferenceable(48) %11) #10, !dbg !6076
  %13 = getelementptr inbounds %"struct.std::_Rb_tree_const_iterator", %"struct.std::_Rb_tree_const_iterator"* %6, i32 0, i32 0, !dbg !6076
  store %"struct.std::_Rb_tree_node_base"* %12, %"struct.std::_Rb_tree_node_base"** %13, align 8, !dbg !6076
  call void @llvm.dbg.declare(metadata %"struct.std::_Rb_tree_const_iterator"* %7, metadata !6077, metadata !DIExpression()), !dbg !6073
  %14 = load %"class.std::map"*, %"class.std::map"** %5, align 8, !dbg !6076
  %15 = call %"struct.std::_Rb_tree_node_base"* @_ZNKSt3mapINSt7__cxx1112basic_stringIcSt11char_traitsIcESaIcEEEiSt4lessIS5_ESaISt4pairIKS5_iEEE3endEv(%"class.std::map"* noundef nonnull align 8 dereferenceable(48) %14) #10, !dbg !6076
  %16 = getelementptr inbounds %"struct.std::_Rb_tree_const_iterator", %"struct.std::_Rb_tree_const_iterator"* %7, i32 0, i32 0, !dbg !6076
  store %"struct.std::_Rb_tree_node_base"* %15, %"struct.std::_Rb_tree_node_base"** %16, align 8, !dbg !6076
  br label %17, !dbg !6076

17:                                               ; preds = %19, %2
  %18 = call noundef zeroext i1 @_ZStneRKSt23_Rb_tree_const_iteratorISt4pairIKNSt7__cxx1112basic_stringIcSt11char_traitsIcESaIcEEEiEESB_(%"struct.std::_Rb_tree_const_iterator"* noundef nonnull align 8 dereferenceable(8) %6, %"struct.std::_Rb_tree_const_iterator"* noundef nonnull align 8 dereferenceable(8) %7) #10, !dbg !6076
  br i1 %18, label %19, label %22, !dbg !6076

19:                                               ; preds = %17
  call void @llvm.dbg.declare(metadata %"struct.std::pair"** %8, metadata !6078, metadata !DIExpression()), !dbg !6080
  %20 = call noundef nonnull align 8 dereferenceable(36) %"struct.std::pair"* @_ZNKSt23_Rb_tree_const_iteratorISt4pairIKNSt7__cxx1112basic_stringIcSt11char_traitsIcESaIcEEEiEEdeEv(%"struct.std::_Rb_tree_const_iterator"* noundef nonnull align 8 dereferenceable(8) %6) #10, !dbg !6081
  store %"struct.std::pair"* %20, %"struct.std::pair"** %8, align 8, !dbg !6080
  %21 = call noundef nonnull align 8 dereferenceable(8) %"struct.std::_Rb_tree_const_iterator"* @_ZNSt23_Rb_tree_const_iteratorISt4pairIKNSt7__cxx1112basic_stringIcSt11char_traitsIcESaIcEEEiEEppEv(%"struct.std::_Rb_tree_const_iterator"* noundef nonnull align 8 dereferenceable(8) %6) #10, !dbg !6076
  br label %17, !dbg !6076, !llvm.loop !6082

22:                                               ; preds = %17
  ret void, !dbg !6085
}

; Function Attrs: mustprogress noinline nounwind uwtable
define linkonce_odr dso_local %"struct.std::_Rb_tree_node_base"* @_ZNKSt3mapINSt7__cxx1112basic_stringIcSt11char_traitsIcESaIcEEEiSt4lessIS5_ESaISt4pairIKS5_iEEE5beginEv(%"class.std::map"* noundef nonnull align 8 dereferenceable(48) %0) #0 comdat align 2 !dbg !6086 {
  %2 = alloca %"struct.std::_Rb_tree_const_iterator", align 8
  %3 = alloca %"class.std::map"*, align 8
  store %"class.std::map"* %0, %"class.std::map"** %3, align 8
  call void @llvm.dbg.declare(metadata %"class.std::map"** %3, metadata !6087, metadata !DIExpression()), !dbg !6089
  %4 = load %"class.std::map"*, %"class.std::map"** %3, align 8
  %5 = getelementptr inbounds %"class.std::map", %"class.std::map"* %4, i32 0, i32 0, !dbg !6090
  %6 = call %"struct.std::_Rb_tree_node_base"* @_ZNKSt8_Rb_treeINSt7__cxx1112basic_stringIcSt11char_traitsIcESaIcEEESt4pairIKS5_iESt10_Select1stIS8_ESt4lessIS5_ESaIS8_EE5beginEv(%"class.std::_Rb_tree"* noundef nonnull align 8 dereferenceable(48) %5) #10, !dbg !6091
  %7 = getelementptr inbounds %"struct.std::_Rb_tree_const_iterator", %"struct.std::_Rb_tree_const_iterator"* %2, i32 0, i32 0, !dbg !6091
  store %"struct.std::_Rb_tree_node_base"* %6, %"struct.std::_Rb_tree_node_base"** %7, align 8, !dbg !6091
  %8 = getelementptr inbounds %"struct.std::_Rb_tree_const_iterator", %"struct.std::_Rb_tree_const_iterator"* %2, i32 0, i32 0, !dbg !6092
  %9 = load %"struct.std::_Rb_tree_node_base"*, %"struct.std::_Rb_tree_node_base"** %8, align 8, !dbg !6092
  ret %"struct.std::_Rb_tree_node_base"* %9, !dbg !6092
}

; Function Attrs: mustprogress noinline nounwind uwtable
define linkonce_odr dso_local %"struct.std::_Rb_tree_node_base"* @_ZNKSt3mapINSt7__cxx1112basic_stringIcSt11char_traitsIcESaIcEEEiSt4lessIS5_ESaISt4pairIKS5_iEEE3endEv(%"class.std::map"* noundef nonnull align 8 dereferenceable(48) %0) #0 comdat align 2 !dbg !6093 {
  %2 = alloca %"struct.std::_Rb_tree_const_iterator", align 8
  %3 = alloca %"class.std::map"*, align 8
  store %"class.std::map"* %0, %"class.std::map"** %3, align 8
  call void @llvm.dbg.declare(metadata %"class.std::map"** %3, metadata !6094, metadata !DIExpression()), !dbg !6095
  %4 = load %"class.std::map"*, %"class.std::map"** %3, align 8
  %5 = getelementptr inbounds %"class.std::map", %"class.std::map"* %4, i32 0, i32 0, !dbg !6096
  %6 = call %"struct.std::_Rb_tree_node_base"* @_ZNKSt8_Rb_treeINSt7__cxx1112basic_stringIcSt11char_traitsIcESaIcEEESt4pairIKS5_iESt10_Select1stIS8_ESt4lessIS5_ESaIS8_EE3endEv(%"class.std::_Rb_tree"* noundef nonnull align 8 dereferenceable(48) %5) #10, !dbg !6097
  %7 = getelementptr inbounds %"struct.std::_Rb_tree_const_iterator", %"struct.std::_Rb_tree_const_iterator"* %2, i32 0, i32 0, !dbg !6097
  store %"struct.std::_Rb_tree_node_base"* %6, %"struct.std::_Rb_tree_node_base"** %7, align 8, !dbg !6097
  %8 = getelementptr inbounds %"struct.std::_Rb_tree_const_iterator", %"struct.std::_Rb_tree_const_iterator"* %2, i32 0, i32 0, !dbg !6098
  %9 = load %"struct.std::_Rb_tree_node_base"*, %"struct.std::_Rb_tree_node_base"** %8, align 8, !dbg !6098
  ret %"struct.std::_Rb_tree_node_base"* %9, !dbg !6098
}

; Function Attrs: mustprogress noinline nounwind uwtable
define linkonce_odr dso_local noundef zeroext i1 @_ZStneRKSt23_Rb_tree_const_iteratorISt4pairIKNSt7__cxx1112basic_stringIcSt11char_traitsIcESaIcEEEiEESB_(%"struct.std::_Rb_tree_const_iterator"* noundef nonnull align 8 dereferenceable(8) %0, %"struct.std::_Rb_tree_const_iterator"* noundef nonnull align 8 dereferenceable(8) %1) #0 comdat !dbg !6099 {
  %3 = alloca %"struct.std::_Rb_tree_const_iterator"*, align 8
  %4 = alloca %"struct.std::_Rb_tree_const_iterator"*, align 8
  store %"struct.std::_Rb_tree_const_iterator"* %0, %"struct.std::_Rb_tree_const_iterator"** %3, align 8
  call void @llvm.dbg.declare(metadata %"struct.std::_Rb_tree_const_iterator"** %3, metadata !6104, metadata !DIExpression()), !dbg !6105
  store %"struct.std::_Rb_tree_const_iterator"* %1, %"struct.std::_Rb_tree_const_iterator"** %4, align 8
  call void @llvm.dbg.declare(metadata %"struct.std::_Rb_tree_const_iterator"** %4, metadata !6106, metadata !DIExpression()), !dbg !6107
  %5 = load %"struct.std::_Rb_tree_const_iterator"*, %"struct.std::_Rb_tree_const_iterator"** %3, align 8, !dbg !6108
  %6 = getelementptr inbounds %"struct.std::_Rb_tree_const_iterator", %"struct.std::_Rb_tree_const_iterator"* %5, i32 0, i32 0, !dbg !6109
  %7 = load %"struct.std::_Rb_tree_node_base"*, %"struct.std::_Rb_tree_node_base"** %6, align 8, !dbg !6109
  %8 = load %"struct.std::_Rb_tree_const_iterator"*, %"struct.std::_Rb_tree_const_iterator"** %4, align 8, !dbg !6110
  %9 = getelementptr inbounds %"struct.std::_Rb_tree_const_iterator", %"struct.std::_Rb_tree_const_iterator"* %8, i32 0, i32 0, !dbg !6111
  %10 = load %"struct.std::_Rb_tree_node_base"*, %"struct.std::_Rb_tree_node_base"** %9, align 8, !dbg !6111
  %11 = icmp ne %"struct.std::_Rb_tree_node_base"* %7, %10, !dbg !6112
  ret i1 %11, !dbg !6113
}

; Function Attrs: mustprogress noinline nounwind uwtable
define linkonce_odr dso_local noundef nonnull align 8 dereferenceable(36) %"struct.std::pair"* @_ZNKSt23_Rb_tree_const_iteratorISt4pairIKNSt7__cxx1112basic_stringIcSt11char_traitsIcESaIcEEEiEEdeEv(%"struct.std::_Rb_tree_const_iterator"* noundef nonnull align 8 dereferenceable(8) %0) #0 comdat align 2 !dbg !6114 {
  %2 = alloca %"struct.std::_Rb_tree_const_iterator"*, align 8
  store %"struct.std::_Rb_tree_const_iterator"* %0, %"struct.std::_Rb_tree_const_iterator"** %2, align 8
  call void @llvm.dbg.declare(metadata %"struct.std::_Rb_tree_const_iterator"** %2, metadata !6115, metadata !DIExpression()), !dbg !6117
  %3 = load %"struct.std::_Rb_tree_const_iterator"*, %"struct.std::_Rb_tree_const_iterator"** %2, align 8
  %4 = getelementptr inbounds %"struct.std::_Rb_tree_const_iterator", %"struct.std::_Rb_tree_const_iterator"* %3, i32 0, i32 0, !dbg !6118
  %5 = load %"struct.std::_Rb_tree_node_base"*, %"struct.std::_Rb_tree_node_base"** %4, align 8, !dbg !6118
  %6 = bitcast %"struct.std::_Rb_tree_node_base"* %5 to %"struct.std::_Rb_tree_node"*, !dbg !6119
  %7 = call noundef %"struct.std::pair"* @_ZNKSt13_Rb_tree_nodeISt4pairIKNSt7__cxx1112basic_stringIcSt11char_traitsIcESaIcEEEiEE9_M_valptrEv(%"struct.std::_Rb_tree_node"* noundef nonnull align 8 dereferenceable(72) %6), !dbg !6120
  ret %"struct.std::pair"* %7, !dbg !6121
}

; Function Attrs: mustprogress noinline nounwind uwtable
define linkonce_odr dso_local noundef nonnull align 8 dereferenceable(8) %"struct.std::_Rb_tree_const_iterator"* @_ZNSt23_Rb_tree_const_iteratorISt4pairIKNSt7__cxx1112basic_stringIcSt11char_traitsIcESaIcEEEiEEppEv(%"struct.std::_Rb_tree_const_iterator"* noundef nonnull align 8 dereferenceable(8) %0) #0 comdat align 2 !dbg !6122 {
  %2 = alloca %"struct.std::_Rb_tree_const_iterator"*, align 8
  store %"struct.std::_Rb_tree_const_iterator"* %0, %"struct.std::_Rb_tree_const_iterator"** %2, align 8
  call void @llvm.dbg.declare(metadata %"struct.std::_Rb_tree_const_iterator"** %2, metadata !6123, metadata !DIExpression()), !dbg !6125
  %3 = load %"struct.std::_Rb_tree_const_iterator"*, %"struct.std::_Rb_tree_const_iterator"** %2, align 8
  %4 = getelementptr inbounds %"struct.std::_Rb_tree_const_iterator", %"struct.std::_Rb_tree_const_iterator"* %3, i32 0, i32 0, !dbg !6126
  %5 = load %"struct.std::_Rb_tree_node_base"*, %"struct.std::_Rb_tree_node_base"** %4, align 8, !dbg !6126
  %6 = call noundef %"struct.std::_Rb_tree_node_base"* @_ZSt18_Rb_tree_incrementPKSt18_Rb_tree_node_base(%"struct.std::_Rb_tree_node_base"* noundef %5) #23, !dbg !6127
  %7 = getelementptr inbounds %"struct.std::_Rb_tree_const_iterator", %"struct.std::_Rb_tree_const_iterator"* %3, i32 0, i32 0, !dbg !6128
  store %"struct.std::_Rb_tree_node_base"* %6, %"struct.std::_Rb_tree_node_base"** %7, align 8, !dbg !6129
  ret %"struct.std::_Rb_tree_const_iterator"* %3, !dbg !6130
}

; Function Attrs: noinline uwtable
define internal void @__cxx_global_var_init() #5 section ".text.startup" !dbg !6131 {
  %1 = call noalias noundef nonnull i8* @_Znwm(i64 noundef 56) #24, !dbg !6132, !heapallocsite !3227
  %2 = bitcast i8* %1 to %"class.std::unordered_map"*, !dbg !6132
  %3 = bitcast %"class.std::unordered_map"* %2 to i8*, !dbg !6134
  %4 = call i8* @memset(i8* %3, i32 0, i64 56), !dbg !6134
  call void @_ZNSt13unordered_mapINSt7__cxx1112basic_stringIcSt11char_traitsIcESaIcEEEiSt4hashIS5_ESt8equal_toIS5_ESaISt4pairIKS5_iEEEC2Ev(%"class.std::unordered_map"* noundef nonnull align 8 dereferenceable(56) %2) #10, !dbg !6134
  store %"class.std::unordered_map"* %2, %"class.std::unordered_map"** @_ZN17system_memory_map17global_memory_mapB5cxx11E, align 8, !dbg !6135
  ret void, !dbg !6134
}

; Function Attrs: nobuiltin allocsize(0)
declare noundef nonnull i8* @_Znwm(i64 noundef) #6

; Function Attrs: argmemonly nofree nounwind willreturn writeonly
declare void @llvm.memset.p0i8.i64(i8* nocapture writeonly, i8, i64, i1 immarg) #7

; Function Attrs: noinline nounwind uwtable
define linkonce_odr dso_local void @_ZNSt13unordered_mapINSt7__cxx1112basic_stringIcSt11char_traitsIcESaIcEEEiSt4hashIS5_ESt8equal_toIS5_ESaISt4pairIKS5_iEEEC2Ev(%"class.std::unordered_map"* noundef nonnull align 8 dereferenceable(56) %0) unnamed_addr #8 comdat align 2 !dbg !6136 {
  %2 = alloca %"class.std::unordered_map"*, align 8
  store %"class.std::unordered_map"* %0, %"class.std::unordered_map"** %2, align 8
  call void @llvm.dbg.declare(metadata %"class.std::unordered_map"** %2, metadata !6137, metadata !DIExpression()), !dbg !6138
  %3 = load %"class.std::unordered_map"*, %"class.std::unordered_map"** %2, align 8
  %4 = getelementptr inbounds %"class.std::unordered_map", %"class.std::unordered_map"* %3, i32 0, i32 0, !dbg !6139
  call void @_ZNSt10_HashtableINSt7__cxx1112basic_stringIcSt11char_traitsIcESaIcEEESt4pairIKS5_iESaIS8_ENSt8__detail10_Select1stESt8equal_toIS5_ESt4hashIS5_ENSA_18_Mod_range_hashingENSA_20_Default_ranged_hashENSA_20_Prime_rehash_policyENSA_17_Hashtable_traitsILb1ELb0ELb1EEEEC2Ev(%"class.std::_Hashtable"* noundef nonnull align 8 dereferenceable(56) %4) #10, !dbg !6139
  ret void, !dbg !6140
}

; Function Attrs: mustprogress noinline uwtable
define dso_local void @_ZN17system_memory_map18display_valid_bitsEv(%class.system_memory_map* noundef nonnull align 8 dereferenceable(40) %0) #2 align 2 personality i8* bitcast (i32 (...)* @__gxx_personality_v0 to i8*) !dbg !6141 {
  %2 = alloca %class.system_memory_map*, align 8
  %3 = alloca %"class.std::__cxx11::basic_string", align 8
  %4 = alloca %"class.std::allocator", align 1
  %5 = alloca i8*, align 8
  %6 = alloca i32, align 4
  %7 = alloca i32, align 4
  %8 = alloca %"class.std::__cxx11::basic_string", align 8
  store %class.system_memory_map* %0, %class.system_memory_map** %2, align 8
  call void @llvm.dbg.declare(metadata %class.system_memory_map** %2, metadata !6142, metadata !DIExpression()), !dbg !6143
  %9 = load %class.system_memory_map*, %class.system_memory_map** %2, align 8
  %10 = bitcast %class.system_memory_map* %9 to %class.Log*, !dbg !6144
  call void @_ZNSaIcEC1Ev(%"class.std::allocator"* noundef nonnull align 1 dereferenceable(1) %4) #10, !dbg !6145
  invoke void @_ZNSt7__cxx1112basic_stringIcSt11char_traitsIcESaIcEEC1EPKcRKS3_(%"class.std::__cxx11::basic_string"* noundef nonnull align 8 dereferenceable(32) %3, i8* noundef getelementptr inbounds ([23 x i8], [23 x i8]* @.str.3, i64 0, i64 0), %"class.std::allocator"* noundef nonnull align 1 dereferenceable(1) %4)
          to label %11 unwind label %27, !dbg !6145

11:                                               ; preds = %1
  call void @_ZN3Log10to_consoleENSt7__cxx1112basic_stringIcSt11char_traitsIcESaIcEEEi(%class.Log* noundef nonnull align 4 dereferenceable(20) %10, %"class.std::__cxx11::basic_string"* noundef %3, i32 noundef 2), !dbg !6144
  call void @_ZNSt7__cxx1112basic_stringIcSt11char_traitsIcESaIcEED1Ev(%"class.std::__cxx11::basic_string"* noundef nonnull align 8 dereferenceable(32) %3) #10, !dbg !6144
  call void @_ZNSaIcED1Ev(%"class.std::allocator"* noundef nonnull align 1 dereferenceable(1) %4) #10, !dbg !6144
  call void @llvm.dbg.declare(metadata i32* %7, metadata !6146, metadata !DIExpression()), !dbg !6148
  store i32 0, i32* %7, align 4, !dbg !6148
  br label %12, !dbg !6149

12:                                               ; preds = %17, %11
  %13 = load i32, i32* %7, align 4, !dbg !6150
  %14 = getelementptr inbounds %class.system_memory_map, %class.system_memory_map* %9, i32 0, i32 2, !dbg !6152
  %15 = load i32, i32* %14, align 8, !dbg !6152
  %16 = icmp slt i32 %13, %15, !dbg !6153
  br i1 %16, label %17, label %35, !dbg !6154

17:                                               ; preds = %12
  %18 = bitcast %class.system_memory_map* %9 to %class.Log*, !dbg !6155
  %19 = getelementptr inbounds %class.system_memory_map, %class.system_memory_map* %9, i32 0, i32 3, !dbg !6157
  %20 = load i32*, i32** %19, align 8, !dbg !6157
  %21 = load i32, i32* %7, align 4, !dbg !6158
  %22 = sext i32 %21 to i64, !dbg !6157
  %23 = getelementptr inbounds i32, i32* %20, i64 %22, !dbg !6157
  %24 = load i32, i32* %23, align 4, !dbg !6157
  call void @_ZNSt7__cxx119to_stringEi(%"class.std::__cxx11::basic_string"* sret(%"class.std::__cxx11::basic_string") align 8 %8, i32 noundef %24), !dbg !6159
  call void @_ZN3Log10to_consoleENSt7__cxx1112basic_stringIcSt11char_traitsIcESaIcEEEi(%class.Log* noundef nonnull align 4 dereferenceable(20) %18, %"class.std::__cxx11::basic_string"* noundef %8, i32 noundef 2), !dbg !6155
  call void @_ZNSt7__cxx1112basic_stringIcSt11char_traitsIcESaIcEED1Ev(%"class.std::__cxx11::basic_string"* noundef nonnull align 8 dereferenceable(32) %8) #10, !dbg !6155
  %25 = load i32, i32* %7, align 4, !dbg !6160
  %26 = add nsw i32 %25, 1, !dbg !6160
  store i32 %26, i32* %7, align 4, !dbg !6160
  br label %12, !dbg !6161, !llvm.loop !6162

27:                                               ; preds = %1
  %28 = landingpad { i8*, i32 }
          cleanup, !dbg !6165
  %29 = extractvalue { i8*, i32 } %28, 0, !dbg !6165
  store i8* %29, i8** %5, align 8, !dbg !6165
  %30 = extractvalue { i8*, i32 } %28, 1, !dbg !6165
  store i32 %30, i32* %6, align 4, !dbg !6165
  call void @_ZNSaIcED1Ev(%"class.std::allocator"* noundef nonnull align 1 dereferenceable(1) %4) #10, !dbg !6144
  %31 = load i8*, i8** %5, align 8, !dbg !6144
  %32 = load i32, i32* %6, align 4, !dbg !6144
  %33 = insertvalue { i8*, i32 } undef, i8* %31, 0, !dbg !6144
  %34 = insertvalue { i8*, i32 } %33, i32 %32, 1, !dbg !6144
  resume { i8*, i32 } %34, !dbg !6144

35:                                               ; preds = %12
  ret void, !dbg !6165
}

; Function Attrs: nounwind
declare void @_ZNSaIcEC1Ev(%"class.std::allocator"* noundef nonnull align 1 dereferenceable(1)) unnamed_addr #3

declare void @_ZNSt7__cxx1112basic_stringIcSt11char_traitsIcESaIcEEC1EPKcRKS3_(%"class.std::__cxx11::basic_string"* noundef nonnull align 8 dereferenceable(32), i8* noundef, %"class.std::allocator"* noundef nonnull align 1 dereferenceable(1)) unnamed_addr #4

; Function Attrs: nounwind
declare void @_ZNSaIcED1Ev(%"class.std::allocator"* noundef nonnull align 1 dereferenceable(1)) unnamed_addr #3

; Function Attrs: mustprogress noinline nounwind uwtable
define dso_local noundef zeroext i1 @_ZN17system_memory_map15check_valid_bitEi(%class.system_memory_map* noundef nonnull align 8 dereferenceable(40) %0, i32 noundef %1) #0 align 2 !dbg !6166 {
  %3 = alloca i1, align 1
  %4 = alloca %class.system_memory_map*, align 8
  %5 = alloca i32, align 4
  store %class.system_memory_map* %0, %class.system_memory_map** %4, align 8
  call void @llvm.dbg.declare(metadata %class.system_memory_map** %4, metadata !6167, metadata !DIExpression()), !dbg !6168
  store i32 %1, i32* %5, align 4
  call void @llvm.dbg.declare(metadata i32* %5, metadata !6169, metadata !DIExpression()), !dbg !6170
  %6 = load %class.system_memory_map*, %class.system_memory_map** %4, align 8
  %7 = getelementptr inbounds %class.system_memory_map, %class.system_memory_map* %6, i32 0, i32 3, !dbg !6171
  %8 = load i32*, i32** %7, align 8, !dbg !6171
  %9 = load i32, i32* %5, align 4, !dbg !6173
  %10 = sext i32 %9 to i64, !dbg !6171
  %11 = getelementptr inbounds i32, i32* %8, i64 %10, !dbg !6171
  %12 = load i32, i32* %11, align 4, !dbg !6171
  %13 = icmp eq i32 %12, 1, !dbg !6174
  br i1 %13, label %14, label %15, !dbg !6175

14:                                               ; preds = %2
  store i1 true, i1* %3, align 1, !dbg !6176
  br label %16, !dbg !6176

15:                                               ; preds = %2
  store i1 false, i1* %3, align 1, !dbg !6178
  br label %16, !dbg !6178

16:                                               ; preds = %15, %14
  %17 = load i1, i1* %3, align 1, !dbg !6180
  ret i1 %17, !dbg !6180
}

; Function Attrs: mustprogress noinline uwtable
define dso_local void @_ZN17system_memory_map23update_system_reg_valueENSt7__cxx1112basic_stringIcSt11char_traitsIcESaIcEEEi(%class.system_memory_map* noundef nonnull align 8 dereferenceable(40) %0, %"class.std::__cxx11::basic_string"* noundef %1, i32 noundef %2) #2 align 2 personality i8* bitcast (i32 (...)* @__gxx_personality_v0 to i8*) !dbg !6181 {
  %4 = alloca %class.system_memory_map*, align 8
  %5 = alloca i32, align 4
  %6 = alloca i32, align 4
  %7 = alloca %"struct.std::__detail::_Node_iterator", align 8
  %8 = alloca %"struct.std::__detail::_Node_iterator", align 8
  %9 = alloca %"struct.std::__detail::_Node_iterator", align 8
  %10 = alloca %"struct.std::__detail::_Node_iterator", align 8
  %11 = alloca %"class.std::__cxx11::basic_string", align 8
  %12 = alloca %"class.std::__cxx11::basic_string", align 8
  %13 = alloca %"class.std::__cxx11::basic_string", align 8
  %14 = alloca i8*, align 8
  %15 = alloca i32, align 4
  %16 = alloca %"class.std::__cxx11::basic_string", align 8
  store %class.system_memory_map* %0, %class.system_memory_map** %4, align 8
  call void @llvm.dbg.declare(metadata %class.system_memory_map** %4, metadata !6182, metadata !DIExpression()), !dbg !6183
  call void @llvm.dbg.declare(metadata %"class.std::__cxx11::basic_string"* %1, metadata !6184, metadata !DIExpression()), !dbg !6185
  store i32 %2, i32* %5, align 4
  call void @llvm.dbg.declare(metadata i32* %5, metadata !6186, metadata !DIExpression()), !dbg !6187
  %17 = load %class.system_memory_map*, %class.system_memory_map** %4, align 8
  call void @llvm.dbg.declare(metadata i32* %6, metadata !6188, metadata !DIExpression()), !dbg !6189
  %18 = load %"class.std::unordered_map"*, %"class.std::unordered_map"** @_ZN17system_memory_map17global_memory_mapB5cxx11E, align 8, !dbg !6190
  %19 = call noundef i64 @_ZNKSt13unordered_mapINSt7__cxx1112basic_stringIcSt11char_traitsIcESaIcEEEiSt4hashIS5_ESt8equal_toIS5_ESaISt4pairIKS5_iEEE4sizeEv(%"class.std::unordered_map"* noundef nonnull align 8 dereferenceable(56) %18) #10, !dbg !6191
  %20 = load %"class.std::unordered_map"*, %"class.std::unordered_map"** @_ZN17system_memory_map17global_memory_mapB5cxx11E, align 8, !dbg !6192
  %21 = call %"struct.std::__detail::_Hash_node"* @_ZNSt13unordered_mapINSt7__cxx1112basic_stringIcSt11char_traitsIcESaIcEEEiSt4hashIS5_ESt8equal_toIS5_ESaISt4pairIKS5_iEEE5beginEv(%"class.std::unordered_map"* noundef nonnull align 8 dereferenceable(56) %20) #10, !dbg !6193
  %22 = getelementptr inbounds %"struct.std::__detail::_Node_iterator", %"struct.std::__detail::_Node_iterator"* %7, i32 0, i32 0, !dbg !6193
  %23 = getelementptr inbounds %"struct.std::__detail::_Node_iterator_base", %"struct.std::__detail::_Node_iterator_base"* %22, i32 0, i32 0, !dbg !6193
  store %"struct.std::__detail::_Hash_node"* %21, %"struct.std::__detail::_Hash_node"** %23, align 8, !dbg !6193
  %24 = load %"class.std::unordered_map"*, %"class.std::unordered_map"** @_ZN17system_memory_map17global_memory_mapB5cxx11E, align 8, !dbg !6194
  %25 = call %"struct.std::__detail::_Hash_node"* @_ZNSt13unordered_mapINSt7__cxx1112basic_stringIcSt11char_traitsIcESaIcEEEiSt4hashIS5_ESt8equal_toIS5_ESaISt4pairIKS5_iEEE4findERSB_(%"class.std::unordered_map"* noundef nonnull align 8 dereferenceable(56) %24, %"class.std::__cxx11::basic_string"* noundef nonnull align 8 dereferenceable(32) %1), !dbg !6195
  %26 = getelementptr inbounds %"struct.std::__detail::_Node_iterator", %"struct.std::__detail::_Node_iterator"* %8, i32 0, i32 0, !dbg !6195
  %27 = getelementptr inbounds %"struct.std::__detail::_Node_iterator_base", %"struct.std::__detail::_Node_iterator_base"* %26, i32 0, i32 0, !dbg !6195
  store %"struct.std::__detail::_Hash_node"* %25, %"struct.std::__detail::_Hash_node"** %27, align 8, !dbg !6195
  %28 = getelementptr inbounds %"struct.std::__detail::_Node_iterator", %"struct.std::__detail::_Node_iterator"* %7, i32 0, i32 0, !dbg !6196
  %29 = getelementptr inbounds %"struct.std::__detail::_Node_iterator_base", %"struct.std::__detail::_Node_iterator_base"* %28, i32 0, i32 0, !dbg !6196
  %30 = load %"struct.std::__detail::_Hash_node"*, %"struct.std::__detail::_Hash_node"** %29, align 8, !dbg !6196
  %31 = getelementptr inbounds %"struct.std::__detail::_Node_iterator", %"struct.std::__detail::_Node_iterator"* %8, i32 0, i32 0, !dbg !6196
  %32 = getelementptr inbounds %"struct.std::__detail::_Node_iterator_base", %"struct.std::__detail::_Node_iterator_base"* %31, i32 0, i32 0, !dbg !6196
  %33 = load %"struct.std::__detail::_Hash_node"*, %"struct.std::__detail::_Hash_node"** %32, align 8, !dbg !6196
  %34 = call noundef i64 @_ZSt8distanceINSt8__detail14_Node_iteratorISt4pairIKNSt7__cxx1112basic_stringIcSt11char_traitsIcESaIcEEEiELb0ELb1EEEENSt15iterator_traitsIT_E15difference_typeESD_SD_(%"struct.std::__detail::_Hash_node"* %30, %"struct.std::__detail::_Hash_node"* %33), !dbg !6196
  %35 = sub i64 %19, %34, !dbg !6197
  %36 = sub i64 %35, 1, !dbg !6198
  %37 = trunc i64 %36 to i32, !dbg !6190
  store i32 %37, i32* %6, align 4, !dbg !6199
  %38 = getelementptr inbounds %class.system_memory_map, %class.system_memory_map* %17, i32 0, i32 3, !dbg !6200
  %39 = load i32*, i32** %38, align 8, !dbg !6200
  %40 = load i32, i32* %6, align 4, !dbg !6201
  %41 = sext i32 %40 to i64, !dbg !6200
  %42 = getelementptr inbounds i32, i32* %39, i64 %41, !dbg !6200
  store i32 1, i32* %42, align 4, !dbg !6202
  call void @llvm.dbg.declare(metadata %"struct.std::__detail::_Node_iterator"* %9, metadata !6203, metadata !DIExpression()), !dbg !6204
  %43 = load %"class.std::unordered_map"*, %"class.std::unordered_map"** @_ZN17system_memory_map17global_memory_mapB5cxx11E, align 8, !dbg !6205
  %44 = call %"struct.std::__detail::_Hash_node"* @_ZNSt13unordered_mapINSt7__cxx1112basic_stringIcSt11char_traitsIcESaIcEEEiSt4hashIS5_ESt8equal_toIS5_ESaISt4pairIKS5_iEEE4findERSB_(%"class.std::unordered_map"* noundef nonnull align 8 dereferenceable(56) %43, %"class.std::__cxx11::basic_string"* noundef nonnull align 8 dereferenceable(32) %1), !dbg !6206
  %45 = getelementptr inbounds %"struct.std::__detail::_Node_iterator", %"struct.std::__detail::_Node_iterator"* %9, i32 0, i32 0, !dbg !6206
  %46 = getelementptr inbounds %"struct.std::__detail::_Node_iterator_base", %"struct.std::__detail::_Node_iterator_base"* %45, i32 0, i32 0, !dbg !6206
  store %"struct.std::__detail::_Hash_node"* %44, %"struct.std::__detail::_Hash_node"** %46, align 8, !dbg !6206
  %47 = bitcast %"struct.std::__detail::_Node_iterator"* %9 to %"struct.std::__detail::_Node_iterator_base"*, !dbg !6207
  %48 = load %"class.std::unordered_map"*, %"class.std::unordered_map"** @_ZN17system_memory_map17global_memory_mapB5cxx11E, align 8, !dbg !6209
  %49 = call %"struct.std::__detail::_Hash_node"* @_ZNSt13unordered_mapINSt7__cxx1112basic_stringIcSt11char_traitsIcESaIcEEEiSt4hashIS5_ESt8equal_toIS5_ESaISt4pairIKS5_iEEE3endEv(%"class.std::unordered_map"* noundef nonnull align 8 dereferenceable(56) %48) #10, !dbg !6210
  %50 = getelementptr inbounds %"struct.std::__detail::_Node_iterator", %"struct.std::__detail::_Node_iterator"* %10, i32 0, i32 0, !dbg !6210
  %51 = getelementptr inbounds %"struct.std::__detail::_Node_iterator_base", %"struct.std::__detail::_Node_iterator_base"* %50, i32 0, i32 0, !dbg !6210
  store %"struct.std::__detail::_Hash_node"* %49, %"struct.std::__detail::_Hash_node"** %51, align 8, !dbg !6210
  %52 = bitcast %"struct.std::__detail::_Node_iterator"* %10 to %"struct.std::__detail::_Node_iterator_base"*, !dbg !6209
  %53 = call noundef zeroext i1 @_ZNSt8__detailneERKNS_19_Node_iterator_baseISt4pairIKNSt7__cxx1112basic_stringIcSt11char_traitsIcESaIcEEEiELb1EEESC_(%"struct.std::__detail::_Node_iterator_base"* noundef nonnull align 8 dereferenceable(8) %47, %"struct.std::__detail::_Node_iterator_base"* noundef nonnull align 8 dereferenceable(8) %52) #10, !dbg !6211
  br i1 %53, label %54, label %58, !dbg !6212

54:                                               ; preds = %3
  %55 = load i32, i32* %5, align 4, !dbg !6213
  %56 = call noundef %"struct.std::pair"* @_ZNKSt8__detail14_Node_iteratorISt4pairIKNSt7__cxx1112basic_stringIcSt11char_traitsIcESaIcEEEiELb0ELb1EEptEv(%"struct.std::__detail::_Node_iterator"* noundef nonnull align 8 dereferenceable(8) %9) #10, !dbg !6215
  %57 = getelementptr inbounds %"struct.std::pair", %"struct.std::pair"* %56, i32 0, i32 1, !dbg !6216
  store i32 %55, i32* %57, align 8, !dbg !6217
  br label %76, !dbg !6218

58:                                               ; preds = %3
  call void @llvm.dbg.declare(metadata %"class.std::__cxx11::basic_string"* %11, metadata !6219, metadata !DIExpression()), !dbg !6221
  call void @_ZStplIcSt11char_traitsIcESaIcEENSt7__cxx1112basic_stringIT_T0_T1_EEPKS5_RKS8_(%"class.std::__cxx11::basic_string"* sret(%"class.std::__cxx11::basic_string") align 8 %13, i8* noundef getelementptr inbounds ([31 x i8], [31 x i8]* @.str.4, i64 0, i64 0), %"class.std::__cxx11::basic_string"* noundef nonnull align 8 dereferenceable(32) %1), !dbg !6222
  invoke void @_ZStplIcSt11char_traitsIcESaIcEENSt7__cxx1112basic_stringIT_T0_T1_EEOS8_PKS5_(%"class.std::__cxx11::basic_string"* sret(%"class.std::__cxx11::basic_string") align 8 %12, %"class.std::__cxx11::basic_string"* noundef nonnull align 8 dereferenceable(32) %13, i8* noundef getelementptr inbounds ([11 x i8], [11 x i8]* @.str.5, i64 0, i64 0))
          to label %59 unwind label %63, !dbg !6223

59:                                               ; preds = %58
  invoke void @_ZStplIcSt11char_traitsIcESaIcEENSt7__cxx1112basic_stringIT_T0_T1_EEOS8_S5_(%"class.std::__cxx11::basic_string"* sret(%"class.std::__cxx11::basic_string") align 8 %11, %"class.std::__cxx11::basic_string"* noundef nonnull align 8 dereferenceable(32) %12, i8 noundef signext 10)
          to label %60 unwind label %67, !dbg !6224

60:                                               ; preds = %59
  call void @_ZNSt7__cxx1112basic_stringIcSt11char_traitsIcESaIcEED1Ev(%"class.std::__cxx11::basic_string"* noundef nonnull align 8 dereferenceable(32) %12) #10, !dbg !6225
  call void @_ZNSt7__cxx1112basic_stringIcSt11char_traitsIcESaIcEED1Ev(%"class.std::__cxx11::basic_string"* noundef nonnull align 8 dereferenceable(32) %13) #10, !dbg !6225
  %61 = bitcast %class.system_memory_map* %17 to %class.Log*, !dbg !6226
  invoke void @_ZNSt7__cxx1112basic_stringIcSt11char_traitsIcESaIcEEC1ERKS4_(%"class.std::__cxx11::basic_string"* noundef nonnull align 8 dereferenceable(32) %16, %"class.std::__cxx11::basic_string"* noundef nonnull align 8 dereferenceable(32) %11)
          to label %62 unwind label %72, !dbg !6227

62:                                               ; preds = %60
  call void @_ZN3Log10to_consoleENSt7__cxx1112basic_stringIcSt11char_traitsIcESaIcEEEi(%class.Log* noundef nonnull align 4 dereferenceable(20) %61, %"class.std::__cxx11::basic_string"* noundef %16, i32 noundef 1), !dbg !6226
  call void @_ZNSt7__cxx1112basic_stringIcSt11char_traitsIcESaIcEED1Ev(%"class.std::__cxx11::basic_string"* noundef nonnull align 8 dereferenceable(32) %16) #10, !dbg !6226
  call void @_ZNSt7__cxx1112basic_stringIcSt11char_traitsIcESaIcEED1Ev(%"class.std::__cxx11::basic_string"* noundef nonnull align 8 dereferenceable(32) %11) #10, !dbg !6228
  br label %76

63:                                               ; preds = %58
  %64 = landingpad { i8*, i32 }
          cleanup, !dbg !6229
  %65 = extractvalue { i8*, i32 } %64, 0, !dbg !6229
  store i8* %65, i8** %14, align 8, !dbg !6229
  %66 = extractvalue { i8*, i32 } %64, 1, !dbg !6229
  store i32 %66, i32* %15, align 4, !dbg !6229
  br label %71, !dbg !6229

67:                                               ; preds = %59
  %68 = landingpad { i8*, i32 }
          cleanup, !dbg !6229
  %69 = extractvalue { i8*, i32 } %68, 0, !dbg !6229
  store i8* %69, i8** %14, align 8, !dbg !6229
  %70 = extractvalue { i8*, i32 } %68, 1, !dbg !6229
  store i32 %70, i32* %15, align 4, !dbg !6229
  call void @_ZNSt7__cxx1112basic_stringIcSt11char_traitsIcESaIcEED1Ev(%"class.std::__cxx11::basic_string"* noundef nonnull align 8 dereferenceable(32) %12) #10, !dbg !6225
  br label %71, !dbg !6225

71:                                               ; preds = %67, %63
  call void @_ZNSt7__cxx1112basic_stringIcSt11char_traitsIcESaIcEED1Ev(%"class.std::__cxx11::basic_string"* noundef nonnull align 8 dereferenceable(32) %13) #10, !dbg !6225
  br label %77, !dbg !6225

72:                                               ; preds = %60
  %73 = landingpad { i8*, i32 }
          cleanup, !dbg !6229
  %74 = extractvalue { i8*, i32 } %73, 0, !dbg !6229
  store i8* %74, i8** %14, align 8, !dbg !6229
  %75 = extractvalue { i8*, i32 } %73, 1, !dbg !6229
  store i32 %75, i32* %15, align 4, !dbg !6229
  call void @_ZNSt7__cxx1112basic_stringIcSt11char_traitsIcESaIcEED1Ev(%"class.std::__cxx11::basic_string"* noundef nonnull align 8 dereferenceable(32) %11) #10, !dbg !6228
  br label %77, !dbg !6228

76:                                               ; preds = %62, %54
  ret void, !dbg !6230

77:                                               ; preds = %72, %71
  %78 = load i8*, i8** %14, align 8, !dbg !6225
  %79 = load i32, i32* %15, align 4, !dbg !6225
  %80 = insertvalue { i8*, i32 } undef, i8* %78, 0, !dbg !6225
  %81 = insertvalue { i8*, i32 } %80, i32 %79, 1, !dbg !6225
  resume { i8*, i32 } %81, !dbg !6225
}

; Function Attrs: mustprogress noinline nounwind uwtable
define linkonce_odr dso_local noundef i64 @_ZNKSt13unordered_mapINSt7__cxx1112basic_stringIcSt11char_traitsIcESaIcEEEiSt4hashIS5_ESt8equal_toIS5_ESaISt4pairIKS5_iEEE4sizeEv(%"class.std::unordered_map"* noundef nonnull align 8 dereferenceable(56) %0) #0 comdat align 2 !dbg !6231 {
  %2 = alloca %"class.std::unordered_map"*, align 8
  store %"class.std::unordered_map"* %0, %"class.std::unordered_map"** %2, align 8
  call void @llvm.dbg.declare(metadata %"class.std::unordered_map"** %2, metadata !6232, metadata !DIExpression()), !dbg !6234
  %3 = load %"class.std::unordered_map"*, %"class.std::unordered_map"** %2, align 8
  %4 = getelementptr inbounds %"class.std::unordered_map", %"class.std::unordered_map"* %3, i32 0, i32 0, !dbg !6235
  %5 = call noundef i64 @_ZNKSt10_HashtableINSt7__cxx1112basic_stringIcSt11char_traitsIcESaIcEEESt4pairIKS5_iESaIS8_ENSt8__detail10_Select1stESt8equal_toIS5_ESt4hashIS5_ENSA_18_Mod_range_hashingENSA_20_Default_ranged_hashENSA_20_Prime_rehash_policyENSA_17_Hashtable_traitsILb1ELb0ELb1EEEE4sizeEv(%"class.std::_Hashtable"* noundef nonnull align 8 dereferenceable(56) %4) #10, !dbg !6236
  ret i64 %5, !dbg !6237
}

; Function Attrs: mustprogress noinline uwtable
define linkonce_odr dso_local noundef i64 @_ZSt8distanceINSt8__detail14_Node_iteratorISt4pairIKNSt7__cxx1112basic_stringIcSt11char_traitsIcESaIcEEEiELb0ELb1EEEENSt15iterator_traitsIT_E15difference_typeESD_SD_(%"struct.std::__detail::_Hash_node"* %0, %"struct.std::__detail::_Hash_node"* %1) #2 comdat !dbg !6238 {
  %3 = alloca %"struct.std::__detail::_Node_iterator", align 8
  %4 = alloca %"struct.std::__detail::_Node_iterator", align 8
  %5 = alloca %"struct.std::__detail::_Node_iterator", align 8
  %6 = alloca %"struct.std::__detail::_Node_iterator", align 8
  %7 = alloca %"struct.std::input_iterator_tag", align 1
  %8 = alloca %"struct.std::forward_iterator_tag", align 1
  %9 = alloca %"struct.std::forward_iterator_tag", align 1
  %10 = getelementptr inbounds %"struct.std::__detail::_Node_iterator", %"struct.std::__detail::_Node_iterator"* %3, i32 0, i32 0
  %11 = getelementptr inbounds %"struct.std::__detail::_Node_iterator_base", %"struct.std::__detail::_Node_iterator_base"* %10, i32 0, i32 0
  store %"struct.std::__detail::_Hash_node"* %0, %"struct.std::__detail::_Hash_node"** %11, align 8
  %12 = getelementptr inbounds %"struct.std::__detail::_Node_iterator", %"struct.std::__detail::_Node_iterator"* %4, i32 0, i32 0
  %13 = getelementptr inbounds %"struct.std::__detail::_Node_iterator_base", %"struct.std::__detail::_Node_iterator_base"* %12, i32 0, i32 0
  store %"struct.std::__detail::_Hash_node"* %1, %"struct.std::__detail::_Hash_node"** %13, align 8
  call void @llvm.dbg.declare(metadata %"struct.std::__detail::_Node_iterator"* %3, metadata !6251, metadata !DIExpression()), !dbg !6252
  call void @llvm.dbg.declare(metadata %"struct.std::__detail::_Node_iterator"* %4, metadata !6253, metadata !DIExpression()), !dbg !6254
  %14 = bitcast %"struct.std::__detail::_Node_iterator"* %5 to i8*, !dbg !6255
  %15 = bitcast %"struct.std::__detail::_Node_iterator"* %3 to i8*, !dbg !6255
  %16 = call i8* @memcpy(i8* %14, i8* %15, i64 8), !dbg !6255
  %17 = bitcast %"struct.std::__detail::_Node_iterator"* %6 to i8*, !dbg !6256
  %18 = bitcast %"struct.std::__detail::_Node_iterator"* %4 to i8*, !dbg !6256
  %19 = call i8* @memcpy(i8* %17, i8* %18, i64 8), !dbg !6256
  call void @_ZSt19__iterator_categoryINSt8__detail14_Node_iteratorISt4pairIKNSt7__cxx1112basic_stringIcSt11char_traitsIcESaIcEEEiELb0ELb1EEEENSt15iterator_traitsIT_E17iterator_categoryERKSD_(%"struct.std::__detail::_Node_iterator"* noundef nonnull align 8 dereferenceable(8) %3), !dbg !6257
  %20 = bitcast %"struct.std::forward_iterator_tag"* %8 to %"struct.std::input_iterator_tag"*, !dbg !6257
  %21 = getelementptr inbounds %"struct.std::__detail::_Node_iterator", %"struct.std::__detail::_Node_iterator"* %5, i32 0, i32 0, !dbg !6258
  %22 = getelementptr inbounds %"struct.std::__detail::_Node_iterator_base", %"struct.std::__detail::_Node_iterator_base"* %21, i32 0, i32 0, !dbg !6258
  %23 = load %"struct.std::__detail::_Hash_node"*, %"struct.std::__detail::_Hash_node"** %22, align 8, !dbg !6258
  %24 = getelementptr inbounds %"struct.std::__detail::_Node_iterator", %"struct.std::__detail::_Node_iterator"* %6, i32 0, i32 0, !dbg !6258
  %25 = getelementptr inbounds %"struct.std::__detail::_Node_iterator_base", %"struct.std::__detail::_Node_iterator_base"* %24, i32 0, i32 0, !dbg !6258
  %26 = load %"struct.std::__detail::_Hash_node"*, %"struct.std::__detail::_Hash_node"** %25, align 8, !dbg !6258
  %27 = call noundef i64 @_ZSt10__distanceINSt8__detail14_Node_iteratorISt4pairIKNSt7__cxx1112basic_stringIcSt11char_traitsIcESaIcEEEiELb0ELb1EEEENSt15iterator_traitsIT_E15difference_typeESD_SD_St18input_iterator_tag(%"struct.std::__detail::_Hash_node"* %23, %"struct.std::__detail::_Hash_node"* %26), !dbg !6258
  ret i64 %27, !dbg !6259
}

; Function Attrs: mustprogress noinline nounwind uwtable
define linkonce_odr dso_local %"struct.std::__detail::_Hash_node"* @_ZNSt13unordered_mapINSt7__cxx1112basic_stringIcSt11char_traitsIcESaIcEEEiSt4hashIS5_ESt8equal_toIS5_ESaISt4pairIKS5_iEEE5beginEv(%"class.std::unordered_map"* noundef nonnull align 8 dereferenceable(56) %0) #0 comdat align 2 !dbg !6260 {
  %2 = alloca %"struct.std::__detail::_Node_iterator", align 8
  %3 = alloca %"class.std::unordered_map"*, align 8
  store %"class.std::unordered_map"* %0, %"class.std::unordered_map"** %3, align 8
  call void @llvm.dbg.declare(metadata %"class.std::unordered_map"** %3, metadata !6261, metadata !DIExpression()), !dbg !6262
  %4 = load %"class.std::unordered_map"*, %"class.std::unordered_map"** %3, align 8
  %5 = getelementptr inbounds %"class.std::unordered_map", %"class.std::unordered_map"* %4, i32 0, i32 0, !dbg !6263
  %6 = call %"struct.std::__detail::_Hash_node"* @_ZNSt10_HashtableINSt7__cxx1112basic_stringIcSt11char_traitsIcESaIcEEESt4pairIKS5_iESaIS8_ENSt8__detail10_Select1stESt8equal_toIS5_ESt4hashIS5_ENSA_18_Mod_range_hashingENSA_20_Default_ranged_hashENSA_20_Prime_rehash_policyENSA_17_Hashtable_traitsILb1ELb0ELb1EEEE5beginEv(%"class.std::_Hashtable"* noundef nonnull align 8 dereferenceable(56) %5) #10, !dbg !6264
  %7 = getelementptr inbounds %"struct.std::__detail::_Node_iterator", %"struct.std::__detail::_Node_iterator"* %2, i32 0, i32 0, !dbg !6264
  %8 = getelementptr inbounds %"struct.std::__detail::_Node_iterator_base", %"struct.std::__detail::_Node_iterator_base"* %7, i32 0, i32 0, !dbg !6264
  store %"struct.std::__detail::_Hash_node"* %6, %"struct.std::__detail::_Hash_node"** %8, align 8, !dbg !6264
  %9 = getelementptr inbounds %"struct.std::__detail::_Node_iterator", %"struct.std::__detail::_Node_iterator"* %2, i32 0, i32 0, !dbg !6265
  %10 = getelementptr inbounds %"struct.std::__detail::_Node_iterator_base", %"struct.std::__detail::_Node_iterator_base"* %9, i32 0, i32 0, !dbg !6265
  %11 = load %"struct.std::__detail::_Hash_node"*, %"struct.std::__detail::_Hash_node"** %10, align 8, !dbg !6265
  ret %"struct.std::__detail::_Hash_node"* %11, !dbg !6265
}

; Function Attrs: mustprogress noinline uwtable
define linkonce_odr dso_local %"struct.std::__detail::_Hash_node"* @_ZNSt13unordered_mapINSt7__cxx1112basic_stringIcSt11char_traitsIcESaIcEEEiSt4hashIS5_ESt8equal_toIS5_ESaISt4pairIKS5_iEEE4findERSB_(%"class.std::unordered_map"* noundef nonnull align 8 dereferenceable(56) %0, %"class.std::__cxx11::basic_string"* noundef nonnull align 8 dereferenceable(32) %1) #2 comdat align 2 !dbg !6266 {
  %3 = alloca %"struct.std::__detail::_Node_iterator", align 8
  %4 = alloca %"class.std::unordered_map"*, align 8
  %5 = alloca %"class.std::__cxx11::basic_string"*, align 8
  store %"class.std::unordered_map"* %0, %"class.std::unordered_map"** %4, align 8
  call void @llvm.dbg.declare(metadata %"class.std::unordered_map"** %4, metadata !6267, metadata !DIExpression()), !dbg !6268
  store %"class.std::__cxx11::basic_string"* %1, %"class.std::__cxx11::basic_string"** %5, align 8
  call void @llvm.dbg.declare(metadata %"class.std::__cxx11::basic_string"** %5, metadata !6269, metadata !DIExpression()), !dbg !6270
  %6 = load %"class.std::unordered_map"*, %"class.std::unordered_map"** %4, align 8
  %7 = getelementptr inbounds %"class.std::unordered_map", %"class.std::unordered_map"* %6, i32 0, i32 0, !dbg !6271
  %8 = load %"class.std::__cxx11::basic_string"*, %"class.std::__cxx11::basic_string"** %5, align 8, !dbg !6272
  %9 = call %"struct.std::__detail::_Hash_node"* @_ZNSt10_HashtableINSt7__cxx1112basic_stringIcSt11char_traitsIcESaIcEEESt4pairIKS5_iESaIS8_ENSt8__detail10_Select1stESt8equal_toIS5_ESt4hashIS5_ENSA_18_Mod_range_hashingENSA_20_Default_ranged_hashENSA_20_Prime_rehash_policyENSA_17_Hashtable_traitsILb1ELb0ELb1EEEE4findERS7_(%"class.std::_Hashtable"* noundef nonnull align 8 dereferenceable(56) %7, %"class.std::__cxx11::basic_string"* noundef nonnull align 8 dereferenceable(32) %8), !dbg !6273
  %10 = getelementptr inbounds %"struct.std::__detail::_Node_iterator", %"struct.std::__detail::_Node_iterator"* %3, i32 0, i32 0, !dbg !6273
  %11 = getelementptr inbounds %"struct.std::__detail::_Node_iterator_base", %"struct.std::__detail::_Node_iterator_base"* %10, i32 0, i32 0, !dbg !6273
  store %"struct.std::__detail::_Hash_node"* %9, %"struct.std::__detail::_Hash_node"** %11, align 8, !dbg !6273
  %12 = getelementptr inbounds %"struct.std::__detail::_Node_iterator", %"struct.std::__detail::_Node_iterator"* %3, i32 0, i32 0, !dbg !6274
  %13 = getelementptr inbounds %"struct.std::__detail::_Node_iterator_base", %"struct.std::__detail::_Node_iterator_base"* %12, i32 0, i32 0, !dbg !6274
  %14 = load %"struct.std::__detail::_Hash_node"*, %"struct.std::__detail::_Hash_node"** %13, align 8, !dbg !6274
  ret %"struct.std::__detail::_Hash_node"* %14, !dbg !6274
}

; Function Attrs: mustprogress noinline nounwind uwtable
define linkonce_odr dso_local noundef zeroext i1 @_ZNSt8__detailneERKNS_19_Node_iterator_baseISt4pairIKNSt7__cxx1112basic_stringIcSt11char_traitsIcESaIcEEEiELb1EEESC_(%"struct.std::__detail::_Node_iterator_base"* noundef nonnull align 8 dereferenceable(8) %0, %"struct.std::__detail::_Node_iterator_base"* noundef nonnull align 8 dereferenceable(8) %1) #0 comdat !dbg !6275 {
  %3 = alloca %"struct.std::__detail::_Node_iterator_base"*, align 8
  %4 = alloca %"struct.std::__detail::_Node_iterator_base"*, align 8
  store %"struct.std::__detail::_Node_iterator_base"* %0, %"struct.std::__detail::_Node_iterator_base"** %3, align 8
  call void @llvm.dbg.declare(metadata %"struct.std::__detail::_Node_iterator_base"** %3, metadata !6280, metadata !DIExpression()), !dbg !6281
  store %"struct.std::__detail::_Node_iterator_base"* %1, %"struct.std::__detail::_Node_iterator_base"** %4, align 8
  call void @llvm.dbg.declare(metadata %"struct.std::__detail::_Node_iterator_base"** %4, metadata !6282, metadata !DIExpression()), !dbg !6283
  %5 = load %"struct.std::__detail::_Node_iterator_base"*, %"struct.std::__detail::_Node_iterator_base"** %3, align 8, !dbg !6284
  %6 = getelementptr inbounds %"struct.std::__detail::_Node_iterator_base", %"struct.std::__detail::_Node_iterator_base"* %5, i32 0, i32 0, !dbg !6285
  %7 = load %"struct.std::__detail::_Hash_node"*, %"struct.std::__detail::_Hash_node"** %6, align 8, !dbg !6285
  %8 = load %"struct.std::__detail::_Node_iterator_base"*, %"struct.std::__detail::_Node_iterator_base"** %4, align 8, !dbg !6286
  %9 = getelementptr inbounds %"struct.std::__detail::_Node_iterator_base", %"struct.std::__detail::_Node_iterator_base"* %8, i32 0, i32 0, !dbg !6287
  %10 = load %"struct.std::__detail::_Hash_node"*, %"struct.std::__detail::_Hash_node"** %9, align 8, !dbg !6287
  %11 = icmp ne %"struct.std::__detail::_Hash_node"* %7, %10, !dbg !6288
  ret i1 %11, !dbg !6289
}

; Function Attrs: mustprogress noinline nounwind uwtable
define linkonce_odr dso_local %"struct.std::__detail::_Hash_node"* @_ZNSt13unordered_mapINSt7__cxx1112basic_stringIcSt11char_traitsIcESaIcEEEiSt4hashIS5_ESt8equal_toIS5_ESaISt4pairIKS5_iEEE3endEv(%"class.std::unordered_map"* noundef nonnull align 8 dereferenceable(56) %0) #0 comdat align 2 !dbg !6290 {
  %2 = alloca %"struct.std::__detail::_Node_iterator", align 8
  %3 = alloca %"class.std::unordered_map"*, align 8
  store %"class.std::unordered_map"* %0, %"class.std::unordered_map"** %3, align 8
  call void @llvm.dbg.declare(metadata %"class.std::unordered_map"** %3, metadata !6291, metadata !DIExpression()), !dbg !6292
  %4 = load %"class.std::unordered_map"*, %"class.std::unordered_map"** %3, align 8
  %5 = getelementptr inbounds %"class.std::unordered_map", %"class.std::unordered_map"* %4, i32 0, i32 0, !dbg !6293
  %6 = call %"struct.std::__detail::_Hash_node"* @_ZNSt10_HashtableINSt7__cxx1112basic_stringIcSt11char_traitsIcESaIcEEESt4pairIKS5_iESaIS8_ENSt8__detail10_Select1stESt8equal_toIS5_ESt4hashIS5_ENSA_18_Mod_range_hashingENSA_20_Default_ranged_hashENSA_20_Prime_rehash_policyENSA_17_Hashtable_traitsILb1ELb0ELb1EEEE3endEv(%"class.std::_Hashtable"* noundef nonnull align 8 dereferenceable(56) %5) #10, !dbg !6294
  %7 = getelementptr inbounds %"struct.std::__detail::_Node_iterator", %"struct.std::__detail::_Node_iterator"* %2, i32 0, i32 0, !dbg !6294
  %8 = getelementptr inbounds %"struct.std::__detail::_Node_iterator_base", %"struct.std::__detail::_Node_iterator_base"* %7, i32 0, i32 0, !dbg !6294
  store %"struct.std::__detail::_Hash_node"* %6, %"struct.std::__detail::_Hash_node"** %8, align 8, !dbg !6294
  %9 = getelementptr inbounds %"struct.std::__detail::_Node_iterator", %"struct.std::__detail::_Node_iterator"* %2, i32 0, i32 0, !dbg !6295
  %10 = getelementptr inbounds %"struct.std::__detail::_Node_iterator_base", %"struct.std::__detail::_Node_iterator_base"* %9, i32 0, i32 0, !dbg !6295
  %11 = load %"struct.std::__detail::_Hash_node"*, %"struct.std::__detail::_Hash_node"** %10, align 8, !dbg !6295
  ret %"struct.std::__detail::_Hash_node"* %11, !dbg !6295
}

; Function Attrs: mustprogress noinline nounwind uwtable
define linkonce_odr dso_local noundef %"struct.std::pair"* @_ZNKSt8__detail14_Node_iteratorISt4pairIKNSt7__cxx1112basic_stringIcSt11char_traitsIcESaIcEEEiELb0ELb1EEptEv(%"struct.std::__detail::_Node_iterator"* noundef nonnull align 8 dereferenceable(8) %0) #0 comdat align 2 !dbg !6296 {
  %2 = alloca %"struct.std::__detail::_Node_iterator"*, align 8
  store %"struct.std::__detail::_Node_iterator"* %0, %"struct.std::__detail::_Node_iterator"** %2, align 8
  call void @llvm.dbg.declare(metadata %"struct.std::__detail::_Node_iterator"** %2, metadata !6297, metadata !DIExpression()), !dbg !6299
  %3 = load %"struct.std::__detail::_Node_iterator"*, %"struct.std::__detail::_Node_iterator"** %2, align 8
  %4 = bitcast %"struct.std::__detail::_Node_iterator"* %3 to %"struct.std::__detail::_Node_iterator_base"*, !dbg !6300
  %5 = getelementptr inbounds %"struct.std::__detail::_Node_iterator_base", %"struct.std::__detail::_Node_iterator_base"* %4, i32 0, i32 0, !dbg !6300
  %6 = load %"struct.std::__detail::_Hash_node"*, %"struct.std::__detail::_Hash_node"** %5, align 8, !dbg !6300
  %7 = bitcast %"struct.std::__detail::_Hash_node"* %6 to i8*, !dbg !6301
  %8 = getelementptr inbounds i8, i8* %7, i64 8, !dbg !6301
  %9 = bitcast i8* %8 to %"struct.std::__detail::_Hash_node_value_base"*, !dbg !6301
  %10 = call noundef %"struct.std::pair"* @_ZNSt8__detail21_Hash_node_value_baseISt4pairIKNSt7__cxx1112basic_stringIcSt11char_traitsIcESaIcEEEiEE9_M_valptrEv(%"struct.std::__detail::_Hash_node_value_base"* noundef nonnull align 8 dereferenceable(40) %9) #10, !dbg !6301
  ret %"struct.std::pair"* %10, !dbg !6302
}

; Function Attrs: mustprogress noinline uwtable
define dso_local noundef i32 @_ZN17system_memory_map15read_system_mapENSt7__cxx1112basic_stringIcSt11char_traitsIcESaIcEEE(%class.system_memory_map* noundef nonnull align 8 dereferenceable(40) %0, %"class.std::__cxx11::basic_string"* noundef %1) #2 align 2 personality i8* bitcast (i32 (...)* @__gxx_personality_v0 to i8*) !dbg !6303 {
  %3 = alloca i32, align 4
  %4 = alloca %class.system_memory_map*, align 8
  %5 = alloca i32, align 4
  %6 = alloca %"struct.std::__detail::_Node_iterator", align 8
  %7 = alloca %"struct.std::__detail::_Node_iterator", align 8
  %8 = alloca %"class.std::__cxx11::basic_string", align 8
  %9 = alloca %"class.std::__cxx11::basic_string", align 8
  %10 = alloca %"class.std::__cxx11::basic_string", align 8
  %11 = alloca i8*, align 8
  %12 = alloca i32, align 4
  %13 = alloca %"class.std::__cxx11::basic_string", align 8
  %14 = alloca %"struct.std::__detail::_Node_iterator", align 8
  %15 = alloca %"struct.std::__detail::_Node_iterator", align 8
  %16 = alloca %"class.std::__cxx11::basic_string", align 8
  %17 = alloca %"class.std::__cxx11::basic_string", align 8
  %18 = alloca %"class.std::__cxx11::basic_string", align 8
  store %class.system_memory_map* %0, %class.system_memory_map** %4, align 8
  call void @llvm.dbg.declare(metadata %class.system_memory_map** %4, metadata !6304, metadata !DIExpression()), !dbg !6305
  call void @llvm.dbg.declare(metadata %"class.std::__cxx11::basic_string"* %1, metadata !6306, metadata !DIExpression()), !dbg !6307
  %19 = load %class.system_memory_map*, %class.system_memory_map** %4, align 8
  call void @llvm.dbg.declare(metadata i32* %5, metadata !6308, metadata !DIExpression()), !dbg !6309
  call void @llvm.dbg.declare(metadata %"struct.std::__detail::_Node_iterator"* %6, metadata !6310, metadata !DIExpression()), !dbg !6311
  %20 = load %"class.std::unordered_map"*, %"class.std::unordered_map"** @_ZN17system_memory_map17global_memory_mapB5cxx11E, align 8, !dbg !6312
  %21 = call %"struct.std::__detail::_Hash_node"* @_ZNSt13unordered_mapINSt7__cxx1112basic_stringIcSt11char_traitsIcESaIcEEEiSt4hashIS5_ESt8equal_toIS5_ESaISt4pairIKS5_iEEE4findERSB_(%"class.std::unordered_map"* noundef nonnull align 8 dereferenceable(56) %20, %"class.std::__cxx11::basic_string"* noundef nonnull align 8 dereferenceable(32) %1), !dbg !6313
  %22 = getelementptr inbounds %"struct.std::__detail::_Node_iterator", %"struct.std::__detail::_Node_iterator"* %6, i32 0, i32 0, !dbg !6313
  %23 = getelementptr inbounds %"struct.std::__detail::_Node_iterator_base", %"struct.std::__detail::_Node_iterator_base"* %22, i32 0, i32 0, !dbg !6313
  store %"struct.std::__detail::_Hash_node"* %21, %"struct.std::__detail::_Hash_node"** %23, align 8, !dbg !6313
  %24 = bitcast %"struct.std::__detail::_Node_iterator"* %6 to %"struct.std::__detail::_Node_iterator_base"*, !dbg !6314
  %25 = load %"class.std::unordered_map"*, %"class.std::unordered_map"** @_ZN17system_memory_map17global_memory_mapB5cxx11E, align 8, !dbg !6316
  %26 = call %"struct.std::__detail::_Hash_node"* @_ZNSt13unordered_mapINSt7__cxx1112basic_stringIcSt11char_traitsIcESaIcEEEiSt4hashIS5_ESt8equal_toIS5_ESaISt4pairIKS5_iEEE3endEv(%"class.std::unordered_map"* noundef nonnull align 8 dereferenceable(56) %25) #10, !dbg !6317
  %27 = getelementptr inbounds %"struct.std::__detail::_Node_iterator", %"struct.std::__detail::_Node_iterator"* %7, i32 0, i32 0, !dbg !6317
  %28 = getelementptr inbounds %"struct.std::__detail::_Node_iterator_base", %"struct.std::__detail::_Node_iterator_base"* %27, i32 0, i32 0, !dbg !6317
  store %"struct.std::__detail::_Hash_node"* %26, %"struct.std::__detail::_Hash_node"** %28, align 8, !dbg !6317
  %29 = bitcast %"struct.std::__detail::_Node_iterator"* %7 to %"struct.std::__detail::_Node_iterator_base"*, !dbg !6316
  %30 = call noundef zeroext i1 @_ZNSt8__detaileqERKNS_19_Node_iterator_baseISt4pairIKNSt7__cxx1112basic_stringIcSt11char_traitsIcESaIcEEEiELb1EEESC_(%"struct.std::__detail::_Node_iterator_base"* noundef nonnull align 8 dereferenceable(8) %24, %"struct.std::__detail::_Node_iterator_base"* noundef nonnull align 8 dereferenceable(8) %29) #10, !dbg !6318
  br i1 %30, label %31, label %49, !dbg !6319

31:                                               ; preds = %2
  call void @llvm.dbg.declare(metadata %"class.std::__cxx11::basic_string"* %8, metadata !6320, metadata !DIExpression()), !dbg !6322
  call void @_ZStplIcSt11char_traitsIcESaIcEENSt7__cxx1112basic_stringIT_T0_T1_EEPKS5_RKS8_(%"class.std::__cxx11::basic_string"* sret(%"class.std::__cxx11::basic_string") align 8 %10, i8* noundef getelementptr inbounds ([31 x i8], [31 x i8]* @.str.4, i64 0, i64 0), %"class.std::__cxx11::basic_string"* noundef nonnull align 8 dereferenceable(32) %1), !dbg !6323
  invoke void @_ZStplIcSt11char_traitsIcESaIcEENSt7__cxx1112basic_stringIT_T0_T1_EEOS8_PKS5_(%"class.std::__cxx11::basic_string"* sret(%"class.std::__cxx11::basic_string") align 8 %9, %"class.std::__cxx11::basic_string"* noundef nonnull align 8 dereferenceable(32) %10, i8* noundef getelementptr inbounds ([11 x i8], [11 x i8]* @.str.5, i64 0, i64 0))
          to label %32 unwind label %36, !dbg !6324

32:                                               ; preds = %31
  invoke void @_ZStplIcSt11char_traitsIcESaIcEENSt7__cxx1112basic_stringIT_T0_T1_EEOS8_S5_(%"class.std::__cxx11::basic_string"* sret(%"class.std::__cxx11::basic_string") align 8 %8, %"class.std::__cxx11::basic_string"* noundef nonnull align 8 dereferenceable(32) %9, i8 noundef signext 10)
          to label %33 unwind label %40, !dbg !6325

33:                                               ; preds = %32
  call void @_ZNSt7__cxx1112basic_stringIcSt11char_traitsIcESaIcEED1Ev(%"class.std::__cxx11::basic_string"* noundef nonnull align 8 dereferenceable(32) %9) #10, !dbg !6326
  call void @_ZNSt7__cxx1112basic_stringIcSt11char_traitsIcESaIcEED1Ev(%"class.std::__cxx11::basic_string"* noundef nonnull align 8 dereferenceable(32) %10) #10, !dbg !6326
  %34 = bitcast %class.system_memory_map* %19 to %class.Log*, !dbg !6327
  invoke void @_ZNSt7__cxx1112basic_stringIcSt11char_traitsIcESaIcEEC1ERKS4_(%"class.std::__cxx11::basic_string"* noundef nonnull align 8 dereferenceable(32) %13, %"class.std::__cxx11::basic_string"* noundef nonnull align 8 dereferenceable(32) %8)
          to label %35 unwind label %45, !dbg !6328

35:                                               ; preds = %33
  call void @_ZN3Log10to_consoleENSt7__cxx1112basic_stringIcSt11char_traitsIcESaIcEEEi(%class.Log* noundef nonnull align 4 dereferenceable(20) %34, %"class.std::__cxx11::basic_string"* noundef %13, i32 noundef 1), !dbg !6327
  call void @_ZNSt7__cxx1112basic_stringIcSt11char_traitsIcESaIcEED1Ev(%"class.std::__cxx11::basic_string"* noundef nonnull align 8 dereferenceable(32) %13) #10, !dbg !6327
  store i32 -1, i32* %3, align 4, !dbg !6329
  call void @_ZNSt7__cxx1112basic_stringIcSt11char_traitsIcESaIcEED1Ev(%"class.std::__cxx11::basic_string"* noundef nonnull align 8 dereferenceable(32) %8) #10, !dbg !6330
  br label %93

36:                                               ; preds = %31
  %37 = landingpad { i8*, i32 }
          cleanup, !dbg !6331
  %38 = extractvalue { i8*, i32 } %37, 0, !dbg !6331
  store i8* %38, i8** %11, align 8, !dbg !6331
  %39 = extractvalue { i8*, i32 } %37, 1, !dbg !6331
  store i32 %39, i32* %12, align 4, !dbg !6331
  br label %44, !dbg !6331

40:                                               ; preds = %32
  %41 = landingpad { i8*, i32 }
          cleanup, !dbg !6331
  %42 = extractvalue { i8*, i32 } %41, 0, !dbg !6331
  store i8* %42, i8** %11, align 8, !dbg !6331
  %43 = extractvalue { i8*, i32 } %41, 1, !dbg !6331
  store i32 %43, i32* %12, align 4, !dbg !6331
  call void @_ZNSt7__cxx1112basic_stringIcSt11char_traitsIcESaIcEED1Ev(%"class.std::__cxx11::basic_string"* noundef nonnull align 8 dereferenceable(32) %9) #10, !dbg !6326
  br label %44, !dbg !6326

44:                                               ; preds = %40, %36
  call void @_ZNSt7__cxx1112basic_stringIcSt11char_traitsIcESaIcEED1Ev(%"class.std::__cxx11::basic_string"* noundef nonnull align 8 dereferenceable(32) %10) #10, !dbg !6326
  br label %95, !dbg !6326

45:                                               ; preds = %33
  %46 = landingpad { i8*, i32 }
          cleanup, !dbg !6331
  %47 = extractvalue { i8*, i32 } %46, 0, !dbg !6331
  store i8* %47, i8** %11, align 8, !dbg !6331
  %48 = extractvalue { i8*, i32 } %46, 1, !dbg !6331
  store i32 %48, i32* %12, align 4, !dbg !6331
  call void @_ZNSt7__cxx1112basic_stringIcSt11char_traitsIcESaIcEED1Ev(%"class.std::__cxx11::basic_string"* noundef nonnull align 8 dereferenceable(32) %8) #10, !dbg !6330
  br label %95, !dbg !6330

49:                                               ; preds = %2
  %50 = load %"class.std::unordered_map"*, %"class.std::unordered_map"** @_ZN17system_memory_map17global_memory_mapB5cxx11E, align 8, !dbg !6332
  %51 = call noundef i64 @_ZNKSt13unordered_mapINSt7__cxx1112basic_stringIcSt11char_traitsIcESaIcEEEiSt4hashIS5_ESt8equal_toIS5_ESaISt4pairIKS5_iEEE4sizeEv(%"class.std::unordered_map"* noundef nonnull align 8 dereferenceable(56) %50) #10, !dbg !6333
  %52 = load %"class.std::unordered_map"*, %"class.std::unordered_map"** @_ZN17system_memory_map17global_memory_mapB5cxx11E, align 8, !dbg !6334
  %53 = call %"struct.std::__detail::_Hash_node"* @_ZNSt13unordered_mapINSt7__cxx1112basic_stringIcSt11char_traitsIcESaIcEEEiSt4hashIS5_ESt8equal_toIS5_ESaISt4pairIKS5_iEEE5beginEv(%"class.std::unordered_map"* noundef nonnull align 8 dereferenceable(56) %52) #10, !dbg !6335
  %54 = getelementptr inbounds %"struct.std::__detail::_Node_iterator", %"struct.std::__detail::_Node_iterator"* %14, i32 0, i32 0, !dbg !6335
  %55 = getelementptr inbounds %"struct.std::__detail::_Node_iterator_base", %"struct.std::__detail::_Node_iterator_base"* %54, i32 0, i32 0, !dbg !6335
  store %"struct.std::__detail::_Hash_node"* %53, %"struct.std::__detail::_Hash_node"** %55, align 8, !dbg !6335
  %56 = load %"class.std::unordered_map"*, %"class.std::unordered_map"** @_ZN17system_memory_map17global_memory_mapB5cxx11E, align 8, !dbg !6336
  %57 = call %"struct.std::__detail::_Hash_node"* @_ZNSt13unordered_mapINSt7__cxx1112basic_stringIcSt11char_traitsIcESaIcEEEiSt4hashIS5_ESt8equal_toIS5_ESaISt4pairIKS5_iEEE4findERSB_(%"class.std::unordered_map"* noundef nonnull align 8 dereferenceable(56) %56, %"class.std::__cxx11::basic_string"* noundef nonnull align 8 dereferenceable(32) %1), !dbg !6337
  %58 = getelementptr inbounds %"struct.std::__detail::_Node_iterator", %"struct.std::__detail::_Node_iterator"* %15, i32 0, i32 0, !dbg !6337
  %59 = getelementptr inbounds %"struct.std::__detail::_Node_iterator_base", %"struct.std::__detail::_Node_iterator_base"* %58, i32 0, i32 0, !dbg !6337
  store %"struct.std::__detail::_Hash_node"* %57, %"struct.std::__detail::_Hash_node"** %59, align 8, !dbg !6337
  %60 = getelementptr inbounds %"struct.std::__detail::_Node_iterator", %"struct.std::__detail::_Node_iterator"* %14, i32 0, i32 0, !dbg !6338
  %61 = getelementptr inbounds %"struct.std::__detail::_Node_iterator_base", %"struct.std::__detail::_Node_iterator_base"* %60, i32 0, i32 0, !dbg !6338
  %62 = load %"struct.std::__detail::_Hash_node"*, %"struct.std::__detail::_Hash_node"** %61, align 8, !dbg !6338
  %63 = getelementptr inbounds %"struct.std::__detail::_Node_iterator", %"struct.std::__detail::_Node_iterator"* %15, i32 0, i32 0, !dbg !6338
  %64 = getelementptr inbounds %"struct.std::__detail::_Node_iterator_base", %"struct.std::__detail::_Node_iterator_base"* %63, i32 0, i32 0, !dbg !6338
  %65 = load %"struct.std::__detail::_Hash_node"*, %"struct.std::__detail::_Hash_node"** %64, align 8, !dbg !6338
  %66 = call noundef i64 @_ZSt8distanceINSt8__detail14_Node_iteratorISt4pairIKNSt7__cxx1112basic_stringIcSt11char_traitsIcESaIcEEEiELb0ELb1EEEENSt15iterator_traitsIT_E15difference_typeESD_SD_(%"struct.std::__detail::_Hash_node"* %62, %"struct.std::__detail::_Hash_node"* %65), !dbg !6338
  %67 = sub i64 %51, %66, !dbg !6339
  %68 = sub i64 %67, 1, !dbg !6340
  %69 = trunc i64 %68 to i32, !dbg !6332
  store i32 %69, i32* %5, align 4, !dbg !6341
  %70 = getelementptr inbounds %class.system_memory_map, %class.system_memory_map* %19, i32 0, i32 3, !dbg !6342
  %71 = load i32*, i32** %70, align 8, !dbg !6342
  %72 = load i32, i32* %5, align 4, !dbg !6344
  %73 = sext i32 %72 to i64, !dbg !6342
  %74 = getelementptr inbounds i32, i32* %71, i64 %73, !dbg !6342
  %75 = load i32, i32* %74, align 4, !dbg !6342
  %76 = icmp eq i32 %75, 1, !dbg !6345
  br i1 %76, label %77, label %81, !dbg !6346

77:                                               ; preds = %49
  %78 = call noundef %"struct.std::pair"* @_ZNKSt8__detail14_Node_iteratorISt4pairIKNSt7__cxx1112basic_stringIcSt11char_traitsIcESaIcEEEiELb0ELb1EEptEv(%"struct.std::__detail::_Node_iterator"* noundef nonnull align 8 dereferenceable(8) %6) #10, !dbg !6347
  %79 = getelementptr inbounds %"struct.std::pair", %"struct.std::pair"* %78, i32 0, i32 1, !dbg !6349
  %80 = load i32, i32* %79, align 8, !dbg !6349
  store i32 %80, i32* %3, align 4, !dbg !6350
  br label %93, !dbg !6350

81:                                               ; preds = %49
  call void @llvm.dbg.declare(metadata %"class.std::__cxx11::basic_string"* %16, metadata !6351, metadata !DIExpression()), !dbg !6353
  call void @_ZStplIcSt11char_traitsIcESaIcEENSt7__cxx1112basic_stringIT_T0_T1_EEPKS5_RKS8_(%"class.std::__cxx11::basic_string"* sret(%"class.std::__cxx11::basic_string") align 8 %17, i8* noundef getelementptr inbounds ([31 x i8], [31 x i8]* @.str.4, i64 0, i64 0), %"class.std::__cxx11::basic_string"* noundef nonnull align 8 dereferenceable(32) %1), !dbg !6354
  invoke void @_ZStplIcSt11char_traitsIcESaIcEENSt7__cxx1112basic_stringIT_T0_T1_EEOS8_PKS5_(%"class.std::__cxx11::basic_string"* sret(%"class.std::__cxx11::basic_string") align 8 %16, %"class.std::__cxx11::basic_string"* noundef nonnull align 8 dereferenceable(32) %17, i8* noundef getelementptr inbounds ([23 x i8], [23 x i8]* @.str.6, i64 0, i64 0))
          to label %82 unwind label %85, !dbg !6355

82:                                               ; preds = %81
  call void @_ZNSt7__cxx1112basic_stringIcSt11char_traitsIcESaIcEED1Ev(%"class.std::__cxx11::basic_string"* noundef nonnull align 8 dereferenceable(32) %17) #10, !dbg !6356
  %83 = bitcast %class.system_memory_map* %19 to %class.Log*, !dbg !6357
  invoke void @_ZNSt7__cxx1112basic_stringIcSt11char_traitsIcESaIcEEC1ERKS4_(%"class.std::__cxx11::basic_string"* noundef nonnull align 8 dereferenceable(32) %18, %"class.std::__cxx11::basic_string"* noundef nonnull align 8 dereferenceable(32) %16)
          to label %84 unwind label %89, !dbg !6358

84:                                               ; preds = %82
  call void @_ZN3Log10to_consoleENSt7__cxx1112basic_stringIcSt11char_traitsIcESaIcEEEi(%class.Log* noundef nonnull align 4 dereferenceable(20) %83, %"class.std::__cxx11::basic_string"* noundef %18, i32 noundef 1), !dbg !6357
  call void @_ZNSt7__cxx1112basic_stringIcSt11char_traitsIcESaIcEED1Ev(%"class.std::__cxx11::basic_string"* noundef nonnull align 8 dereferenceable(32) %18) #10, !dbg !6357
  store i32 -1, i32* %3, align 4, !dbg !6359
  call void @_ZNSt7__cxx1112basic_stringIcSt11char_traitsIcESaIcEED1Ev(%"class.std::__cxx11::basic_string"* noundef nonnull align 8 dereferenceable(32) %16) #10, !dbg !6360
  br label %93

85:                                               ; preds = %81
  %86 = landingpad { i8*, i32 }
          cleanup, !dbg !6361
  %87 = extractvalue { i8*, i32 } %86, 0, !dbg !6361
  store i8* %87, i8** %11, align 8, !dbg !6361
  %88 = extractvalue { i8*, i32 } %86, 1, !dbg !6361
  store i32 %88, i32* %12, align 4, !dbg !6361
  call void @_ZNSt7__cxx1112basic_stringIcSt11char_traitsIcESaIcEED1Ev(%"class.std::__cxx11::basic_string"* noundef nonnull align 8 dereferenceable(32) %17) #10, !dbg !6356
  br label %95, !dbg !6356

89:                                               ; preds = %82
  %90 = landingpad { i8*, i32 }
          cleanup, !dbg !6361
  %91 = extractvalue { i8*, i32 } %90, 0, !dbg !6361
  store i8* %91, i8** %11, align 8, !dbg !6361
  %92 = extractvalue { i8*, i32 } %90, 1, !dbg !6361
  store i32 %92, i32* %12, align 4, !dbg !6361
  call void @_ZNSt7__cxx1112basic_stringIcSt11char_traitsIcESaIcEED1Ev(%"class.std::__cxx11::basic_string"* noundef nonnull align 8 dereferenceable(32) %16) #10, !dbg !6360
  br label %95, !dbg !6360

93:                                               ; preds = %84, %77, %35
  %94 = load i32, i32* %3, align 4, !dbg !6362
  ret i32 %94, !dbg !6362

95:                                               ; preds = %89, %85, %45, %44
  %96 = load i8*, i8** %11, align 8, !dbg !6326
  %97 = load i32, i32* %12, align 4, !dbg !6326
  %98 = insertvalue { i8*, i32 } undef, i8* %96, 0, !dbg !6326
  %99 = insertvalue { i8*, i32 } %98, i32 %97, 1, !dbg !6326
  resume { i8*, i32 } %99, !dbg !6326
}

; Function Attrs: mustprogress noinline nounwind uwtable
define linkonce_odr dso_local noundef zeroext i1 @_ZNSt8__detaileqERKNS_19_Node_iterator_baseISt4pairIKNSt7__cxx1112basic_stringIcSt11char_traitsIcESaIcEEEiELb1EEESC_(%"struct.std::__detail::_Node_iterator_base"* noundef nonnull align 8 dereferenceable(8) %0, %"struct.std::__detail::_Node_iterator_base"* noundef nonnull align 8 dereferenceable(8) %1) #0 comdat !dbg !6363 {
  %3 = alloca %"struct.std::__detail::_Node_iterator_base"*, align 8
  %4 = alloca %"struct.std::__detail::_Node_iterator_base"*, align 8
  store %"struct.std::__detail::_Node_iterator_base"* %0, %"struct.std::__detail::_Node_iterator_base"** %3, align 8
  call void @llvm.dbg.declare(metadata %"struct.std::__detail::_Node_iterator_base"** %3, metadata !6364, metadata !DIExpression()), !dbg !6365
  store %"struct.std::__detail::_Node_iterator_base"* %1, %"struct.std::__detail::_Node_iterator_base"** %4, align 8
  call void @llvm.dbg.declare(metadata %"struct.std::__detail::_Node_iterator_base"** %4, metadata !6366, metadata !DIExpression()), !dbg !6367
  %5 = load %"struct.std::__detail::_Node_iterator_base"*, %"struct.std::__detail::_Node_iterator_base"** %3, align 8, !dbg !6368
  %6 = getelementptr inbounds %"struct.std::__detail::_Node_iterator_base", %"struct.std::__detail::_Node_iterator_base"* %5, i32 0, i32 0, !dbg !6369
  %7 = load %"struct.std::__detail::_Hash_node"*, %"struct.std::__detail::_Hash_node"** %6, align 8, !dbg !6369
  %8 = load %"struct.std::__detail::_Node_iterator_base"*, %"struct.std::__detail::_Node_iterator_base"** %4, align 8, !dbg !6370
  %9 = getelementptr inbounds %"struct.std::__detail::_Node_iterator_base", %"struct.std::__detail::_Node_iterator_base"* %8, i32 0, i32 0, !dbg !6371
  %10 = load %"struct.std::__detail::_Hash_node"*, %"struct.std::__detail::_Hash_node"** %9, align 8, !dbg !6371
  %11 = icmp eq %"struct.std::__detail::_Hash_node"* %7, %10, !dbg !6372
  ret i1 %11, !dbg !6373
}

; Function Attrs: mustprogress noinline uwtable
define dso_local void @_ZN17system_memory_map19write_to_system_mapENSt7__cxx1112basic_stringIcSt11char_traitsIcESaIcEEEi(%class.system_memory_map* noundef nonnull align 8 dereferenceable(40) %0, %"class.std::__cxx11::basic_string"* noundef %1, i32 noundef %2) #2 align 2 personality i8* bitcast (i32 (...)* @__gxx_personality_v0 to i8*) !dbg !6374 {
  %4 = alloca %class.system_memory_map*, align 8
  %5 = alloca i32, align 4
  %6 = alloca %"struct.std::pair.12", align 8
  %7 = alloca i8*, align 8
  %8 = alloca i32, align 4
  %9 = alloca %"struct.std::pair.8", align 8
  %10 = alloca %"class.std::__cxx11::basic_string", align 8
  %11 = alloca %"class.std::__cxx11::basic_string", align 8
  %12 = alloca %"class.std::__cxx11::basic_string", align 8
  %13 = alloca %"class.std::__cxx11::basic_string", align 8
  %14 = alloca %"class.std::__cxx11::basic_string", align 8
  %15 = alloca %"class.std::__cxx11::basic_string", align 8
  %16 = alloca %"class.std::__cxx11::basic_string", align 8
  store %class.system_memory_map* %0, %class.system_memory_map** %4, align 8
  call void @llvm.dbg.declare(metadata %class.system_memory_map** %4, metadata !6375, metadata !DIExpression()), !dbg !6376
  call void @llvm.dbg.declare(metadata %"class.std::__cxx11::basic_string"* %1, metadata !6377, metadata !DIExpression()), !dbg !6378
  store i32 %2, i32* %5, align 4
  call void @llvm.dbg.declare(metadata i32* %5, metadata !6379, metadata !DIExpression()), !dbg !6380
  %17 = load %class.system_memory_map*, %class.system_memory_map** %4, align 8
  %18 = load %"class.std::unordered_map"*, %"class.std::unordered_map"** @_ZN17system_memory_map17global_memory_mapB5cxx11E, align 8, !dbg !6381
  call void @_ZSt9make_pairIRNSt7__cxx1112basic_stringIcSt11char_traitsIcESaIcEEERiESt4pairINSt25__strip_reference_wrapperINSt5decayIT_E4typeEE6__typeENS9_INSA_IT0_E4typeEE6__typeEEOSB_OSG_(%"struct.std::pair.12"* sret(%"struct.std::pair.12") align 8 %6, %"class.std::__cxx11::basic_string"* noundef nonnull align 8 dereferenceable(32) %1, i32* noundef nonnull align 4 dereferenceable(4) %5), !dbg !6382
  %19 = invoke { %"struct.std::__detail::_Hash_node"*, i8 } @_ZNSt13unordered_mapINSt7__cxx1112basic_stringIcSt11char_traitsIcESaIcEEEiSt4hashIS5_ESt8equal_toIS5_ESaISt4pairIKS5_iEEE6insertISA_IS5_iEEENSt9enable_ifIXsr16is_constructibleISC_OT_EE5valueESA_INSt8__detail14_Node_iteratorISC_Lb0ELb1EEEbEE4typeESJ_(%"class.std::unordered_map"* noundef nonnull align 8 dereferenceable(56) %18, %"struct.std::pair.12"* noundef nonnull align 8 dereferenceable(36) %6)
          to label %20 unwind label %41, !dbg !6383

20:                                               ; preds = %3
  %21 = bitcast %"struct.std::pair.8"* %9 to { %"struct.std::__detail::_Hash_node"*, i8 }*, !dbg !6383
  %22 = getelementptr inbounds { %"struct.std::__detail::_Hash_node"*, i8 }, { %"struct.std::__detail::_Hash_node"*, i8 }* %21, i32 0, i32 0, !dbg !6383
  %23 = extractvalue { %"struct.std::__detail::_Hash_node"*, i8 } %19, 0, !dbg !6383
  store %"struct.std::__detail::_Hash_node"* %23, %"struct.std::__detail::_Hash_node"** %22, align 8, !dbg !6383
  %24 = getelementptr inbounds { %"struct.std::__detail::_Hash_node"*, i8 }, { %"struct.std::__detail::_Hash_node"*, i8 }* %21, i32 0, i32 1, !dbg !6383
  %25 = extractvalue { %"struct.std::__detail::_Hash_node"*, i8 } %19, 1, !dbg !6383
  store i8 %25, i8* %24, align 8, !dbg !6383
  call void @_ZNSt4pairINSt7__cxx1112basic_stringIcSt11char_traitsIcESaIcEEEiED2Ev(%"struct.std::pair.12"* noundef nonnull align 8 dereferenceable(36) %6) #10, !dbg !6381
  %26 = getelementptr inbounds %class.system_memory_map, %class.system_memory_map* %17, i32 0, i32 3, !dbg !6384
  %27 = load i32*, i32** %26, align 8, !dbg !6384
  %28 = load i32, i32* @valid_status, align 4, !dbg !6385
  %29 = sext i32 %28 to i64, !dbg !6384
  %30 = getelementptr inbounds i32, i32* %27, i64 %29, !dbg !6384
  store i32 1, i32* %30, align 4, !dbg !6386
  call void @llvm.dbg.declare(metadata %"class.std::__cxx11::basic_string"* %10, metadata !6387, metadata !DIExpression()), !dbg !6388
  %31 = load i32, i32* @valid_status, align 4, !dbg !6389
  call void @_ZNSt7__cxx119to_stringEi(%"class.std::__cxx11::basic_string"* sret(%"class.std::__cxx11::basic_string") align 8 %15, i32 noundef %31), !dbg !6390
  invoke void @_ZStplIcSt11char_traitsIcESaIcEENSt7__cxx1112basic_stringIT_T0_T1_EEPKS5_OS8_(%"class.std::__cxx11::basic_string"* sret(%"class.std::__cxx11::basic_string") align 8 %14, i8* noundef getelementptr inbounds ([7 x i8], [7 x i8]* @.str.7, i64 0, i64 0), %"class.std::__cxx11::basic_string"* noundef nonnull align 8 dereferenceable(32) %15)
          to label %32 unwind label %45, !dbg !6391

32:                                               ; preds = %20
  invoke void @_ZStplIcSt11char_traitsIcESaIcEENSt7__cxx1112basic_stringIT_T0_T1_EEOS8_PKS5_(%"class.std::__cxx11::basic_string"* sret(%"class.std::__cxx11::basic_string") align 8 %13, %"class.std::__cxx11::basic_string"* noundef nonnull align 8 dereferenceable(32) %14, i8* noundef getelementptr inbounds ([2 x i8], [2 x i8]* @.str.8, i64 0, i64 0))
          to label %33 unwind label %49, !dbg !6392

33:                                               ; preds = %32
  invoke void @_ZStplIcSt11char_traitsIcESaIcEENSt7__cxx1112basic_stringIT_T0_T1_EEOS8_PKS5_(%"class.std::__cxx11::basic_string"* sret(%"class.std::__cxx11::basic_string") align 8 %12, %"class.std::__cxx11::basic_string"* noundef nonnull align 8 dereferenceable(32) %13, i8* noundef getelementptr inbounds ([5 x i8], [5 x i8]* @.str.9, i64 0, i64 0))
          to label %34 unwind label %53, !dbg !6393

34:                                               ; preds = %33
  invoke void @_ZStplIcSt11char_traitsIcESaIcEENSt7__cxx1112basic_stringIT_T0_T1_EEOS8_PKS5_(%"class.std::__cxx11::basic_string"* sret(%"class.std::__cxx11::basic_string") align 8 %11, %"class.std::__cxx11::basic_string"* noundef nonnull align 8 dereferenceable(32) %12, i8* noundef getelementptr inbounds ([15 x i8], [15 x i8]* @.str.10, i64 0, i64 0))
          to label %35 unwind label %57, !dbg !6394

35:                                               ; preds = %34
  invoke void @_ZStplIcSt11char_traitsIcESaIcEENSt7__cxx1112basic_stringIT_T0_T1_EEOS8_RKS8_(%"class.std::__cxx11::basic_string"* sret(%"class.std::__cxx11::basic_string") align 8 %10, %"class.std::__cxx11::basic_string"* noundef nonnull align 8 dereferenceable(32) %11, %"class.std::__cxx11::basic_string"* noundef nonnull align 8 dereferenceable(32) %1)
          to label %36 unwind label %61, !dbg !6395

36:                                               ; preds = %35
  call void @_ZNSt7__cxx1112basic_stringIcSt11char_traitsIcESaIcEED1Ev(%"class.std::__cxx11::basic_string"* noundef nonnull align 8 dereferenceable(32) %11) #10, !dbg !6396
  call void @_ZNSt7__cxx1112basic_stringIcSt11char_traitsIcESaIcEED1Ev(%"class.std::__cxx11::basic_string"* noundef nonnull align 8 dereferenceable(32) %12) #10, !dbg !6396
  call void @_ZNSt7__cxx1112basic_stringIcSt11char_traitsIcESaIcEED1Ev(%"class.std::__cxx11::basic_string"* noundef nonnull align 8 dereferenceable(32) %13) #10, !dbg !6396
  call void @_ZNSt7__cxx1112basic_stringIcSt11char_traitsIcESaIcEED1Ev(%"class.std::__cxx11::basic_string"* noundef nonnull align 8 dereferenceable(32) %14) #10, !dbg !6396
  call void @_ZNSt7__cxx1112basic_stringIcSt11char_traitsIcESaIcEED1Ev(%"class.std::__cxx11::basic_string"* noundef nonnull align 8 dereferenceable(32) %15) #10, !dbg !6396
  %37 = bitcast %class.system_memory_map* %17 to %class.Log*, !dbg !6397
  invoke void @_ZNSt7__cxx1112basic_stringIcSt11char_traitsIcESaIcEEC1ERKS4_(%"class.std::__cxx11::basic_string"* noundef nonnull align 8 dereferenceable(32) %16, %"class.std::__cxx11::basic_string"* noundef nonnull align 8 dereferenceable(32) %10)
          to label %38 unwind label %69, !dbg !6398

38:                                               ; preds = %36
  call void @_ZN3Log10to_consoleENSt7__cxx1112basic_stringIcSt11char_traitsIcESaIcEEEi(%class.Log* noundef nonnull align 4 dereferenceable(20) %37, %"class.std::__cxx11::basic_string"* noundef %16, i32 noundef 2), !dbg !6397
  call void @_ZNSt7__cxx1112basic_stringIcSt11char_traitsIcESaIcEED1Ev(%"class.std::__cxx11::basic_string"* noundef nonnull align 8 dereferenceable(32) %16) #10, !dbg !6397
  %39 = load i32, i32* @valid_status, align 4, !dbg !6399
  %40 = add nsw i32 %39, 1, !dbg !6399
  store i32 %40, i32* @valid_status, align 4, !dbg !6399
  call void @_ZNSt7__cxx1112basic_stringIcSt11char_traitsIcESaIcEED1Ev(%"class.std::__cxx11::basic_string"* noundef nonnull align 8 dereferenceable(32) %10) #10, !dbg !6400
  ret void, !dbg !6400

41:                                               ; preds = %3
  %42 = landingpad { i8*, i32 }
          cleanup, !dbg !6400
  %43 = extractvalue { i8*, i32 } %42, 0, !dbg !6400
  store i8* %43, i8** %7, align 8, !dbg !6400
  %44 = extractvalue { i8*, i32 } %42, 1, !dbg !6400
  store i32 %44, i32* %8, align 4, !dbg !6400
  call void @_ZNSt4pairINSt7__cxx1112basic_stringIcSt11char_traitsIcESaIcEEEiED2Ev(%"struct.std::pair.12"* noundef nonnull align 8 dereferenceable(36) %6) #10, !dbg !6381
  br label %73, !dbg !6381

45:                                               ; preds = %20
  %46 = landingpad { i8*, i32 }
          cleanup, !dbg !6400
  %47 = extractvalue { i8*, i32 } %46, 0, !dbg !6400
  store i8* %47, i8** %7, align 8, !dbg !6400
  %48 = extractvalue { i8*, i32 } %46, 1, !dbg !6400
  store i32 %48, i32* %8, align 4, !dbg !6400
  br label %68, !dbg !6400

49:                                               ; preds = %32
  %50 = landingpad { i8*, i32 }
          cleanup, !dbg !6400
  %51 = extractvalue { i8*, i32 } %50, 0, !dbg !6400
  store i8* %51, i8** %7, align 8, !dbg !6400
  %52 = extractvalue { i8*, i32 } %50, 1, !dbg !6400
  store i32 %52, i32* %8, align 4, !dbg !6400
  br label %67, !dbg !6400

53:                                               ; preds = %33
  %54 = landingpad { i8*, i32 }
          cleanup, !dbg !6400
  %55 = extractvalue { i8*, i32 } %54, 0, !dbg !6400
  store i8* %55, i8** %7, align 8, !dbg !6400
  %56 = extractvalue { i8*, i32 } %54, 1, !dbg !6400
  store i32 %56, i32* %8, align 4, !dbg !6400
  br label %66, !dbg !6400

57:                                               ; preds = %34
  %58 = landingpad { i8*, i32 }
          cleanup, !dbg !6400
  %59 = extractvalue { i8*, i32 } %58, 0, !dbg !6400
  store i8* %59, i8** %7, align 8, !dbg !6400
  %60 = extractvalue { i8*, i32 } %58, 1, !dbg !6400
  store i32 %60, i32* %8, align 4, !dbg !6400
  br label %65, !dbg !6400

61:                                               ; preds = %35
  %62 = landingpad { i8*, i32 }
          cleanup, !dbg !6400
  %63 = extractvalue { i8*, i32 } %62, 0, !dbg !6400
  store i8* %63, i8** %7, align 8, !dbg !6400
  %64 = extractvalue { i8*, i32 } %62, 1, !dbg !6400
  store i32 %64, i32* %8, align 4, !dbg !6400
  call void @_ZNSt7__cxx1112basic_stringIcSt11char_traitsIcESaIcEED1Ev(%"class.std::__cxx11::basic_string"* noundef nonnull align 8 dereferenceable(32) %11) #10, !dbg !6396
  br label %65, !dbg !6396

65:                                               ; preds = %61, %57
  call void @_ZNSt7__cxx1112basic_stringIcSt11char_traitsIcESaIcEED1Ev(%"class.std::__cxx11::basic_string"* noundef nonnull align 8 dereferenceable(32) %12) #10, !dbg !6396
  br label %66, !dbg !6396

66:                                               ; preds = %65, %53
  call void @_ZNSt7__cxx1112basic_stringIcSt11char_traitsIcESaIcEED1Ev(%"class.std::__cxx11::basic_string"* noundef nonnull align 8 dereferenceable(32) %13) #10, !dbg !6396
  br label %67, !dbg !6396

67:                                               ; preds = %66, %49
  call void @_ZNSt7__cxx1112basic_stringIcSt11char_traitsIcESaIcEED1Ev(%"class.std::__cxx11::basic_string"* noundef nonnull align 8 dereferenceable(32) %14) #10, !dbg !6396
  br label %68, !dbg !6396

68:                                               ; preds = %67, %45
  call void @_ZNSt7__cxx1112basic_stringIcSt11char_traitsIcESaIcEED1Ev(%"class.std::__cxx11::basic_string"* noundef nonnull align 8 dereferenceable(32) %15) #10, !dbg !6396
  br label %73, !dbg !6396

69:                                               ; preds = %36
  %70 = landingpad { i8*, i32 }
          cleanup, !dbg !6400
  %71 = extractvalue { i8*, i32 } %70, 0, !dbg !6400
  store i8* %71, i8** %7, align 8, !dbg !6400
  %72 = extractvalue { i8*, i32 } %70, 1, !dbg !6400
  store i32 %72, i32* %8, align 4, !dbg !6400
  call void @_ZNSt7__cxx1112basic_stringIcSt11char_traitsIcESaIcEED1Ev(%"class.std::__cxx11::basic_string"* noundef nonnull align 8 dereferenceable(32) %10) #10, !dbg !6400
  br label %73, !dbg !6400

73:                                               ; preds = %69, %68, %41
  %74 = load i8*, i8** %7, align 8, !dbg !6381
  %75 = load i32, i32* %8, align 4, !dbg !6381
  %76 = insertvalue { i8*, i32 } undef, i8* %74, 0, !dbg !6381
  %77 = insertvalue { i8*, i32 } %76, i32 %75, 1, !dbg !6381
  resume { i8*, i32 } %77, !dbg !6381
}

; Function Attrs: mustprogress noinline uwtable
define linkonce_odr dso_local { %"struct.std::__detail::_Hash_node"*, i8 } @_ZNSt13unordered_mapINSt7__cxx1112basic_stringIcSt11char_traitsIcESaIcEEEiSt4hashIS5_ESt8equal_toIS5_ESaISt4pairIKS5_iEEE6insertISA_IS5_iEEENSt9enable_ifIXsr16is_constructibleISC_OT_EE5valueESA_INSt8__detail14_Node_iteratorISC_Lb0ELb1EEEbEE4typeESJ_(%"class.std::unordered_map"* noundef nonnull align 8 dereferenceable(56) %0, %"struct.std::pair.12"* noundef nonnull align 8 dereferenceable(36) %1) #2 comdat align 2 !dbg !6401 {
  %3 = alloca %"struct.std::pair.8", align 8
  %4 = alloca %"class.std::unordered_map"*, align 8
  %5 = alloca %"struct.std::pair.12"*, align 8
  store %"class.std::unordered_map"* %0, %"class.std::unordered_map"** %4, align 8
  call void @llvm.dbg.declare(metadata %"class.std::unordered_map"** %4, metadata !6412, metadata !DIExpression()), !dbg !6413
  store %"struct.std::pair.12"* %1, %"struct.std::pair.12"** %5, align 8
  call void @llvm.dbg.declare(metadata %"struct.std::pair.12"** %5, metadata !6414, metadata !DIExpression()), !dbg !6415
  %6 = load %"class.std::unordered_map"*, %"class.std::unordered_map"** %4, align 8
  %7 = getelementptr inbounds %"class.std::unordered_map", %"class.std::unordered_map"* %6, i32 0, i32 0, !dbg !6416
  %8 = load %"struct.std::pair.12"*, %"struct.std::pair.12"** %5, align 8, !dbg !6417
  %9 = call noundef nonnull align 8 dereferenceable(36) %"struct.std::pair.12"* @_ZSt7forwardISt4pairINSt7__cxx1112basic_stringIcSt11char_traitsIcESaIcEEEiEEOT_RNSt16remove_referenceIS8_E4typeE(%"struct.std::pair.12"* noundef nonnull align 8 dereferenceable(36) %8) #10, !dbg !6418
  %10 = call { %"struct.std::__detail::_Hash_node"*, i8 } @_ZNSt10_HashtableINSt7__cxx1112basic_stringIcSt11char_traitsIcESaIcEEESt4pairIKS5_iESaIS8_ENSt8__detail10_Select1stESt8equal_toIS5_ESt4hashIS5_ENSA_18_Mod_range_hashingENSA_20_Default_ranged_hashENSA_20_Prime_rehash_policyENSA_17_Hashtable_traitsILb1ELb0ELb1EEEE7emplaceIJS6_IS5_iEEEES6_INSA_14_Node_iteratorIS8_Lb0ELb1EEEbEDpOT_(%"class.std::_Hashtable"* noundef nonnull align 8 dereferenceable(56) %7, %"struct.std::pair.12"* noundef nonnull align 8 dereferenceable(36) %9), !dbg !6419
  %11 = bitcast %"struct.std::pair.8"* %3 to { %"struct.std::__detail::_Hash_node"*, i8 }*, !dbg !6419
  %12 = getelementptr inbounds { %"struct.std::__detail::_Hash_node"*, i8 }, { %"struct.std::__detail::_Hash_node"*, i8 }* %11, i32 0, i32 0, !dbg !6419
  %13 = extractvalue { %"struct.std::__detail::_Hash_node"*, i8 } %10, 0, !dbg !6419
  store %"struct.std::__detail::_Hash_node"* %13, %"struct.std::__detail::_Hash_node"** %12, align 8, !dbg !6419
  %14 = getelementptr inbounds { %"struct.std::__detail::_Hash_node"*, i8 }, { %"struct.std::__detail::_Hash_node"*, i8 }* %11, i32 0, i32 1, !dbg !6419
  %15 = extractvalue { %"struct.std::__detail::_Hash_node"*, i8 } %10, 1, !dbg !6419
  store i8 %15, i8* %14, align 8, !dbg !6419
  %16 = bitcast %"struct.std::pair.8"* %3 to { %"struct.std::__detail::_Hash_node"*, i8 }*, !dbg !6420
  %17 = load { %"struct.std::__detail::_Hash_node"*, i8 }, { %"struct.std::__detail::_Hash_node"*, i8 }* %16, align 8, !dbg !6420
  ret { %"struct.std::__detail::_Hash_node"*, i8 } %17, !dbg !6420
}

; Function Attrs: mustprogress noinline uwtable
define linkonce_odr dso_local void @_ZSt9make_pairIRNSt7__cxx1112basic_stringIcSt11char_traitsIcESaIcEEERiESt4pairINSt25__strip_reference_wrapperINSt5decayIT_E4typeEE6__typeENS9_INSA_IT0_E4typeEE6__typeEEOSB_OSG_(%"struct.std::pair.12"* noalias sret(%"struct.std::pair.12") align 8 %0, %"class.std::__cxx11::basic_string"* noundef nonnull align 8 dereferenceable(32) %1, i32* noundef nonnull align 4 dereferenceable(4) %2) #2 comdat !dbg !6421 {
  %4 = alloca i8*, align 8
  %5 = alloca %"class.std::__cxx11::basic_string"*, align 8
  %6 = alloca i32*, align 8
  %7 = bitcast %"struct.std::pair.12"* %0 to i8*
  store i8* %7, i8** %4, align 8
  store %"class.std::__cxx11::basic_string"* %1, %"class.std::__cxx11::basic_string"** %5, align 8
  call void @llvm.dbg.declare(metadata %"class.std::__cxx11::basic_string"** %5, metadata !6428, metadata !DIExpression()), !dbg !6429
  store i32* %2, i32** %6, align 8
  call void @llvm.dbg.declare(metadata i32** %6, metadata !6430, metadata !DIExpression()), !dbg !6431
  %8 = load %"class.std::__cxx11::basic_string"*, %"class.std::__cxx11::basic_string"** %5, align 8, !dbg !6432
  %9 = call noundef nonnull align 8 dereferenceable(32) %"class.std::__cxx11::basic_string"* @_ZSt7forwardIRNSt7__cxx1112basic_stringIcSt11char_traitsIcESaIcEEEEOT_RNSt16remove_referenceIS7_E4typeE(%"class.std::__cxx11::basic_string"* noundef nonnull align 8 dereferenceable(32) %8) #10, !dbg !6433
  %10 = load i32*, i32** %6, align 8, !dbg !6434
  %11 = call noundef nonnull align 4 dereferenceable(4) i32* @_ZSt7forwardIRiEOT_RNSt16remove_referenceIS1_E4typeE(i32* noundef nonnull align 4 dereferenceable(4) %10) #10, !dbg !6435
  call void @_ZNSt4pairINSt7__cxx1112basic_stringIcSt11char_traitsIcESaIcEEEiEC2IRS5_RiLb1EEEOT_OT0_(%"struct.std::pair.12"* noundef nonnull align 8 dereferenceable(36) %0, %"class.std::__cxx11::basic_string"* noundef nonnull align 8 dereferenceable(32) %9, i32* noundef nonnull align 4 dereferenceable(4) %11), !dbg !6436
  ret void, !dbg !6437
}

; Function Attrs: noinline nounwind uwtable
define linkonce_odr dso_local void @_ZNSt4pairINSt7__cxx1112basic_stringIcSt11char_traitsIcESaIcEEEiED2Ev(%"struct.std::pair.12"* noundef nonnull align 8 dereferenceable(36) %0) unnamed_addr #8 comdat align 2 !dbg !6438 {
  %2 = alloca %"struct.std::pair.12"*, align 8
  store %"struct.std::pair.12"* %0, %"struct.std::pair.12"** %2, align 8
  call void @llvm.dbg.declare(metadata %"struct.std::pair.12"** %2, metadata !6442, metadata !DIExpression()), !dbg !6444
  %3 = load %"struct.std::pair.12"*, %"struct.std::pair.12"** %2, align 8
  %4 = getelementptr inbounds %"struct.std::pair.12", %"struct.std::pair.12"* %3, i32 0, i32 0, !dbg !6445
  call void @_ZNSt7__cxx1112basic_stringIcSt11char_traitsIcESaIcEED1Ev(%"class.std::__cxx11::basic_string"* noundef nonnull align 8 dereferenceable(32) %4) #10, !dbg !6445
  ret void, !dbg !6447
}

; Function Attrs: mustprogress noinline uwtable
define linkonce_odr dso_local void @_ZStplIcSt11char_traitsIcESaIcEENSt7__cxx1112basic_stringIT_T0_T1_EEOS8_RKS8_(%"class.std::__cxx11::basic_string"* noalias sret(%"class.std::__cxx11::basic_string") align 8 %0, %"class.std::__cxx11::basic_string"* noundef nonnull align 8 dereferenceable(32) %1, %"class.std::__cxx11::basic_string"* noundef nonnull align 8 dereferenceable(32) %2) #2 comdat !dbg !6448 {
  %4 = alloca i8*, align 8
  %5 = alloca %"class.std::__cxx11::basic_string"*, align 8
  %6 = alloca %"class.std::__cxx11::basic_string"*, align 8
  %7 = bitcast %"class.std::__cxx11::basic_string"* %0 to i8*
  store i8* %7, i8** %4, align 8
  store %"class.std::__cxx11::basic_string"* %1, %"class.std::__cxx11::basic_string"** %5, align 8
  call void @llvm.dbg.declare(metadata %"class.std::__cxx11::basic_string"** %5, metadata !6451, metadata !DIExpression()), !dbg !6452
  store %"class.std::__cxx11::basic_string"* %2, %"class.std::__cxx11::basic_string"** %6, align 8
  call void @llvm.dbg.declare(metadata %"class.std::__cxx11::basic_string"** %6, metadata !6453, metadata !DIExpression()), !dbg !6454
  %8 = load %"class.std::__cxx11::basic_string"*, %"class.std::__cxx11::basic_string"** %5, align 8, !dbg !6455
  %9 = load %"class.std::__cxx11::basic_string"*, %"class.std::__cxx11::basic_string"** %6, align 8, !dbg !6456
  %10 = call noundef nonnull align 8 dereferenceable(32) %"class.std::__cxx11::basic_string"* @_ZNSt7__cxx1112basic_stringIcSt11char_traitsIcESaIcEE6appendERKS4_(%"class.std::__cxx11::basic_string"* noundef nonnull align 8 dereferenceable(32) %8, %"class.std::__cxx11::basic_string"* noundef nonnull align 8 dereferenceable(32) %9), !dbg !6457
  %11 = call noundef nonnull align 8 dereferenceable(32) %"class.std::__cxx11::basic_string"* @_ZSt4moveIRNSt7__cxx1112basic_stringIcSt11char_traitsIcESaIcEEEEONSt16remove_referenceIT_E4typeEOS8_(%"class.std::__cxx11::basic_string"* noundef nonnull align 8 dereferenceable(32) %10) #10, !dbg !6458
  call void @_ZNSt7__cxx1112basic_stringIcSt11char_traitsIcESaIcEEC1EOS4_(%"class.std::__cxx11::basic_string"* noundef nonnull align 8 dereferenceable(32) %0, %"class.std::__cxx11::basic_string"* noundef nonnull align 8 dereferenceable(32) %11) #10, !dbg !6458
  ret void, !dbg !6459
}

; Function Attrs: mustprogress noinline uwtable
define dso_local void @_ZN17system_memory_map9print_mapERKSt13unordered_mapINSt7__cxx1112basic_stringIcSt11char_traitsIcESaIcEEEiSt4hashIS6_ESt8equal_toIS6_ESaISt4pairIKS6_iEEE(%class.system_memory_map* noundef nonnull align 8 dereferenceable(40) %0, %"class.std::unordered_map"* noundef nonnull align 8 dereferenceable(56) %1) #2 align 2 personality i8* bitcast (i32 (...)* @__gxx_personality_v0 to i8*) !dbg !6460 {
  %3 = alloca %class.system_memory_map*, align 8
  %4 = alloca %"class.std::unordered_map"*, align 8
  %5 = alloca %"class.std::__cxx11::basic_string", align 8
  %6 = alloca %"class.std::allocator", align 1
  %7 = alloca i8*, align 8
  %8 = alloca i32, align 4
  %9 = alloca i32, align 4
  %10 = alloca %"class.std::unordered_map"*, align 8
  %11 = alloca %"struct.std::__detail::_Node_const_iterator", align 8
  %12 = alloca %"struct.std::__detail::_Node_const_iterator", align 8
  %13 = alloca %"struct.std::pair"*, align 8
  store %class.system_memory_map* %0, %class.system_memory_map** %3, align 8
  call void @llvm.dbg.declare(metadata %class.system_memory_map** %3, metadata !6461, metadata !DIExpression()), !dbg !6462
  store %"class.std::unordered_map"* %1, %"class.std::unordered_map"** %4, align 8
  call void @llvm.dbg.declare(metadata %"class.std::unordered_map"** %4, metadata !6463, metadata !DIExpression()), !dbg !6464
  %14 = load %class.system_memory_map*, %class.system_memory_map** %3, align 8
  %15 = bitcast %class.system_memory_map* %14 to %class.Log*, !dbg !6465
  call void @_ZNSaIcEC1Ev(%"class.std::allocator"* noundef nonnull align 1 dereferenceable(1) %6) #10, !dbg !6466
  invoke void @_ZNSt7__cxx1112basic_stringIcSt11char_traitsIcESaIcEEC1EPKcRKS3_(%"class.std::__cxx11::basic_string"* noundef nonnull align 8 dereferenceable(32) %5, i8* noundef getelementptr inbounds ([20 x i8], [20 x i8]* @.str.11, i64 0, i64 0), %"class.std::allocator"* noundef nonnull align 1 dereferenceable(1) %6)
          to label %16 unwind label %33, !dbg !6466

16:                                               ; preds = %2
  call void @_ZN3Log10to_consoleENSt7__cxx1112basic_stringIcSt11char_traitsIcESaIcEEEi(%class.Log* noundef nonnull align 4 dereferenceable(20) %15, %"class.std::__cxx11::basic_string"* noundef %5, i32 noundef 2), !dbg !6465
  call void @_ZNSt7__cxx1112basic_stringIcSt11char_traitsIcESaIcEED1Ev(%"class.std::__cxx11::basic_string"* noundef nonnull align 8 dereferenceable(32) %5) #10, !dbg !6465
  call void @_ZNSaIcED1Ev(%"class.std::allocator"* noundef nonnull align 1 dereferenceable(1) %6) #10, !dbg !6465
  call void @llvm.dbg.declare(metadata i32* %9, metadata !6467, metadata !DIExpression()), !dbg !6468
  store i32 0, i32* %9, align 4, !dbg !6468
  call void @llvm.dbg.declare(metadata %"class.std::unordered_map"** %10, metadata !6469, metadata !DIExpression()), !dbg !6471
  %17 = load %"class.std::unordered_map"*, %"class.std::unordered_map"** %4, align 8, !dbg !6472
  store %"class.std::unordered_map"* %17, %"class.std::unordered_map"** %10, align 8, !dbg !6472
  call void @llvm.dbg.declare(metadata %"struct.std::__detail::_Node_const_iterator"* %11, metadata !6473, metadata !DIExpression()), !dbg !6471
  %18 = load %"class.std::unordered_map"*, %"class.std::unordered_map"** %10, align 8, !dbg !6474
  %19 = call %"struct.std::__detail::_Hash_node"* @_ZNKSt13unordered_mapINSt7__cxx1112basic_stringIcSt11char_traitsIcESaIcEEEiSt4hashIS5_ESt8equal_toIS5_ESaISt4pairIKS5_iEEE5beginEv(%"class.std::unordered_map"* noundef nonnull align 8 dereferenceable(56) %18) #10, !dbg !6474
  %20 = getelementptr inbounds %"struct.std::__detail::_Node_const_iterator", %"struct.std::__detail::_Node_const_iterator"* %11, i32 0, i32 0, !dbg !6474
  %21 = getelementptr inbounds %"struct.std::__detail::_Node_iterator_base", %"struct.std::__detail::_Node_iterator_base"* %20, i32 0, i32 0, !dbg !6474
  store %"struct.std::__detail::_Hash_node"* %19, %"struct.std::__detail::_Hash_node"** %21, align 8, !dbg !6474
  call void @llvm.dbg.declare(metadata %"struct.std::__detail::_Node_const_iterator"* %12, metadata !6475, metadata !DIExpression()), !dbg !6471
  %22 = load %"class.std::unordered_map"*, %"class.std::unordered_map"** %10, align 8, !dbg !6474
  %23 = call %"struct.std::__detail::_Hash_node"* @_ZNKSt13unordered_mapINSt7__cxx1112basic_stringIcSt11char_traitsIcESaIcEEEiSt4hashIS5_ESt8equal_toIS5_ESaISt4pairIKS5_iEEE3endEv(%"class.std::unordered_map"* noundef nonnull align 8 dereferenceable(56) %22) #10, !dbg !6474
  %24 = getelementptr inbounds %"struct.std::__detail::_Node_const_iterator", %"struct.std::__detail::_Node_const_iterator"* %12, i32 0, i32 0, !dbg !6474
  %25 = getelementptr inbounds %"struct.std::__detail::_Node_iterator_base", %"struct.std::__detail::_Node_iterator_base"* %24, i32 0, i32 0, !dbg !6474
  store %"struct.std::__detail::_Hash_node"* %23, %"struct.std::__detail::_Hash_node"** %25, align 8, !dbg !6474
  br label %26, !dbg !6474

26:                                               ; preds = %30, %16
  %27 = bitcast %"struct.std::__detail::_Node_const_iterator"* %11 to %"struct.std::__detail::_Node_iterator_base"*, !dbg !6474
  %28 = bitcast %"struct.std::__detail::_Node_const_iterator"* %12 to %"struct.std::__detail::_Node_iterator_base"*, !dbg !6474
  %29 = call noundef zeroext i1 @_ZNSt8__detailneERKNS_19_Node_iterator_baseISt4pairIKNSt7__cxx1112basic_stringIcSt11char_traitsIcESaIcEEEiELb1EEESC_(%"struct.std::__detail::_Node_iterator_base"* noundef nonnull align 8 dereferenceable(8) %27, %"struct.std::__detail::_Node_iterator_base"* noundef nonnull align 8 dereferenceable(8) %28) #10, !dbg !6474
  br i1 %29, label %30, label %41, !dbg !6474

30:                                               ; preds = %26
  call void @llvm.dbg.declare(metadata %"struct.std::pair"** %13, metadata !6476, metadata !DIExpression()), !dbg !6478
  %31 = call noundef nonnull align 8 dereferenceable(36) %"struct.std::pair"* @_ZNKSt8__detail20_Node_const_iteratorISt4pairIKNSt7__cxx1112basic_stringIcSt11char_traitsIcESaIcEEEiELb0ELb1EEdeEv(%"struct.std::__detail::_Node_const_iterator"* noundef nonnull align 8 dereferenceable(8) %11) #10, !dbg !6479
  store %"struct.std::pair"* %31, %"struct.std::pair"** %13, align 8, !dbg !6478
  %32 = call noundef nonnull align 8 dereferenceable(8) %"struct.std::__detail::_Node_const_iterator"* @_ZNSt8__detail20_Node_const_iteratorISt4pairIKNSt7__cxx1112basic_stringIcSt11char_traitsIcESaIcEEEiELb0ELb1EEppEv(%"struct.std::__detail::_Node_const_iterator"* noundef nonnull align 8 dereferenceable(8) %11) #10, !dbg !6474
  br label %26, !dbg !6474, !llvm.loop !6480

33:                                               ; preds = %2
  %34 = landingpad { i8*, i32 }
          cleanup, !dbg !6483
  %35 = extractvalue { i8*, i32 } %34, 0, !dbg !6483
  store i8* %35, i8** %7, align 8, !dbg !6483
  %36 = extractvalue { i8*, i32 } %34, 1, !dbg !6483
  store i32 %36, i32* %8, align 4, !dbg !6483
  call void @_ZNSaIcED1Ev(%"class.std::allocator"* noundef nonnull align 1 dereferenceable(1) %6) #10, !dbg !6465
  %37 = load i8*, i8** %7, align 8, !dbg !6465
  %38 = load i32, i32* %8, align 4, !dbg !6465
  %39 = insertvalue { i8*, i32 } undef, i8* %37, 0, !dbg !6465
  %40 = insertvalue { i8*, i32 } %39, i32 %38, 1, !dbg !6465
  resume { i8*, i32 } %40, !dbg !6465

41:                                               ; preds = %26
  ret void, !dbg !6483
}

; Function Attrs: mustprogress noinline nounwind uwtable
define linkonce_odr dso_local %"struct.std::__detail::_Hash_node"* @_ZNKSt13unordered_mapINSt7__cxx1112basic_stringIcSt11char_traitsIcESaIcEEEiSt4hashIS5_ESt8equal_toIS5_ESaISt4pairIKS5_iEEE5beginEv(%"class.std::unordered_map"* noundef nonnull align 8 dereferenceable(56) %0) #0 comdat align 2 !dbg !6484 {
  %2 = alloca %"struct.std::__detail::_Node_const_iterator", align 8
  %3 = alloca %"class.std::unordered_map"*, align 8
  store %"class.std::unordered_map"* %0, %"class.std::unordered_map"** %3, align 8
  call void @llvm.dbg.declare(metadata %"class.std::unordered_map"** %3, metadata !6485, metadata !DIExpression()), !dbg !6486
  %4 = load %"class.std::unordered_map"*, %"class.std::unordered_map"** %3, align 8
  %5 = getelementptr inbounds %"class.std::unordered_map", %"class.std::unordered_map"* %4, i32 0, i32 0, !dbg !6487
  %6 = call %"struct.std::__detail::_Hash_node"* @_ZNKSt10_HashtableINSt7__cxx1112basic_stringIcSt11char_traitsIcESaIcEEESt4pairIKS5_iESaIS8_ENSt8__detail10_Select1stESt8equal_toIS5_ESt4hashIS5_ENSA_18_Mod_range_hashingENSA_20_Default_ranged_hashENSA_20_Prime_rehash_policyENSA_17_Hashtable_traitsILb1ELb0ELb1EEEE5beginEv(%"class.std::_Hashtable"* noundef nonnull align 8 dereferenceable(56) %5) #10, !dbg !6488
  %7 = getelementptr inbounds %"struct.std::__detail::_Node_const_iterator", %"struct.std::__detail::_Node_const_iterator"* %2, i32 0, i32 0, !dbg !6488
  %8 = getelementptr inbounds %"struct.std::__detail::_Node_iterator_base", %"struct.std::__detail::_Node_iterator_base"* %7, i32 0, i32 0, !dbg !6488
  store %"struct.std::__detail::_Hash_node"* %6, %"struct.std::__detail::_Hash_node"** %8, align 8, !dbg !6488
  %9 = getelementptr inbounds %"struct.std::__detail::_Node_const_iterator", %"struct.std::__detail::_Node_const_iterator"* %2, i32 0, i32 0, !dbg !6489
  %10 = getelementptr inbounds %"struct.std::__detail::_Node_iterator_base", %"struct.std::__detail::_Node_iterator_base"* %9, i32 0, i32 0, !dbg !6489
  %11 = load %"struct.std::__detail::_Hash_node"*, %"struct.std::__detail::_Hash_node"** %10, align 8, !dbg !6489
  ret %"struct.std::__detail::_Hash_node"* %11, !dbg !6489
}

; Function Attrs: mustprogress noinline nounwind uwtable
define linkonce_odr dso_local %"struct.std::__detail::_Hash_node"* @_ZNKSt13unordered_mapINSt7__cxx1112basic_stringIcSt11char_traitsIcESaIcEEEiSt4hashIS5_ESt8equal_toIS5_ESaISt4pairIKS5_iEEE3endEv(%"class.std::unordered_map"* noundef nonnull align 8 dereferenceable(56) %0) #0 comdat align 2 !dbg !6490 {
  %2 = alloca %"struct.std::__detail::_Node_const_iterator", align 8
  %3 = alloca %"class.std::unordered_map"*, align 8
  store %"class.std::unordered_map"* %0, %"class.std::unordered_map"** %3, align 8
  call void @llvm.dbg.declare(metadata %"class.std::unordered_map"** %3, metadata !6491, metadata !DIExpression()), !dbg !6492
  %4 = load %"class.std::unordered_map"*, %"class.std::unordered_map"** %3, align 8
  %5 = getelementptr inbounds %"class.std::unordered_map", %"class.std::unordered_map"* %4, i32 0, i32 0, !dbg !6493
  %6 = call %"struct.std::__detail::_Hash_node"* @_ZNKSt10_HashtableINSt7__cxx1112basic_stringIcSt11char_traitsIcESaIcEEESt4pairIKS5_iESaIS8_ENSt8__detail10_Select1stESt8equal_toIS5_ESt4hashIS5_ENSA_18_Mod_range_hashingENSA_20_Default_ranged_hashENSA_20_Prime_rehash_policyENSA_17_Hashtable_traitsILb1ELb0ELb1EEEE3endEv(%"class.std::_Hashtable"* noundef nonnull align 8 dereferenceable(56) %5) #10, !dbg !6494
  %7 = getelementptr inbounds %"struct.std::__detail::_Node_const_iterator", %"struct.std::__detail::_Node_const_iterator"* %2, i32 0, i32 0, !dbg !6494
  %8 = getelementptr inbounds %"struct.std::__detail::_Node_iterator_base", %"struct.std::__detail::_Node_iterator_base"* %7, i32 0, i32 0, !dbg !6494
  store %"struct.std::__detail::_Hash_node"* %6, %"struct.std::__detail::_Hash_node"** %8, align 8, !dbg !6494
  %9 = getelementptr inbounds %"struct.std::__detail::_Node_const_iterator", %"struct.std::__detail::_Node_const_iterator"* %2, i32 0, i32 0, !dbg !6495
  %10 = getelementptr inbounds %"struct.std::__detail::_Node_iterator_base", %"struct.std::__detail::_Node_iterator_base"* %9, i32 0, i32 0, !dbg !6495
  %11 = load %"struct.std::__detail::_Hash_node"*, %"struct.std::__detail::_Hash_node"** %10, align 8, !dbg !6495
  ret %"struct.std::__detail::_Hash_node"* %11, !dbg !6495
}

; Function Attrs: mustprogress noinline nounwind uwtable
define linkonce_odr dso_local noundef nonnull align 8 dereferenceable(36) %"struct.std::pair"* @_ZNKSt8__detail20_Node_const_iteratorISt4pairIKNSt7__cxx1112basic_stringIcSt11char_traitsIcESaIcEEEiELb0ELb1EEdeEv(%"struct.std::__detail::_Node_const_iterator"* noundef nonnull align 8 dereferenceable(8) %0) #0 comdat align 2 !dbg !6496 {
  %2 = alloca %"struct.std::__detail::_Node_const_iterator"*, align 8
  store %"struct.std::__detail::_Node_const_iterator"* %0, %"struct.std::__detail::_Node_const_iterator"** %2, align 8
  call void @llvm.dbg.declare(metadata %"struct.std::__detail::_Node_const_iterator"** %2, metadata !6497, metadata !DIExpression()), !dbg !6499
  %3 = load %"struct.std::__detail::_Node_const_iterator"*, %"struct.std::__detail::_Node_const_iterator"** %2, align 8
  %4 = bitcast %"struct.std::__detail::_Node_const_iterator"* %3 to %"struct.std::__detail::_Node_iterator_base"*, !dbg !6500
  %5 = getelementptr inbounds %"struct.std::__detail::_Node_iterator_base", %"struct.std::__detail::_Node_iterator_base"* %4, i32 0, i32 0, !dbg !6500
  %6 = load %"struct.std::__detail::_Hash_node"*, %"struct.std::__detail::_Hash_node"** %5, align 8, !dbg !6500
  %7 = bitcast %"struct.std::__detail::_Hash_node"* %6 to i8*, !dbg !6501
  %8 = getelementptr inbounds i8, i8* %7, i64 8, !dbg !6501
  %9 = bitcast i8* %8 to %"struct.std::__detail::_Hash_node_value_base"*, !dbg !6501
  %10 = call noundef nonnull align 8 dereferenceable(36) %"struct.std::pair"* @_ZNSt8__detail21_Hash_node_value_baseISt4pairIKNSt7__cxx1112basic_stringIcSt11char_traitsIcESaIcEEEiEE4_M_vEv(%"struct.std::__detail::_Hash_node_value_base"* noundef nonnull align 8 dereferenceable(40) %9) #10, !dbg !6501
  ret %"struct.std::pair"* %10, !dbg !6502
}

; Function Attrs: mustprogress noinline nounwind uwtable
define linkonce_odr dso_local noundef nonnull align 8 dereferenceable(8) %"struct.std::__detail::_Node_const_iterator"* @_ZNSt8__detail20_Node_const_iteratorISt4pairIKNSt7__cxx1112basic_stringIcSt11char_traitsIcESaIcEEEiELb0ELb1EEppEv(%"struct.std::__detail::_Node_const_iterator"* noundef nonnull align 8 dereferenceable(8) %0) #0 comdat align 2 !dbg !6503 {
  %2 = alloca %"struct.std::__detail::_Node_const_iterator"*, align 8
  store %"struct.std::__detail::_Node_const_iterator"* %0, %"struct.std::__detail::_Node_const_iterator"** %2, align 8
  call void @llvm.dbg.declare(metadata %"struct.std::__detail::_Node_const_iterator"** %2, metadata !6504, metadata !DIExpression()), !dbg !6506
  %3 = load %"struct.std::__detail::_Node_const_iterator"*, %"struct.std::__detail::_Node_const_iterator"** %2, align 8
  %4 = bitcast %"struct.std::__detail::_Node_const_iterator"* %3 to %"struct.std::__detail::_Node_iterator_base"*, !dbg !6507
  call void @_ZNSt8__detail19_Node_iterator_baseISt4pairIKNSt7__cxx1112basic_stringIcSt11char_traitsIcESaIcEEEiELb1EE7_M_incrEv(%"struct.std::__detail::_Node_iterator_base"* noundef nonnull align 8 dereferenceable(8) %4) #10, !dbg !6507
  ret %"struct.std::__detail::_Node_const_iterator"* %3, !dbg !6508
}

; Function Attrs: mustprogress noinline uwtable
define dso_local void @_ZN10INTERFACES24displayInterfaceRegisterEPNS_18interfaceRegistersE(%class.INTERFACES* noundef nonnull align 8 dereferenceable(48) %0, %"struct.INTERFACES::interfaceRegisters"* noundef %1) #2 align 2 personality i8* bitcast (i32 (...)* @__gxx_personality_v0 to i8*) !dbg !6509 {
  %3 = alloca %class.INTERFACES*, align 8
  %4 = alloca %"struct.INTERFACES::interfaceRegisters"*, align 8
  %5 = alloca %"class.std::__cxx11::basic_string", align 8
  %6 = alloca %"class.std::__cxx11::basic_string", align 8
  %7 = alloca %"class.std::__cxx11::basic_string", align 8
  %8 = alloca %"class.std::__cxx11::basic_string", align 8
  %9 = alloca %"class.std::__cxx11::basic_string", align 8
  %10 = alloca i8*, align 8
  %11 = alloca i32, align 4
  %12 = alloca %"class.std::__cxx11::basic_string", align 8
  store %class.INTERFACES* %0, %class.INTERFACES** %3, align 8
  call void @llvm.dbg.declare(metadata %class.INTERFACES** %3, metadata !6510, metadata !DIExpression()), !dbg !6511
  store %"struct.INTERFACES::interfaceRegisters"* %1, %"struct.INTERFACES::interfaceRegisters"** %4, align 8
  call void @llvm.dbg.declare(metadata %"struct.INTERFACES::interfaceRegisters"** %4, metadata !6512, metadata !DIExpression()), !dbg !6513
  %13 = load %class.INTERFACES*, %class.INTERFACES** %3, align 8
  call void @llvm.dbg.declare(metadata %"class.std::__cxx11::basic_string"* %5, metadata !6514, metadata !DIExpression()), !dbg !6515
  %14 = load %"struct.INTERFACES::interfaceRegisters"*, %"struct.INTERFACES::interfaceRegisters"** %4, align 8, !dbg !6516
  %15 = getelementptr inbounds %"struct.INTERFACES::interfaceRegisters", %"struct.INTERFACES::interfaceRegisters"* %14, i32 0, i32 0, !dbg !6517
  call void @_ZStplIcSt11char_traitsIcESaIcEENSt7__cxx1112basic_stringIT_T0_T1_EERKS8_PKS5_(%"class.std::__cxx11::basic_string"* sret(%"class.std::__cxx11::basic_string") align 8 %9, %"class.std::__cxx11::basic_string"* noundef nonnull align 8 dereferenceable(32) %15, i8* noundef getelementptr inbounds ([13 x i8], [13 x i8]* @.str.12, i64 0, i64 0)), !dbg !6518
  %16 = load %"struct.INTERFACES::interfaceRegisters"*, %"struct.INTERFACES::interfaceRegisters"** %4, align 8, !dbg !6519
  %17 = getelementptr inbounds %"struct.INTERFACES::interfaceRegisters", %"struct.INTERFACES::interfaceRegisters"* %16, i32 0, i32 1, !dbg !6520
  invoke void @_ZStplIcSt11char_traitsIcESaIcEENSt7__cxx1112basic_stringIT_T0_T1_EEOS8_RKS8_(%"class.std::__cxx11::basic_string"* sret(%"class.std::__cxx11::basic_string") align 8 %8, %"class.std::__cxx11::basic_string"* noundef nonnull align 8 dereferenceable(32) %9, %"class.std::__cxx11::basic_string"* noundef nonnull align 8 dereferenceable(32) %17)
          to label %18 unwind label %26, !dbg !6521

18:                                               ; preds = %2
  invoke void @_ZStplIcSt11char_traitsIcESaIcEENSt7__cxx1112basic_stringIT_T0_T1_EEOS8_PKS5_(%"class.std::__cxx11::basic_string"* sret(%"class.std::__cxx11::basic_string") align 8 %7, %"class.std::__cxx11::basic_string"* noundef nonnull align 8 dereferenceable(32) %8, i8* noundef getelementptr inbounds ([4 x i8], [4 x i8]* @.str.13, i64 0, i64 0))
          to label %19 unwind label %30, !dbg !6522

19:                                               ; preds = %18
  invoke void @_ZStplIcSt11char_traitsIcESaIcEENSt7__cxx1112basic_stringIT_T0_T1_EEOS8_PKS5_(%"class.std::__cxx11::basic_string"* sret(%"class.std::__cxx11::basic_string") align 8 %6, %"class.std::__cxx11::basic_string"* noundef nonnull align 8 dereferenceable(32) %7, i8* noundef getelementptr inbounds ([8 x i8], [8 x i8]* @.str.14, i64 0, i64 0))
          to label %20 unwind label %34, !dbg !6523

20:                                               ; preds = %19
  %21 = load %"struct.INTERFACES::interfaceRegisters"*, %"struct.INTERFACES::interfaceRegisters"** %4, align 8, !dbg !6524
  %22 = getelementptr inbounds %"struct.INTERFACES::interfaceRegisters", %"struct.INTERFACES::interfaceRegisters"* %21, i32 0, i32 2, !dbg !6525
  %23 = load i32, i32* %22, align 8, !dbg !6525
  invoke void @_ZNSt7__cxx119to_stringEi(%"class.std::__cxx11::basic_string"* sret(%"class.std::__cxx11::basic_string") align 8 %12, i32 noundef %23)
          to label %24 unwind label %38, !dbg !6526

24:                                               ; preds = %20
  invoke void @_ZStplIcSt11char_traitsIcESaIcEENSt7__cxx1112basic_stringIT_T0_T1_EEOS8_S9_(%"class.std::__cxx11::basic_string"* sret(%"class.std::__cxx11::basic_string") align 8 %5, %"class.std::__cxx11::basic_string"* noundef nonnull align 8 dereferenceable(32) %6, %"class.std::__cxx11::basic_string"* noundef nonnull align 8 dereferenceable(32) %12)
          to label %25 unwind label %42, !dbg !6527

25:                                               ; preds = %24
  call void @_ZNSt7__cxx1112basic_stringIcSt11char_traitsIcESaIcEED1Ev(%"class.std::__cxx11::basic_string"* noundef nonnull align 8 dereferenceable(32) %12) #10, !dbg !6516
  call void @_ZNSt7__cxx1112basic_stringIcSt11char_traitsIcESaIcEED1Ev(%"class.std::__cxx11::basic_string"* noundef nonnull align 8 dereferenceable(32) %6) #10, !dbg !6516
  call void @_ZNSt7__cxx1112basic_stringIcSt11char_traitsIcESaIcEED1Ev(%"class.std::__cxx11::basic_string"* noundef nonnull align 8 dereferenceable(32) %7) #10, !dbg !6516
  call void @_ZNSt7__cxx1112basic_stringIcSt11char_traitsIcESaIcEED1Ev(%"class.std::__cxx11::basic_string"* noundef nonnull align 8 dereferenceable(32) %8) #10, !dbg !6516
  call void @_ZNSt7__cxx1112basic_stringIcSt11char_traitsIcESaIcEED1Ev(%"class.std::__cxx11::basic_string"* noundef nonnull align 8 dereferenceable(32) %9) #10, !dbg !6516
  call void @_ZNSt7__cxx1112basic_stringIcSt11char_traitsIcESaIcEED1Ev(%"class.std::__cxx11::basic_string"* noundef nonnull align 8 dereferenceable(32) %5) #10, !dbg !6528
  ret void, !dbg !6528

26:                                               ; preds = %2
  %27 = landingpad { i8*, i32 }
          cleanup, !dbg !6528
  %28 = extractvalue { i8*, i32 } %27, 0, !dbg !6528
  store i8* %28, i8** %10, align 8, !dbg !6528
  %29 = extractvalue { i8*, i32 } %27, 1, !dbg !6528
  store i32 %29, i32* %11, align 4, !dbg !6528
  br label %49, !dbg !6528

30:                                               ; preds = %18
  %31 = landingpad { i8*, i32 }
          cleanup, !dbg !6528
  %32 = extractvalue { i8*, i32 } %31, 0, !dbg !6528
  store i8* %32, i8** %10, align 8, !dbg !6528
  %33 = extractvalue { i8*, i32 } %31, 1, !dbg !6528
  store i32 %33, i32* %11, align 4, !dbg !6528
  br label %48, !dbg !6528

34:                                               ; preds = %19
  %35 = landingpad { i8*, i32 }
          cleanup, !dbg !6528
  %36 = extractvalue { i8*, i32 } %35, 0, !dbg !6528
  store i8* %36, i8** %10, align 8, !dbg !6528
  %37 = extractvalue { i8*, i32 } %35, 1, !dbg !6528
  store i32 %37, i32* %11, align 4, !dbg !6528
  br label %47, !dbg !6528

38:                                               ; preds = %20
  %39 = landingpad { i8*, i32 }
          cleanup, !dbg !6528
  %40 = extractvalue { i8*, i32 } %39, 0, !dbg !6528
  store i8* %40, i8** %10, align 8, !dbg !6528
  %41 = extractvalue { i8*, i32 } %39, 1, !dbg !6528
  store i32 %41, i32* %11, align 4, !dbg !6528
  br label %46, !dbg !6528

42:                                               ; preds = %24
  %43 = landingpad { i8*, i32 }
          cleanup, !dbg !6528
  %44 = extractvalue { i8*, i32 } %43, 0, !dbg !6528
  store i8* %44, i8** %10, align 8, !dbg !6528
  %45 = extractvalue { i8*, i32 } %43, 1, !dbg !6528
  store i32 %45, i32* %11, align 4, !dbg !6528
  call void @_ZNSt7__cxx1112basic_stringIcSt11char_traitsIcESaIcEED1Ev(%"class.std::__cxx11::basic_string"* noundef nonnull align 8 dereferenceable(32) %12) #10, !dbg !6516
  br label %46, !dbg !6516

46:                                               ; preds = %42, %38
  call void @_ZNSt7__cxx1112basic_stringIcSt11char_traitsIcESaIcEED1Ev(%"class.std::__cxx11::basic_string"* noundef nonnull align 8 dereferenceable(32) %6) #10, !dbg !6516
  br label %47, !dbg !6516

47:                                               ; preds = %46, %34
  call void @_ZNSt7__cxx1112basic_stringIcSt11char_traitsIcESaIcEED1Ev(%"class.std::__cxx11::basic_string"* noundef nonnull align 8 dereferenceable(32) %7) #10, !dbg !6516
  br label %48, !dbg !6516

48:                                               ; preds = %47, %30
  call void @_ZNSt7__cxx1112basic_stringIcSt11char_traitsIcESaIcEED1Ev(%"class.std::__cxx11::basic_string"* noundef nonnull align 8 dereferenceable(32) %8) #10, !dbg !6516
  br label %49, !dbg !6516

49:                                               ; preds = %48, %26
  call void @_ZNSt7__cxx1112basic_stringIcSt11char_traitsIcESaIcEED1Ev(%"class.std::__cxx11::basic_string"* noundef nonnull align 8 dereferenceable(32) %9) #10, !dbg !6516
  %50 = load i8*, i8** %10, align 8, !dbg !6516
  %51 = load i32, i32* %11, align 4, !dbg !6516
  %52 = insertvalue { i8*, i32 } undef, i8* %50, 0, !dbg !6516
  %53 = insertvalue { i8*, i32 } %52, i32 %51, 1, !dbg !6516
  resume { i8*, i32 } %53, !dbg !6516
}

; Function Attrs: mustprogress noinline uwtable
define linkonce_odr dso_local void @_ZStplIcSt11char_traitsIcESaIcEENSt7__cxx1112basic_stringIT_T0_T1_EEOS8_S9_(%"class.std::__cxx11::basic_string"* noalias sret(%"class.std::__cxx11::basic_string") align 8 %0, %"class.std::__cxx11::basic_string"* noundef nonnull align 8 dereferenceable(32) %1, %"class.std::__cxx11::basic_string"* noundef nonnull align 8 dereferenceable(32) %2) #2 comdat !dbg !6529 {
  %4 = alloca i8*, align 8
  %5 = alloca %"class.std::__cxx11::basic_string"*, align 8
  %6 = alloca %"class.std::__cxx11::basic_string"*, align 8
  %7 = alloca i8, align 1
  %8 = alloca i64, align 8
  %9 = bitcast %"class.std::__cxx11::basic_string"* %0 to i8*
  store i8* %9, i8** %4, align 8
  store %"class.std::__cxx11::basic_string"* %1, %"class.std::__cxx11::basic_string"** %5, align 8
  call void @llvm.dbg.declare(metadata %"class.std::__cxx11::basic_string"** %5, metadata !6532, metadata !DIExpression()), !dbg !6533
  store %"class.std::__cxx11::basic_string"* %2, %"class.std::__cxx11::basic_string"** %6, align 8
  call void @llvm.dbg.declare(metadata %"class.std::__cxx11::basic_string"** %6, metadata !6534, metadata !DIExpression()), !dbg !6535
  call void @llvm.dbg.declare(metadata i8* %7, metadata !6536, metadata !DIExpression()), !dbg !6537
  store i8 0, i8* %7, align 1, !dbg !6537
  store i8 1, i8* %7, align 1, !dbg !6538
  %10 = load i8, i8* %7, align 1, !dbg !6540
  %11 = trunc i8 %10 to i1, !dbg !6540
  br i1 %11, label %12, label %32, !dbg !6542

12:                                               ; preds = %3
  call void @llvm.dbg.declare(metadata i64* %8, metadata !6543, metadata !DIExpression()), !dbg !6546
  %13 = load %"class.std::__cxx11::basic_string"*, %"class.std::__cxx11::basic_string"** %5, align 8, !dbg !6547
  %14 = call noundef i64 @_ZNKSt7__cxx1112basic_stringIcSt11char_traitsIcESaIcEE4sizeEv(%"class.std::__cxx11::basic_string"* noundef nonnull align 8 dereferenceable(32) %13) #10, !dbg !6548
  %15 = load %"class.std::__cxx11::basic_string"*, %"class.std::__cxx11::basic_string"** %6, align 8, !dbg !6549
  %16 = call noundef i64 @_ZNKSt7__cxx1112basic_stringIcSt11char_traitsIcESaIcEE4sizeEv(%"class.std::__cxx11::basic_string"* noundef nonnull align 8 dereferenceable(32) %15) #10, !dbg !6550
  %17 = add i64 %14, %16, !dbg !6551
  store i64 %17, i64* %8, align 8, !dbg !6546
  %18 = load i64, i64* %8, align 8, !dbg !6552
  %19 = load %"class.std::__cxx11::basic_string"*, %"class.std::__cxx11::basic_string"** %5, align 8, !dbg !6554
  %20 = call noundef i64 @_ZNKSt7__cxx1112basic_stringIcSt11char_traitsIcESaIcEE8capacityEv(%"class.std::__cxx11::basic_string"* noundef nonnull align 8 dereferenceable(32) %19) #10, !dbg !6555
  %21 = icmp ugt i64 %18, %20, !dbg !6556
  br i1 %21, label %22, label %32, !dbg !6557

22:                                               ; preds = %12
  %23 = load i64, i64* %8, align 8, !dbg !6558
  %24 = load %"class.std::__cxx11::basic_string"*, %"class.std::__cxx11::basic_string"** %6, align 8, !dbg !6559
  %25 = call noundef i64 @_ZNKSt7__cxx1112basic_stringIcSt11char_traitsIcESaIcEE8capacityEv(%"class.std::__cxx11::basic_string"* noundef nonnull align 8 dereferenceable(32) %24) #10, !dbg !6560
  %26 = icmp ule i64 %23, %25, !dbg !6561
  br i1 %26, label %27, label %32, !dbg !6562

27:                                               ; preds = %22
  %28 = load %"class.std::__cxx11::basic_string"*, %"class.std::__cxx11::basic_string"** %6, align 8, !dbg !6563
  %29 = load %"class.std::__cxx11::basic_string"*, %"class.std::__cxx11::basic_string"** %5, align 8, !dbg !6564
  %30 = call noundef nonnull align 8 dereferenceable(32) %"class.std::__cxx11::basic_string"* @_ZNSt7__cxx1112basic_stringIcSt11char_traitsIcESaIcEE6insertEmRKS4_(%"class.std::__cxx11::basic_string"* noundef nonnull align 8 dereferenceable(32) %28, i64 noundef 0, %"class.std::__cxx11::basic_string"* noundef nonnull align 8 dereferenceable(32) %29), !dbg !6565
  %31 = call noundef nonnull align 8 dereferenceable(32) %"class.std::__cxx11::basic_string"* @_ZSt4moveIRNSt7__cxx1112basic_stringIcSt11char_traitsIcESaIcEEEEONSt16remove_referenceIT_E4typeEOS8_(%"class.std::__cxx11::basic_string"* noundef nonnull align 8 dereferenceable(32) %30) #10, !dbg !6566
  call void @_ZNSt7__cxx1112basic_stringIcSt11char_traitsIcESaIcEEC1EOS4_(%"class.std::__cxx11::basic_string"* noundef nonnull align 8 dereferenceable(32) %0, %"class.std::__cxx11::basic_string"* noundef nonnull align 8 dereferenceable(32) %31) #10, !dbg !6566
  br label %37, !dbg !6567

32:                                               ; preds = %12, %22, %3
  %33 = load %"class.std::__cxx11::basic_string"*, %"class.std::__cxx11::basic_string"** %5, align 8, !dbg !6568
  %34 = load %"class.std::__cxx11::basic_string"*, %"class.std::__cxx11::basic_string"** %6, align 8, !dbg !6569
  %35 = call noundef nonnull align 8 dereferenceable(32) %"class.std::__cxx11::basic_string"* @_ZNSt7__cxx1112basic_stringIcSt11char_traitsIcESaIcEE6appendERKS4_(%"class.std::__cxx11::basic_string"* noundef nonnull align 8 dereferenceable(32) %33, %"class.std::__cxx11::basic_string"* noundef nonnull align 8 dereferenceable(32) %34), !dbg !6570
  %36 = call noundef nonnull align 8 dereferenceable(32) %"class.std::__cxx11::basic_string"* @_ZSt4moveIRNSt7__cxx1112basic_stringIcSt11char_traitsIcESaIcEEEEONSt16remove_referenceIT_E4typeEOS8_(%"class.std::__cxx11::basic_string"* noundef nonnull align 8 dereferenceable(32) %35) #10, !dbg !6571
  call void @_ZNSt7__cxx1112basic_stringIcSt11char_traitsIcESaIcEEC1EOS4_(%"class.std::__cxx11::basic_string"* noundef nonnull align 8 dereferenceable(32) %0, %"class.std::__cxx11::basic_string"* noundef nonnull align 8 dereferenceable(32) %36) #10, !dbg !6571
  br label %37, !dbg !6572

37:                                               ; preds = %32, %27
  ret void, !dbg !6573
}

; Function Attrs: mustprogress noinline uwtable
define linkonce_odr dso_local void @_ZStplIcSt11char_traitsIcESaIcEENSt7__cxx1112basic_stringIT_T0_T1_EERKS8_PKS5_(%"class.std::__cxx11::basic_string"* noalias sret(%"class.std::__cxx11::basic_string") align 8 %0, %"class.std::__cxx11::basic_string"* noundef nonnull align 8 dereferenceable(32) %1, i8* noundef %2) #2 comdat personality i8* bitcast (i32 (...)* @__gxx_personality_v0 to i8*) !dbg !6574 {
  %4 = alloca i8*, align 8
  %5 = alloca %"class.std::__cxx11::basic_string"*, align 8
  %6 = alloca i8*, align 8
  %7 = alloca i1, align 1
  %8 = alloca i8*, align 8
  %9 = alloca i32, align 4
  %10 = bitcast %"class.std::__cxx11::basic_string"* %0 to i8*
  store i8* %10, i8** %4, align 8
  store %"class.std::__cxx11::basic_string"* %1, %"class.std::__cxx11::basic_string"** %5, align 8
  call void @llvm.dbg.declare(metadata %"class.std::__cxx11::basic_string"** %5, metadata !6577, metadata !DIExpression()), !dbg !6578
  store i8* %2, i8** %6, align 8
  call void @llvm.dbg.declare(metadata i8** %6, metadata !6579, metadata !DIExpression()), !dbg !6580
  store i1 false, i1* %7, align 1, !dbg !6581
  call void @llvm.dbg.declare(metadata i8** %4, metadata !6582, metadata !DIExpression(DW_OP_deref)), !dbg !6583
  %11 = load %"class.std::__cxx11::basic_string"*, %"class.std::__cxx11::basic_string"** %5, align 8, !dbg !6584
  call void @_ZNSt7__cxx1112basic_stringIcSt11char_traitsIcESaIcEEC1ERKS4_(%"class.std::__cxx11::basic_string"* noundef nonnull align 8 dereferenceable(32) %0, %"class.std::__cxx11::basic_string"* noundef nonnull align 8 dereferenceable(32) %11), !dbg !6583
  %12 = load i8*, i8** %6, align 8, !dbg !6585
  %13 = invoke noundef nonnull align 8 dereferenceable(32) %"class.std::__cxx11::basic_string"* @_ZNSt7__cxx1112basic_stringIcSt11char_traitsIcESaIcEE6appendEPKc(%"class.std::__cxx11::basic_string"* noundef nonnull align 8 dereferenceable(32) %0, i8* noundef %12)
          to label %14 unwind label %16, !dbg !6586

14:                                               ; preds = %3
  store i1 true, i1* %7, align 1, !dbg !6587
  %15 = load i1, i1* %7, align 1, !dbg !6588
  br i1 %15, label %25, label %24, !dbg !6588

16:                                               ; preds = %3
  %17 = landingpad { i8*, i32 }
          cleanup, !dbg !6588
  %18 = extractvalue { i8*, i32 } %17, 0, !dbg !6588
  store i8* %18, i8** %8, align 8, !dbg !6588
  %19 = extractvalue { i8*, i32 } %17, 1, !dbg !6588
  store i32 %19, i32* %9, align 4, !dbg !6588
  call void @_ZNSt7__cxx1112basic_stringIcSt11char_traitsIcESaIcEED1Ev(%"class.std::__cxx11::basic_string"* noundef nonnull align 8 dereferenceable(32) %0) #10, !dbg !6588
  %20 = load i8*, i8** %8, align 8, !dbg !6588
  %21 = load i32, i32* %9, align 4, !dbg !6588
  %22 = insertvalue { i8*, i32 } undef, i8* %20, 0, !dbg !6588
  %23 = insertvalue { i8*, i32 } %22, i32 %21, 1, !dbg !6588
  resume { i8*, i32 } %23, !dbg !6588

24:                                               ; preds = %14
  call void @_ZNSt7__cxx1112basic_stringIcSt11char_traitsIcESaIcEED1Ev(%"class.std::__cxx11::basic_string"* noundef nonnull align 8 dereferenceable(32) %0) #10, !dbg !6588
  br label %25, !dbg !6588

25:                                               ; preds = %24, %14
  ret void, !dbg !6588
}

; Function Attrs: mustprogress noinline nounwind uwtable
define dso_local noundef i32 @_ZN10INTERFACES23queryInterfaceRegistersEPNS_18interfaceRegistersE(%class.INTERFACES* noundef nonnull align 8 dereferenceable(48) %0, %"struct.INTERFACES::interfaceRegisters"* noundef %1) #0 align 2 !dbg !6589 {
  %3 = alloca %class.INTERFACES*, align 8
  %4 = alloca %"struct.INTERFACES::interfaceRegisters"*, align 8
  store %class.INTERFACES* %0, %class.INTERFACES** %3, align 8
  call void @llvm.dbg.declare(metadata %class.INTERFACES** %3, metadata !6590, metadata !DIExpression()), !dbg !6591
  store %"struct.INTERFACES::interfaceRegisters"* %1, %"struct.INTERFACES::interfaceRegisters"** %4, align 8
  call void @llvm.dbg.declare(metadata %"struct.INTERFACES::interfaceRegisters"** %4, metadata !6592, metadata !DIExpression()), !dbg !6593
  %5 = load %class.INTERFACES*, %class.INTERFACES** %3, align 8
  %6 = load %"struct.INTERFACES::interfaceRegisters"*, %"struct.INTERFACES::interfaceRegisters"** %4, align 8, !dbg !6594
  %7 = getelementptr inbounds %"struct.INTERFACES::interfaceRegisters", %"struct.INTERFACES::interfaceRegisters"* %6, i32 0, i32 2, !dbg !6595
  %8 = load i32, i32* %7, align 8, !dbg !6595
  ret i32 %8, !dbg !6596
}

; Function Attrs: mustprogress noinline nounwind uwtable
define dso_local void @_ZN10INTERFACES28writeToSelfInterfaceRegisterEPNS_18interfaceRegistersEi(%class.INTERFACES* noundef nonnull align 8 dereferenceable(48) %0, %"struct.INTERFACES::interfaceRegisters"* noundef %1, i32 noundef %2) #0 align 2 !dbg !6597 {
  %4 = alloca %class.INTERFACES*, align 8
  %5 = alloca %"struct.INTERFACES::interfaceRegisters"*, align 8
  %6 = alloca i32, align 4
  store %class.INTERFACES* %0, %class.INTERFACES** %4, align 8
  call void @llvm.dbg.declare(metadata %class.INTERFACES** %4, metadata !6598, metadata !DIExpression()), !dbg !6599
  store %"struct.INTERFACES::interfaceRegisters"* %1, %"struct.INTERFACES::interfaceRegisters"** %5, align 8
  call void @llvm.dbg.declare(metadata %"struct.INTERFACES::interfaceRegisters"** %5, metadata !6600, metadata !DIExpression()), !dbg !6601
  store i32 %2, i32* %6, align 4
  call void @llvm.dbg.declare(metadata i32* %6, metadata !6602, metadata !DIExpression()), !dbg !6603
  %7 = load %class.INTERFACES*, %class.INTERFACES** %4, align 8
  %8 = load i32, i32* %6, align 4, !dbg !6604
  %9 = load %"struct.INTERFACES::interfaceRegisters"*, %"struct.INTERFACES::interfaceRegisters"** %5, align 8, !dbg !6605
  %10 = getelementptr inbounds %"struct.INTERFACES::interfaceRegisters", %"struct.INTERFACES::interfaceRegisters"* %9, i32 0, i32 2, !dbg !6606
  store i32 %8, i32* %10, align 8, !dbg !6607
  ret void, !dbg !6608
}

; Function Attrs: mustprogress noinline uwtable
define dso_local void @_ZN10INTERFACES30updateDirSelfInterfaceRegisterEPNS_18interfaceRegistersENSt7__cxx1112basic_stringIcSt11char_traitsIcESaIcEEE(%class.INTERFACES* noundef nonnull align 8 dereferenceable(48) %0, %"struct.INTERFACES::interfaceRegisters"* noundef %1, %"class.std::__cxx11::basic_string"* noundef %2) #2 align 2 !dbg !6609 {
  %4 = alloca %class.INTERFACES*, align 8
  %5 = alloca %"struct.INTERFACES::interfaceRegisters"*, align 8
  store %class.INTERFACES* %0, %class.INTERFACES** %4, align 8
  call void @llvm.dbg.declare(metadata %class.INTERFACES** %4, metadata !6610, metadata !DIExpression()), !dbg !6611
  store %"struct.INTERFACES::interfaceRegisters"* %1, %"struct.INTERFACES::interfaceRegisters"** %5, align 8
  call void @llvm.dbg.declare(metadata %"struct.INTERFACES::interfaceRegisters"** %5, metadata !6612, metadata !DIExpression()), !dbg !6613
  call void @llvm.dbg.declare(metadata %"class.std::__cxx11::basic_string"* %2, metadata !6614, metadata !DIExpression()), !dbg !6615
  %6 = load %class.INTERFACES*, %class.INTERFACES** %4, align 8
  %7 = load %"struct.INTERFACES::interfaceRegisters"*, %"struct.INTERFACES::interfaceRegisters"** %5, align 8, !dbg !6616
  %8 = getelementptr inbounds %"struct.INTERFACES::interfaceRegisters", %"struct.INTERFACES::interfaceRegisters"* %7, i32 0, i32 1, !dbg !6617
  %9 = call noundef nonnull align 8 dereferenceable(32) %"class.std::__cxx11::basic_string"* @_ZNSt7__cxx1112basic_stringIcSt11char_traitsIcESaIcEEaSERKS4_(%"class.std::__cxx11::basic_string"* noundef nonnull align 8 dereferenceable(32) %8, %"class.std::__cxx11::basic_string"* noundef nonnull align 8 dereferenceable(32) %2), !dbg !6618
  ret void, !dbg !6619
}

declare noundef nonnull align 8 dereferenceable(32) %"class.std::__cxx11::basic_string"* @_ZNSt7__cxx1112basic_stringIcSt11char_traitsIcESaIcEEaSERKS4_(%"class.std::__cxx11::basic_string"* noundef nonnull align 8 dereferenceable(32), %"class.std::__cxx11::basic_string"* noundef nonnull align 8 dereferenceable(32)) #4

; Function Attrs: mustprogress noinline uwtable
define dso_local void @_ZN10INTERFACES27writeToExtInterfaceRegisterEPNS_18interfaceRegistersEi(%class.INTERFACES* noundef nonnull align 8 dereferenceable(48) %0, %"struct.INTERFACES::interfaceRegisters"* noundef %1, i32 noundef %2) #2 align 2 personality i8* bitcast (i32 (...)* @__gxx_personality_v0 to i8*) !dbg !6620 {
  %4 = alloca %class.INTERFACES*, align 8
  %5 = alloca %"struct.INTERFACES::interfaceRegisters"*, align 8
  %6 = alloca i32, align 4
  %7 = alloca %"class.std::__cxx11::basic_string", align 8
  %8 = alloca %"class.std::__cxx11::basic_string", align 8
  %9 = alloca %"class.std::__cxx11::basic_string", align 8
  %10 = alloca i8*, align 8
  %11 = alloca i32, align 4
  %12 = alloca %"class.std::__cxx11::basic_string", align 8
  %13 = alloca %"class.std::__cxx11::basic_string", align 8
  %14 = alloca %"class.std::__cxx11::basic_string", align 8
  store %class.INTERFACES* %0, %class.INTERFACES** %4, align 8
  call void @llvm.dbg.declare(metadata %class.INTERFACES** %4, metadata !6621, metadata !DIExpression()), !dbg !6622
  store %"struct.INTERFACES::interfaceRegisters"* %1, %"struct.INTERFACES::interfaceRegisters"** %5, align 8
  call void @llvm.dbg.declare(metadata %"struct.INTERFACES::interfaceRegisters"** %5, metadata !6623, metadata !DIExpression()), !dbg !6624
  store i32 %2, i32* %6, align 4
  call void @llvm.dbg.declare(metadata i32* %6, metadata !6625, metadata !DIExpression()), !dbg !6626
  %15 = load %class.INTERFACES*, %class.INTERFACES** %4, align 8
  %16 = load %"struct.INTERFACES::interfaceRegisters"*, %"struct.INTERFACES::interfaceRegisters"** %5, align 8, !dbg !6627
  %17 = getelementptr inbounds %"struct.INTERFACES::interfaceRegisters", %"struct.INTERFACES::interfaceRegisters"* %16, i32 0, i32 1, !dbg !6629
  %18 = call noundef zeroext i1 @_ZSteqIcSt11char_traitsIcESaIcEEbRKNSt7__cxx1112basic_stringIT_T0_T1_EEPKS5_(%"class.std::__cxx11::basic_string"* noundef nonnull align 8 dereferenceable(32) %17, i8* noundef getelementptr inbounds ([6 x i8], [6 x i8]* @.str.15, i64 0, i64 0)), !dbg !6630
  br i1 %18, label %19, label %36, !dbg !6631

19:                                               ; preds = %3
  call void @llvm.dbg.declare(metadata %"class.std::__cxx11::basic_string"* %7, metadata !6632, metadata !DIExpression()), !dbg !6634
  %20 = load %"struct.INTERFACES::interfaceRegisters"*, %"struct.INTERFACES::interfaceRegisters"** %5, align 8, !dbg !6635
  %21 = getelementptr inbounds %"struct.INTERFACES::interfaceRegisters", %"struct.INTERFACES::interfaceRegisters"* %20, i32 0, i32 0, !dbg !6636
  call void @_ZStplIcSt11char_traitsIcESaIcEENSt7__cxx1112basic_stringIT_T0_T1_EEPKS5_RKS8_(%"class.std::__cxx11::basic_string"* sret(%"class.std::__cxx11::basic_string") align 8 %9, i8* noundef getelementptr inbounds ([9 x i8], [9 x i8]* @.str.16, i64 0, i64 0), %"class.std::__cxx11::basic_string"* noundef nonnull align 8 dereferenceable(32) %21), !dbg !6637
  invoke void @_ZStplIcSt11char_traitsIcESaIcEENSt7__cxx1112basic_stringIT_T0_T1_EEOS8_PKS5_(%"class.std::__cxx11::basic_string"* sret(%"class.std::__cxx11::basic_string") align 8 %8, %"class.std::__cxx11::basic_string"* noundef nonnull align 8 dereferenceable(32) %9, i8* noundef getelementptr inbounds ([15 x i8], [15 x i8]* @.str.17, i64 0, i64 0))
          to label %22 unwind label %27, !dbg !6638

22:                                               ; preds = %19
  invoke void @_ZStplIcSt11char_traitsIcESaIcEENSt7__cxx1112basic_stringIT_T0_T1_EEOS8_PKS5_(%"class.std::__cxx11::basic_string"* sret(%"class.std::__cxx11::basic_string") align 8 %7, %"class.std::__cxx11::basic_string"* noundef nonnull align 8 dereferenceable(32) %8, i8* noundef getelementptr inbounds ([40 x i8], [40 x i8]* @.str.18, i64 0, i64 0))
          to label %23 unwind label %31, !dbg !6639

